
cc.elf:     file format elf32-avr

Sections:
Idx Name          Size      VMA       LMA       File off  Algn
  0 .text         00005f4a  00000000  00000000  000000b4  2**1
                  CONTENTS, ALLOC, LOAD, READONLY, CODE
  1 .data         000001b2  00800060  00005f4a  00005ffe  2**0
                  CONTENTS, ALLOC, LOAD, DATA
  2 .bss          00000076  00800212  00800212  000061b0  2**0
                  ALLOC
  3 .eeprom       00000400  00810000  00810000  000061b0  2**0
                  CONTENTS, ALLOC, LOAD, DATA
  4 .comment      0000005c  00000000  00000000  000065b0  2**0
                  CONTENTS, READONLY
  5 .note.gnu.avr.deviceinfo 0000003c  00000000  00000000  0000660c  2**2
                  CONTENTS, READONLY
  6 .debug_aranges 00000040  00000000  00000000  00006648  2**3
                  CONTENTS, READONLY, DEBUGGING
  7 .debug_info   0000063a  00000000  00000000  00006688  2**0
                  CONTENTS, READONLY, DEBUGGING
  8 .debug_abbrev 000004cb  00000000  00000000  00006cc2  2**0
                  CONTENTS, READONLY, DEBUGGING
  9 .debug_line   00000227  00000000  00000000  0000718d  2**0
                  CONTENTS, READONLY, DEBUGGING
 10 .debug_str    00000196  00000000  00000000  000073b4  2**0
                  CONTENTS, READONLY, DEBUGGING

Disassembly of section .text:

00000000 <__vectors>:
       0:	0c 94 c9 00 	jmp	0x192	; 0x192 <__ctors_end>
       4:	0c 94 e6 00 	jmp	0x1cc	; 0x1cc <__bad_interrupt>
       8:	0c 94 e6 00 	jmp	0x1cc	; 0x1cc <__bad_interrupt>
       c:	0c 94 e6 00 	jmp	0x1cc	; 0x1cc <__bad_interrupt>
      10:	0c 94 e6 00 	jmp	0x1cc	; 0x1cc <__bad_interrupt>
      14:	0c 94 e6 00 	jmp	0x1cc	; 0x1cc <__bad_interrupt>
      18:	0c 94 e6 00 	jmp	0x1cc	; 0x1cc <__bad_interrupt>
      1c:	0c 94 e6 00 	jmp	0x1cc	; 0x1cc <__bad_interrupt>
      20:	0c 94 e6 00 	jmp	0x1cc	; 0x1cc <__bad_interrupt>
      24:	0c 94 e6 00 	jmp	0x1cc	; 0x1cc <__bad_interrupt>
      28:	0c 94 e6 00 	jmp	0x1cc	; 0x1cc <__bad_interrupt>
      2c:	0c 94 e6 00 	jmp	0x1cc	; 0x1cc <__bad_interrupt>
      30:	0c 94 e6 00 	jmp	0x1cc	; 0x1cc <__bad_interrupt>
      34:	0c 94 04 16 	jmp	0x2c08	; 0x2c08 <__vector_13>
      38:	0c 94 e6 00 	jmp	0x1cc	; 0x1cc <__bad_interrupt>
      3c:	0c 94 e6 00 	jmp	0x1cc	; 0x1cc <__bad_interrupt>
      40:	0c 94 e6 00 	jmp	0x1cc	; 0x1cc <__bad_interrupt>
      44:	0c 94 e6 00 	jmp	0x1cc	; 0x1cc <__bad_interrupt>
      48:	0c 94 e6 00 	jmp	0x1cc	; 0x1cc <__bad_interrupt>
      4c:	0c 94 e6 00 	jmp	0x1cc	; 0x1cc <__bad_interrupt>
      50:	0c 94 e6 00 	jmp	0x1cc	; 0x1cc <__bad_interrupt>

00000054 <__trampolines_end>:
      54:	6e 61       	ori	r22, 0x1E	; 30
      56:	6e 00       	.word	0x006e	; ????

00000058 <__c.2332>:
      58:	69 6e 66 00 00 40 7a 10 f3 5a 00 a0 72 4e 18 09     inf..@z..Z..rN..
      68:	00 10 a5 d4 e8 00 00 e8 76 48 17 00 00 e4 0b 54     ........vH.....T
      78:	02 00 00 ca 9a 3b 00 00 00 e1 f5 05 00 00 80 96     .....;..........
      88:	98 00 00 00 40 42 0f 00 00 00 a0 86 01 00 00 00     ....@B..........
      98:	10 27 00 00 00 00 e8 03 00 00 00 00 64 00 00 00     .'..........d...
      a8:	00 00 0a 00 00 00 00 00 01 00 00 00 00 00 2c 76     ..............,v
      b8:	d8 88 dc 67 4f 08 23 df c1 df ae 59 e1 b1 b7 96     ...gO.#....Y....
      c8:	e5 e3 e4 53 c6 3a e6 51 99 76 96 e8 e6 c2 84 26     ...S.:.Q.v.....&
      d8:	eb 89 8c 9b 62 ed 40 7c 6f fc ef bc 9c 9f 40 f2     ....b.@|o.....@.
      e8:	ba a5 6f a5 f4 90 05 5a 2a f7 5c 93 6b 6c f9 67     ..o....Z*.\.kl.g
      f8:	6d c1 1b fc e0 e4 0d 47 fe f5 20 e6 b5 00 d0 ed     m......G.. .....
     108:	90 2e 03 00 94 35 77 05 00 80 84 1e 08 00 00 20     .....5w........ 
     118:	4e 0a 00 00 00 c8 0c 33 33 33 33 0f 98 6e 12 83     N......3333..n..
     128:	11 41 ef 8d 21 14 89 3b e6 55 16 cf fe e6 db 18     .A..!..;.U......
     138:	d1 84 4b 38 1b f7 7c 1d 90 1d a4 bb e4 24 20 32     ..K8..|......$ 2
     148:	84 72 5e 22 81 00 c9 f1 24 ec a1 e5 3d 27           .r^"....$...='

00000156 <pstr_nan>:
     156:	4e 41 4e                                            NAN

00000159 <pstr_inity>:
     159:	49 4e 49 54 59                                      INITY

0000015e <pstr_inf>:
     15e:	49 4e 46                                            INF

00000161 <pwr_m10>:
     161:	cd cc cc 3d 0a d7 23 3c 17 b7 d1 38 77 cc 2b 32     ...=..#<...8w.+2
     171:	95 95 e6 24 1f b1 4f 0a                             ...$..O.

00000179 <pwr_p10>:
     179:	00 00 20 41 00 00 c8 42 00 40 1c 46 20 bc be 4c     .. A...B.@.F ..L
     189:	ca 1b 0e 5a ae c5 9d 74 00                          ...Z...t.

00000192 <__ctors_end>:
     192:	11 24       	eor	r1, r1
     194:	1f be       	out	0x3f, r1	; 63
     196:	cf e5       	ldi	r28, 0x5F	; 95
     198:	d8 e0       	ldi	r29, 0x08	; 8
     19a:	de bf       	out	0x3e, r29	; 62
     19c:	cd bf       	out	0x3d, r28	; 61

0000019e <__do_copy_data>:
     19e:	12 e0       	ldi	r17, 0x02	; 2
     1a0:	a0 e6       	ldi	r26, 0x60	; 96
     1a2:	b0 e0       	ldi	r27, 0x00	; 0
     1a4:	ea e4       	ldi	r30, 0x4A	; 74
     1a6:	ff e5       	ldi	r31, 0x5F	; 95
     1a8:	02 c0       	rjmp	.+4      	; 0x1ae <__do_copy_data+0x10>
     1aa:	05 90       	lpm	r0, Z+
     1ac:	0d 92       	st	X+, r0
     1ae:	a2 31       	cpi	r26, 0x12	; 18
     1b0:	b1 07       	cpc	r27, r17
     1b2:	d9 f7       	brne	.-10     	; 0x1aa <__do_copy_data+0xc>

000001b4 <__do_clear_bss>:
     1b4:	22 e0       	ldi	r18, 0x02	; 2
     1b6:	a2 e1       	ldi	r26, 0x12	; 18
     1b8:	b2 e0       	ldi	r27, 0x02	; 2
     1ba:	01 c0       	rjmp	.+2      	; 0x1be <.do_clear_bss_start>

000001bc <.do_clear_bss_loop>:
     1bc:	1d 92       	st	X+, r1

000001be <.do_clear_bss_start>:
     1be:	a8 38       	cpi	r26, 0x88	; 136
     1c0:	b2 07       	cpc	r27, r18
     1c2:	e1 f7       	brne	.-8      	; 0x1bc <.do_clear_bss_loop>
     1c4:	0e 94 66 15 	call	0x2acc	; 0x2acc <main>
     1c8:	0c 94 a3 2f 	jmp	0x5f46	; 0x5f46 <_exit>

000001cc <__bad_interrupt>:
     1cc:	0c 94 00 00 	jmp	0	; 0x0 <__vectors>

000001d0 <_Z13SetNibblePinsc>:
     1d0:	40 91 66 00 	lds	r20, 0x0066	; 0x800066 <onPortA>
     1d4:	38 2f       	mov	r19, r24
     1d6:	31 70       	andi	r19, 0x01	; 1
     1d8:	28 2f       	mov	r18, r24
     1da:	22 70       	andi	r18, 0x02	; 2
     1dc:	98 2f       	mov	r25, r24
     1de:	94 70       	andi	r25, 0x04	; 4
     1e0:	88 70       	andi	r24, 0x08	; 8
     1e2:	44 23       	and	r20, r20
     1e4:	a9 f0       	breq	.+42     	; 0x210 <_Z13SetNibblePinsc+0x40>
     1e6:	33 23       	and	r19, r19
     1e8:	11 f0       	breq	.+4      	; 0x1ee <_Z13SetNibblePinsc+0x1e>
     1ea:	dc 9a       	sbi	0x1b, 4	; 27
     1ec:	01 c0       	rjmp	.+2      	; 0x1f0 <_Z13SetNibblePinsc+0x20>
     1ee:	dc 98       	cbi	0x1b, 4	; 27
     1f0:	22 23       	and	r18, r18
     1f2:	11 f0       	breq	.+4      	; 0x1f8 <_Z13SetNibblePinsc+0x28>
     1f4:	dd 9a       	sbi	0x1b, 5	; 27
     1f6:	01 c0       	rjmp	.+2      	; 0x1fa <_Z13SetNibblePinsc+0x2a>
     1f8:	dd 98       	cbi	0x1b, 5	; 27
     1fa:	99 23       	and	r25, r25
     1fc:	11 f0       	breq	.+4      	; 0x202 <_Z13SetNibblePinsc+0x32>
     1fe:	de 9a       	sbi	0x1b, 6	; 27
     200:	01 c0       	rjmp	.+2      	; 0x204 <_Z13SetNibblePinsc+0x34>
     202:	de 98       	cbi	0x1b, 6	; 27
     204:	88 23       	and	r24, r24
     206:	11 f0       	breq	.+4      	; 0x20c <_Z13SetNibblePinsc+0x3c>
     208:	df 9a       	sbi	0x1b, 7	; 27
     20a:	08 95       	ret
     20c:	df 98       	cbi	0x1b, 7	; 27
     20e:	08 95       	ret
     210:	33 23       	and	r19, r19
     212:	11 f0       	breq	.+4      	; 0x218 <_Z13SetNibblePinsc+0x48>
     214:	c4 9a       	sbi	0x18, 4	; 24
     216:	01 c0       	rjmp	.+2      	; 0x21a <_Z13SetNibblePinsc+0x4a>
     218:	c4 98       	cbi	0x18, 4	; 24
     21a:	22 23       	and	r18, r18
     21c:	11 f0       	breq	.+4      	; 0x222 <_Z13SetNibblePinsc+0x52>
     21e:	c5 9a       	sbi	0x18, 5	; 24
     220:	01 c0       	rjmp	.+2      	; 0x224 <_Z13SetNibblePinsc+0x54>
     222:	c5 98       	cbi	0x18, 5	; 24
     224:	99 23       	and	r25, r25
     226:	11 f0       	breq	.+4      	; 0x22c <_Z13SetNibblePinsc+0x5c>
     228:	c6 9a       	sbi	0x18, 6	; 24
     22a:	01 c0       	rjmp	.+2      	; 0x22e <_Z13SetNibblePinsc+0x5e>
     22c:	c6 98       	cbi	0x18, 6	; 24
     22e:	88 23       	and	r24, r24
     230:	11 f0       	breq	.+4      	; 0x236 <_Z13SetNibblePinsc+0x66>
     232:	c7 9a       	sbi	0x18, 7	; 24
     234:	08 95       	ret
     236:	c7 98       	cbi	0x18, 7	; 24
     238:	08 95       	ret

0000023a <_Z4SetEb>:
     23a:	90 91 66 00 	lds	r25, 0x0066	; 0x800066 <onPortA>
     23e:	88 23       	and	r24, r24
     240:	31 f0       	breq	.+12     	; 0x24e <_Z4SetEb+0x14>
     242:	99 23       	and	r25, r25
     244:	11 f0       	breq	.+4      	; 0x24a <_Z4SetEb+0x10>
     246:	da 9a       	sbi	0x1b, 2	; 27
     248:	08 95       	ret
     24a:	c2 9a       	sbi	0x18, 2	; 24
     24c:	08 95       	ret
     24e:	99 23       	and	r25, r25
     250:	11 f0       	breq	.+4      	; 0x256 <_Z4SetEb+0x1c>
     252:	da 98       	cbi	0x1b, 2	; 27
     254:	08 95       	ret
     256:	c2 98       	cbi	0x18, 2	; 24
     258:	08 95       	ret

0000025a <_Z5SetRWb>:
     25a:	90 91 66 00 	lds	r25, 0x0066	; 0x800066 <onPortA>
     25e:	88 23       	and	r24, r24
     260:	31 f0       	breq	.+12     	; 0x26e <_Z5SetRWb+0x14>
     262:	99 23       	and	r25, r25
     264:	11 f0       	breq	.+4      	; 0x26a <_Z5SetRWb+0x10>
     266:	d9 9a       	sbi	0x1b, 1	; 27
     268:	08 95       	ret
     26a:	c1 9a       	sbi	0x18, 1	; 24
     26c:	08 95       	ret
     26e:	99 23       	and	r25, r25
     270:	11 f0       	breq	.+4      	; 0x276 <_Z5SetRWb+0x1c>
     272:	d9 98       	cbi	0x1b, 1	; 27
     274:	08 95       	ret
     276:	c1 98       	cbi	0x18, 1	; 24
     278:	08 95       	ret

0000027a <_Z5SetRSb>:
     27a:	90 91 66 00 	lds	r25, 0x0066	; 0x800066 <onPortA>
     27e:	88 23       	and	r24, r24
     280:	31 f0       	breq	.+12     	; 0x28e <_Z5SetRSb+0x14>
     282:	99 23       	and	r25, r25
     284:	11 f0       	breq	.+4      	; 0x28a <_Z5SetRSb+0x10>
     286:	d8 9a       	sbi	0x1b, 0	; 27
     288:	08 95       	ret
     28a:	c0 9a       	sbi	0x18, 0	; 24
     28c:	08 95       	ret
     28e:	99 23       	and	r25, r25
     290:	11 f0       	breq	.+4      	; 0x296 <_Z5SetRSb+0x1c>
     292:	d8 98       	cbi	0x1b, 0	; 27
     294:	08 95       	ret
     296:	c0 98       	cbi	0x18, 0	; 24
     298:	08 95       	ret

0000029a <_Z8WriteLCDcb>:
     29a:	cf 93       	push	r28
     29c:	c8 2f       	mov	r28, r24
     29e:	86 2f       	mov	r24, r22
     2a0:	0e 94 3d 01 	call	0x27a	; 0x27a <_Z5SetRSb>
     2a4:	80 e0       	ldi	r24, 0x00	; 0
     2a6:	0e 94 2d 01 	call	0x25a	; 0x25a <_Z5SetRWb>
     2aa:	8c ec       	ldi	r24, 0xCC	; 204
     2ac:	9c e1       	ldi	r25, 0x1C	; 28
     2ae:	01 97       	sbiw	r24, 0x01	; 1
     2b0:	f1 f7       	brne	.-4      	; 0x2ae <_Z8WriteLCDcb+0x14>
     2b2:	00 c0       	rjmp	.+0      	; 0x2b4 <_Z8WriteLCDcb+0x1a>
     2b4:	00 00       	nop
     2b6:	81 e0       	ldi	r24, 0x01	; 1
     2b8:	0e 94 1d 01 	call	0x23a	; 0x23a <_Z4SetEb>
     2bc:	8c ec       	ldi	r24, 0xCC	; 204
     2be:	9c e1       	ldi	r25, 0x1C	; 28
     2c0:	01 97       	sbiw	r24, 0x01	; 1
     2c2:	f1 f7       	brne	.-4      	; 0x2c0 <_Z8WriteLCDcb+0x26>
     2c4:	00 c0       	rjmp	.+0      	; 0x2c6 <_Z8WriteLCDcb+0x2c>
     2c6:	00 00       	nop
     2c8:	8c 2f       	mov	r24, r28
     2ca:	82 95       	swap	r24
     2cc:	8f 70       	andi	r24, 0x0F	; 15
     2ce:	0e 94 e8 00 	call	0x1d0	; 0x1d0 <_Z13SetNibblePinsc>
     2d2:	8c ec       	ldi	r24, 0xCC	; 204
     2d4:	9c e1       	ldi	r25, 0x1C	; 28
     2d6:	01 97       	sbiw	r24, 0x01	; 1
     2d8:	f1 f7       	brne	.-4      	; 0x2d6 <_Z8WriteLCDcb+0x3c>
     2da:	00 c0       	rjmp	.+0      	; 0x2dc <_Z8WriteLCDcb+0x42>
     2dc:	00 00       	nop
     2de:	80 e0       	ldi	r24, 0x00	; 0
     2e0:	0e 94 1d 01 	call	0x23a	; 0x23a <_Z4SetEb>
     2e4:	8c ec       	ldi	r24, 0xCC	; 204
     2e6:	9c e1       	ldi	r25, 0x1C	; 28
     2e8:	01 97       	sbiw	r24, 0x01	; 1
     2ea:	f1 f7       	brne	.-4      	; 0x2e8 <_Z8WriteLCDcb+0x4e>
     2ec:	00 c0       	rjmp	.+0      	; 0x2ee <_Z8WriteLCDcb+0x54>
     2ee:	00 00       	nop
     2f0:	81 e0       	ldi	r24, 0x01	; 1
     2f2:	0e 94 1d 01 	call	0x23a	; 0x23a <_Z4SetEb>
     2f6:	8c ec       	ldi	r24, 0xCC	; 204
     2f8:	9c e1       	ldi	r25, 0x1C	; 28
     2fa:	01 97       	sbiw	r24, 0x01	; 1
     2fc:	f1 f7       	brne	.-4      	; 0x2fa <_Z8WriteLCDcb+0x60>
     2fe:	00 c0       	rjmp	.+0      	; 0x300 <_Z8WriteLCDcb+0x66>
     300:	00 00       	nop
     302:	8c 2f       	mov	r24, r28
     304:	8f 70       	andi	r24, 0x0F	; 15
     306:	0e 94 e8 00 	call	0x1d0	; 0x1d0 <_Z13SetNibblePinsc>
     30a:	86 e6       	ldi	r24, 0x66	; 102
     30c:	9e e0       	ldi	r25, 0x0E	; 14
     30e:	01 97       	sbiw	r24, 0x01	; 1
     310:	f1 f7       	brne	.-4      	; 0x30e <_Z8WriteLCDcb+0x74>
     312:	00 00       	nop
     314:	80 e0       	ldi	r24, 0x00	; 0
     316:	0e 94 1d 01 	call	0x23a	; 0x23a <_Z4SetEb>
     31a:	8c ec       	ldi	r24, 0xCC	; 204
     31c:	9c e1       	ldi	r25, 0x1C	; 28
     31e:	01 97       	sbiw	r24, 0x01	; 1
     320:	f1 f7       	brne	.-4      	; 0x31e <_Z8WriteLCDcb+0x84>
     322:	00 c0       	rjmp	.+0      	; 0x324 <_Z8WriteLCDcb+0x8a>
     324:	00 00       	nop
     326:	cf 91       	pop	r28
     328:	08 95       	ret

0000032a <_Z7InitLCDb>:
     32a:	80 93 66 00 	sts	0x0066, r24	; 0x800066 <onPortA>
     32e:	88 23       	and	r24, r24
     330:	19 f0       	breq	.+6      	; 0x338 <_Z7InitLCDb+0xe>
     332:	8f ef       	ldi	r24, 0xFF	; 255
     334:	8a bb       	out	0x1a, r24	; 26
     336:	02 c0       	rjmp	.+4      	; 0x33c <_Z7InitLCDb+0x12>
     338:	8f ef       	ldi	r24, 0xFF	; 255
     33a:	87 bb       	out	0x17, r24	; 23
     33c:	80 91 66 00 	lds	r24, 0x0066	; 0x800066 <onPortA>
     340:	88 23       	and	r24, r24
     342:	11 f0       	breq	.+4      	; 0x348 <_Z7InitLCDb+0x1e>
     344:	1b ba       	out	0x1b, r1	; 27
     346:	01 c0       	rjmp	.+2      	; 0x34a <_Z7InitLCDb+0x20>
     348:	18 ba       	out	0x18, r1	; 24
     34a:	60 e0       	ldi	r22, 0x00	; 0
     34c:	82 e0       	ldi	r24, 0x02	; 2
     34e:	0e 94 4d 01 	call	0x29a	; 0x29a <_Z8WriteLCDcb>
     352:	60 e0       	ldi	r22, 0x00	; 0
     354:	8c e0       	ldi	r24, 0x0C	; 12
     356:	0e 94 4d 01 	call	0x29a	; 0x29a <_Z8WriteLCDcb>
     35a:	60 e0       	ldi	r22, 0x00	; 0
     35c:	81 e0       	ldi	r24, 0x01	; 1
     35e:	0e 94 4d 01 	call	0x29a	; 0x29a <_Z8WriteLCDcb>
     362:	60 e0       	ldi	r22, 0x00	; 0
     364:	86 e0       	ldi	r24, 0x06	; 6
     366:	0e 94 4d 01 	call	0x29a	; 0x29a <_Z8WriteLCDcb>
     36a:	2f ef       	ldi	r18, 0xFF	; 255
     36c:	8f e7       	ldi	r24, 0x7F	; 127
     36e:	94 e0       	ldi	r25, 0x04	; 4
     370:	21 50       	subi	r18, 0x01	; 1
     372:	80 40       	sbci	r24, 0x00	; 0
     374:	90 40       	sbci	r25, 0x00	; 0
     376:	e1 f7       	brne	.-8      	; 0x370 <_Z7InitLCDb+0x46>
     378:	00 c0       	rjmp	.+0      	; 0x37a <_Z7InitLCDb+0x50>
     37a:	00 00       	nop
     37c:	08 95       	ret

0000037e <_Z10lcd_printfPKc>:
     37e:	cf 93       	push	r28
     380:	df 93       	push	r29
     382:	ec 01       	movw	r28, r24
     384:	89 91       	ld	r24, Y+
     386:	88 23       	and	r24, r24
     388:	21 f0       	breq	.+8      	; 0x392 <_Z10lcd_printfPKc+0x14>
     38a:	61 e0       	ldi	r22, 0x01	; 1
     38c:	0e 94 4d 01 	call	0x29a	; 0x29a <_Z8WriteLCDcb>
     390:	f9 cf       	rjmp	.-14     	; 0x384 <_Z10lcd_printfPKc+0x6>
     392:	df 91       	pop	r29
     394:	cf 91       	pop	r28
     396:	08 95       	ret

00000398 <_Z8ClearLCDv>:
     398:	60 e0       	ldi	r22, 0x00	; 0
     39a:	81 e0       	ldi	r24, 0x01	; 1
     39c:	0c 94 4d 01 	jmp	0x29a	; 0x29a <_Z8WriteLCDcb>

000003a0 <_Z9SetLCD_XYii>:
     3a0:	9b 01       	movw	r18, r22
     3a2:	89 2b       	or	r24, r25
     3a4:	09 f0       	breq	.+2      	; 0x3a8 <_Z9SetLCD_XYii+0x8>
     3a6:	20 64       	ori	r18, 0x40	; 64
     3a8:	60 e0       	ldi	r22, 0x00	; 0
     3aa:	82 2f       	mov	r24, r18
     3ac:	80 68       	ori	r24, 0x80	; 128
     3ae:	0c 94 4d 01 	jmp	0x29a	; 0x29a <_Z8WriteLCDcb>

000003b2 <_ZN11InterpreterC1Ev>:
     3b2:	ef 92       	push	r14
     3b4:	ff 92       	push	r15
     3b6:	0f 93       	push	r16
     3b8:	1f 93       	push	r17
     3ba:	cf 93       	push	r28
     3bc:	df 93       	push	r29
     3be:	ec 01       	movw	r28, r24
     3c0:	8c 01       	movw	r16, r24
     3c2:	0f 5c       	subi	r16, 0xCF	; 207
     3c4:	1f 4f       	sbci	r17, 0xFF	; 255
     3c6:	7c 01       	movw	r14, r24
     3c8:	8f ed       	ldi	r24, 0xDF	; 223
     3ca:	e8 1a       	sub	r14, r24
     3cc:	8e ef       	ldi	r24, 0xFE	; 254
     3ce:	f8 0a       	sbc	r15, r24
     3d0:	c8 01       	movw	r24, r16
     3d2:	0e 94 e3 16 	call	0x2dc6	; 0x2dc6 <_ZN5ValueC1Ev>
     3d6:	08 5d       	subi	r16, 0xD8	; 216
     3d8:	1f 4f       	sbci	r17, 0xFF	; 255
     3da:	0e 15       	cp	r16, r14
     3dc:	1f 05       	cpc	r17, r15
     3de:	c1 f7       	brne	.-16     	; 0x3d0 <_ZN11InterpreterC1Ev+0x1e>
     3e0:	ce 01       	movw	r24, r28
     3e2:	8c 5b       	subi	r24, 0xBC	; 188
     3e4:	9e 4f       	sbci	r25, 0xFE	; 254
     3e6:	0e 94 e3 16 	call	0x2dc6	; 0x2dc6 <_ZN5ValueC1Ev>
     3ea:	81 e0       	ldi	r24, 0x01	; 1
     3ec:	88 83       	st	Y, r24
     3ee:	c6 5c       	subi	r28, 0xC6	; 198
     3f0:	de 4f       	sbci	r29, 0xFE	; 254
     3f2:	19 82       	std	Y+1, r1	; 0x01
     3f4:	18 82       	st	Y, r1
     3f6:	df 91       	pop	r29
     3f8:	cf 91       	pop	r28
     3fa:	1f 91       	pop	r17
     3fc:	0f 91       	pop	r16
     3fe:	ff 90       	pop	r15
     400:	ef 90       	pop	r14
     402:	08 95       	ret

00000404 <_ZN11Interpreter17get_next_pgm_byteEi>:
     404:	fc 01       	movw	r30, r24
     406:	80 81       	ld	r24, Z
     408:	e4 5c       	subi	r30, 0xC4	; 196
     40a:	fe 4f       	sbci	r31, 0xFE	; 254
     40c:	81 11       	cpse	r24, r1
     40e:	06 c0       	rjmp	.+12     	; 0x41c <_ZN11Interpreter17get_next_pgm_byteEi+0x18>
     410:	80 81       	ld	r24, Z
     412:	91 81       	ldd	r25, Z+1	; 0x01
     414:	86 0f       	add	r24, r22
     416:	97 1f       	adc	r25, r23
     418:	0c 94 42 2f 	jmp	0x5e84	; 0x5e84 <eeprom_read_byte>
     41c:	80 81       	ld	r24, Z
     41e:	91 81       	ldd	r25, Z+1	; 0x01
     420:	fc 01       	movw	r30, r24
     422:	e6 0f       	add	r30, r22
     424:	f7 1f       	adc	r31, r23
     426:	80 81       	ld	r24, Z
     428:	08 95       	ret

0000042a <_ZN11Interpreter5errorEPKc>:
     42a:	0f 93       	push	r16
     42c:	1f 93       	push	r17
     42e:	cf 93       	push	r28
     430:	df 93       	push	r29
     432:	ec 01       	movw	r28, r24
     434:	8b 01       	movw	r16, r22
     436:	60 e0       	ldi	r22, 0x00	; 0
     438:	70 e0       	ldi	r23, 0x00	; 0
     43a:	80 e0       	ldi	r24, 0x00	; 0
     43c:	90 e0       	ldi	r25, 0x00	; 0
     43e:	0e 94 d0 01 	call	0x3a0	; 0x3a0 <_Z9SetLCD_XYii>
     442:	0e 94 cc 01 	call	0x398	; 0x398 <_Z8ClearLCDv>
     446:	87 e6       	ldi	r24, 0x67	; 103
     448:	90 e0       	ldi	r25, 0x00	; 0
     44a:	0e 94 bf 01 	call	0x37e	; 0x37e <_Z10lcd_printfPKc>
     44e:	60 e0       	ldi	r22, 0x00	; 0
     450:	70 e0       	ldi	r23, 0x00	; 0
     452:	81 e0       	ldi	r24, 0x01	; 1
     454:	90 e0       	ldi	r25, 0x00	; 0
     456:	0e 94 d0 01 	call	0x3a0	; 0x3a0 <_Z9SetLCD_XYii>
     45a:	f8 01       	movw	r30, r16
     45c:	80 81       	ld	r24, Z
     45e:	81 11       	cpse	r24, r1
     460:	06 c0       	rjmp	.+12     	; 0x46e <_ZN11Interpreter5errorEPKc+0x44>
     462:	ce 01       	movw	r24, r28
     464:	8c 5b       	subi	r24, 0xBC	; 188
     466:	9e 4f       	sbci	r25, 0xFE	; 254
     468:	0e 94 cd 22 	call	0x459a	; 0x459a <_ZN5Value8ToStringEv>
     46c:	01 c0       	rjmp	.+2      	; 0x470 <_ZN11Interpreter5errorEPKc+0x46>
     46e:	c8 01       	movw	r24, r16
     470:	0e 94 bf 01 	call	0x37e	; 0x37e <_Z10lcd_printfPKc>
     474:	88 81       	ld	r24, Y
     476:	81 11       	cpse	r24, r1
     478:	01 c0       	rjmp	.+2      	; 0x47c <_ZN11Interpreter5errorEPKc+0x52>
     47a:	ff cf       	rjmp	.-2      	; 0x47a <_ZN11Interpreter5errorEPKc+0x50>
     47c:	df 91       	pop	r29
     47e:	cf 91       	pop	r28
     480:	1f 91       	pop	r17
     482:	0f 91       	pop	r16
     484:	08 95       	ret

00000486 <_ZN11Interpreter7advanceEv>:
     486:	cf 93       	push	r28
     488:	df 93       	push	r29
     48a:	fc 01       	movw	r30, r24
     48c:	e2 5c       	subi	r30, 0xC2	; 194
     48e:	fe 4f       	sbci	r31, 0xFE	; 254
     490:	60 81       	ld	r22, Z
     492:	71 81       	ldd	r23, Z+1	; 0x01
     494:	6f 5f       	subi	r22, 0xFF	; 255
     496:	7f 4f       	sbci	r23, 0xFF	; 255
     498:	71 83       	std	Z+1, r23	; 0x01
     49a:	60 83       	st	Z, r22
     49c:	32 96       	adiw	r30, 0x02	; 2
     49e:	20 81       	ld	r18, Z
     4a0:	31 81       	ldd	r19, Z+1	; 0x01
     4a2:	ec 01       	movw	r28, r24
     4a4:	ce 5b       	subi	r28, 0xBE	; 190
     4a6:	de 4f       	sbci	r29, 0xFE	; 254
     4a8:	62 17       	cp	r22, r18
     4aa:	73 07       	cpc	r23, r19
     4ac:	14 f0       	brlt	.+4      	; 0x4b2 <_ZN11Interpreter7advanceEv+0x2c>
     4ae:	18 82       	st	Y, r1
     4b0:	03 c0       	rjmp	.+6      	; 0x4b8 <_ZN11Interpreter7advanceEv+0x32>
     4b2:	0e 94 02 02 	call	0x404	; 0x404 <_ZN11Interpreter17get_next_pgm_byteEi>
     4b6:	88 83       	st	Y, r24
     4b8:	df 91       	pop	r29
     4ba:	cf 91       	pop	r28
     4bc:	08 95       	ret

000004be <_ZN11Interpreter4peekEv>:
     4be:	fc 01       	movw	r30, r24
     4c0:	e2 5c       	subi	r30, 0xC2	; 194
     4c2:	fe 4f       	sbci	r31, 0xFE	; 254
     4c4:	60 81       	ld	r22, Z
     4c6:	71 81       	ldd	r23, Z+1	; 0x01
     4c8:	6f 5f       	subi	r22, 0xFF	; 255
     4ca:	7f 4f       	sbci	r23, 0xFF	; 255
     4cc:	32 96       	adiw	r30, 0x02	; 2
     4ce:	20 81       	ld	r18, Z
     4d0:	31 81       	ldd	r19, Z+1	; 0x01
     4d2:	62 17       	cp	r22, r18
     4d4:	73 07       	cpc	r23, r19
     4d6:	14 f4       	brge	.+4      	; 0x4dc <_ZN11Interpreter4peekEv+0x1e>
     4d8:	0c 94 02 02 	jmp	0x404	; 0x404 <_ZN11Interpreter17get_next_pgm_byteEi>
     4dc:	80 e0       	ldi	r24, 0x00	; 0
     4de:	08 95       	ret

000004e0 <_ZN11Interpreter15skip_whitespaceEv>:
     4e0:	0f 93       	push	r16
     4e2:	1f 93       	push	r17
     4e4:	cf 93       	push	r28
     4e6:	df 93       	push	r29
     4e8:	ec 01       	movw	r28, r24
     4ea:	8c 01       	movw	r16, r24
     4ec:	0e 5b       	subi	r16, 0xBE	; 190
     4ee:	1e 4f       	sbci	r17, 0xFE	; 254
     4f0:	f8 01       	movw	r30, r16
     4f2:	80 81       	ld	r24, Z
     4f4:	88 23       	and	r24, r24
     4f6:	49 f0       	breq	.+18     	; 0x50a <_ZN11Interpreter15skip_whitespaceEv+0x2a>
     4f8:	90 e0       	ldi	r25, 0x00	; 0
     4fa:	0e 94 cd 2c 	call	0x599a	; 0x599a <isspace>
     4fe:	89 2b       	or	r24, r25
     500:	21 f0       	breq	.+8      	; 0x50a <_ZN11Interpreter15skip_whitespaceEv+0x2a>
     502:	ce 01       	movw	r24, r28
     504:	0e 94 43 02 	call	0x486	; 0x486 <_ZN11Interpreter7advanceEv>
     508:	f3 cf       	rjmp	.-26     	; 0x4f0 <_ZN11Interpreter15skip_whitespaceEv+0x10>
     50a:	df 91       	pop	r29
     50c:	cf 91       	pop	r28
     50e:	1f 91       	pop	r17
     510:	0f 91       	pop	r16
     512:	08 95       	ret

00000514 <_ZN11Interpreter12parse_numberEv>:
     514:	6f 92       	push	r6
     516:	7f 92       	push	r7
     518:	8f 92       	push	r8
     51a:	9f 92       	push	r9
     51c:	af 92       	push	r10
     51e:	bf 92       	push	r11
     520:	cf 92       	push	r12
     522:	df 92       	push	r13
     524:	ef 92       	push	r14
     526:	ff 92       	push	r15
     528:	0f 93       	push	r16
     52a:	1f 93       	push	r17
     52c:	cf 93       	push	r28
     52e:	df 93       	push	r29
     530:	cd b7       	in	r28, 0x3d	; 61
     532:	de b7       	in	r29, 0x3e	; 62
     534:	c5 56       	subi	r28, 0x65	; 101
     536:	d1 09       	sbc	r29, r1
     538:	0f b6       	in	r0, 0x3f	; 63
     53a:	f8 94       	cli
     53c:	de bf       	out	0x3e, r29	; 62
     53e:	0f be       	out	0x3f, r0	; 63
     540:	cd bf       	out	0x3d, r28	; 61
     542:	5c 01       	movw	r10, r24
     544:	6b 01       	movw	r12, r22
     546:	7e 01       	movw	r14, r28
     548:	82 e5       	ldi	r24, 0x52	; 82
     54a:	e8 0e       	add	r14, r24
     54c:	f1 1c       	adc	r15, r1
     54e:	47 01       	movw	r8, r14
     550:	3b 01       	movw	r6, r22
     552:	ae eb       	ldi	r26, 0xBE	; 190
     554:	6a 1a       	sub	r6, r26
     556:	ae ef       	ldi	r26, 0xFE	; 254
     558:	7a 0a       	sbc	r7, r26
     55a:	84 01       	movw	r16, r8
     55c:	0e 19       	sub	r16, r14
     55e:	1f 09       	sbc	r17, r15
     560:	f3 01       	movw	r30, r6
     562:	80 81       	ld	r24, Z
     564:	90 ed       	ldi	r25, 0xD0	; 208
     566:	98 0f       	add	r25, r24
     568:	9a 30       	cpi	r25, 0x0A	; 10
     56a:	38 f4       	brcc	.+14     	; 0x57a <_ZN11Interpreter12parse_numberEv+0x66>
     56c:	d4 01       	movw	r26, r8
     56e:	8d 93       	st	X+, r24
     570:	4d 01       	movw	r8, r26
     572:	c6 01       	movw	r24, r12
     574:	0e 94 43 02 	call	0x486	; 0x486 <_ZN11Interpreter7advanceEv>
     578:	f0 cf       	rjmp	.-32     	; 0x55a <_ZN11Interpreter12parse_numberEv+0x46>
     57a:	f7 01       	movw	r30, r14
     57c:	e0 0f       	add	r30, r16
     57e:	f1 1f       	adc	r31, r17
     580:	8e 32       	cpi	r24, 0x2E	; 46
     582:	59 f5       	brne	.+86     	; 0x5da <_ZN11Interpreter12parse_numberEv+0xc6>
     584:	80 83       	st	Z, r24
     586:	c6 01       	movw	r24, r12
     588:	0e 94 43 02 	call	0x486	; 0x486 <_ZN11Interpreter7advanceEv>
     58c:	0f 5f       	subi	r16, 0xFF	; 255
     58e:	1f 4f       	sbci	r17, 0xFF	; 255
     590:	0e 0d       	add	r16, r14
     592:	1f 1d       	adc	r17, r15
     594:	f8 01       	movw	r30, r16
     596:	ee 19       	sub	r30, r14
     598:	ff 09       	sbc	r31, r15
     59a:	d3 01       	movw	r26, r6
     59c:	8c 91       	ld	r24, X
     59e:	90 ed       	ldi	r25, 0xD0	; 208
     5a0:	98 0f       	add	r25, r24
     5a2:	9a 30       	cpi	r25, 0x0A	; 10
     5a4:	38 f4       	brcc	.+14     	; 0x5b4 <_ZN11Interpreter12parse_numberEv+0xa0>
     5a6:	f8 01       	movw	r30, r16
     5a8:	81 93       	st	Z+, r24
     5aa:	8f 01       	movw	r16, r30
     5ac:	c6 01       	movw	r24, r12
     5ae:	0e 94 43 02 	call	0x486	; 0x486 <_ZN11Interpreter7advanceEv>
     5b2:	f0 cf       	rjmp	.-32     	; 0x594 <_ZN11Interpreter12parse_numberEv+0x80>
     5b4:	ee 0d       	add	r30, r14
     5b6:	ff 1d       	adc	r31, r15
     5b8:	10 82       	st	Z, r1
     5ba:	ce 01       	movw	r24, r28
     5bc:	02 96       	adiw	r24, 0x02	; 2
     5be:	0e 94 e3 16 	call	0x2dc6	; 0x2dc6 <_ZN5ValueC1Ev>
     5c2:	8b e2       	ldi	r24, 0x2B	; 43
     5c4:	89 83       	std	Y+1, r24	; 0x01
     5c6:	c7 01       	movw	r24, r14
     5c8:	0e 94 bb 2b 	call	0x5776	; 0x5776 <atof>
     5cc:	ab 01       	movw	r20, r22
     5ce:	bc 01       	movw	r22, r24
     5d0:	ce 01       	movw	r24, r28
     5d2:	8a 96       	adiw	r24, 0x2a	; 42
     5d4:	0e 94 2c 17 	call	0x2e58	; 0x2e58 <_ZN5ValueC1Ed>
     5d8:	0f c0       	rjmp	.+30     	; 0x5f8 <_ZN11Interpreter12parse_numberEv+0xe4>
     5da:	10 82       	st	Z, r1
     5dc:	ce 01       	movw	r24, r28
     5de:	02 96       	adiw	r24, 0x02	; 2
     5e0:	0e 94 e3 16 	call	0x2dc6	; 0x2dc6 <_ZN5ValueC1Ev>
     5e4:	83 e2       	ldi	r24, 0x23	; 35
     5e6:	89 83       	std	Y+1, r24	; 0x01
     5e8:	c7 01       	movw	r24, r14
     5ea:	0e 94 bf 2b 	call	0x577e	; 0x577e <atoi>
     5ee:	bc 01       	movw	r22, r24
     5f0:	ce 01       	movw	r24, r28
     5f2:	8a 96       	adiw	r24, 0x2a	; 42
     5f4:	0e 94 e4 16 	call	0x2dc8	; 0x2dc8 <_ZN5ValueC1Ei>
     5f8:	88 e2       	ldi	r24, 0x28	; 40
     5fa:	fe 01       	movw	r30, r28
     5fc:	ba 96       	adiw	r30, 0x2a	; 42
     5fe:	de 01       	movw	r26, r28
     600:	12 96       	adiw	r26, 0x02	; 2
     602:	01 90       	ld	r0, Z+
     604:	0d 92       	st	X+, r0
     606:	8a 95       	dec	r24
     608:	e1 f7       	brne	.-8      	; 0x602 <_ZN11Interpreter12parse_numberEv+0xee>
     60a:	89 e2       	ldi	r24, 0x29	; 41
     60c:	fe 01       	movw	r30, r28
     60e:	31 96       	adiw	r30, 0x01	; 1
     610:	d5 01       	movw	r26, r10
     612:	01 90       	ld	r0, Z+
     614:	0d 92       	st	X+, r0
     616:	8a 95       	dec	r24
     618:	e1 f7       	brne	.-8      	; 0x612 <_ZN11Interpreter12parse_numberEv+0xfe>
     61a:	c5 01       	movw	r24, r10
     61c:	cb 59       	subi	r28, 0x9B	; 155
     61e:	df 4f       	sbci	r29, 0xFF	; 255
     620:	0f b6       	in	r0, 0x3f	; 63
     622:	f8 94       	cli
     624:	de bf       	out	0x3e, r29	; 62
     626:	0f be       	out	0x3f, r0	; 63
     628:	cd bf       	out	0x3d, r28	; 61
     62a:	df 91       	pop	r29
     62c:	cf 91       	pop	r28
     62e:	1f 91       	pop	r17
     630:	0f 91       	pop	r16
     632:	ff 90       	pop	r15
     634:	ef 90       	pop	r14
     636:	df 90       	pop	r13
     638:	cf 90       	pop	r12
     63a:	bf 90       	pop	r11
     63c:	af 90       	pop	r10
     63e:	9f 90       	pop	r9
     640:	8f 90       	pop	r8
     642:	7f 90       	pop	r7
     644:	6f 90       	pop	r6
     646:	08 95       	ret

00000648 <_ZN11Interpreter9parse_hexEv>:
     648:	8f 92       	push	r8
     64a:	9f 92       	push	r9
     64c:	af 92       	push	r10
     64e:	bf 92       	push	r11
     650:	cf 92       	push	r12
     652:	df 92       	push	r13
     654:	ef 92       	push	r14
     656:	ff 92       	push	r15
     658:	0f 93       	push	r16
     65a:	1f 93       	push	r17
     65c:	cf 93       	push	r28
     65e:	df 93       	push	r29
     660:	cd b7       	in	r28, 0x3d	; 61
     662:	de b7       	in	r29, 0x3e	; 62
     664:	ec 97       	sbiw	r28, 0x3c	; 60
     666:	0f b6       	in	r0, 0x3f	; 63
     668:	f8 94       	cli
     66a:	de bf       	out	0x3e, r29	; 62
     66c:	0f be       	out	0x3f, r0	; 63
     66e:	cd bf       	out	0x3d, r28	; 61
     670:	7c 01       	movw	r14, r24
     672:	4b 01       	movw	r8, r22
     674:	8e 01       	movw	r16, r28
     676:	07 5d       	subi	r16, 0xD7	; 215
     678:	1f 4f       	sbci	r17, 0xFF	; 255
     67a:	68 01       	movw	r12, r16
     67c:	5b 01       	movw	r10, r22
     67e:	8e eb       	ldi	r24, 0xBE	; 190
     680:	a8 1a       	sub	r10, r24
     682:	8e ef       	ldi	r24, 0xFE	; 254
     684:	b8 0a       	sbc	r11, r24
     686:	f6 01       	movw	r30, r12
     688:	e0 1b       	sub	r30, r16
     68a:	f1 0b       	sbc	r31, r17
     68c:	d5 01       	movw	r26, r10
     68e:	8c 91       	ld	r24, X
     690:	88 23       	and	r24, r24
     692:	91 f0       	breq	.+36     	; 0x6b8 <_ZN11Interpreter9parse_hexEv+0x70>
     694:	28 2f       	mov	r18, r24
     696:	30 e0       	ldi	r19, 0x00	; 0
     698:	20 53       	subi	r18, 0x30	; 48
     69a:	31 09       	sbc	r19, r1
     69c:	2a 30       	cpi	r18, 0x0A	; 10
     69e:	31 05       	cpc	r19, r1
     6a0:	20 f0       	brcs	.+8      	; 0x6aa <_ZN11Interpreter9parse_hexEv+0x62>
     6a2:	9f eb       	ldi	r25, 0xBF	; 191
     6a4:	98 0f       	add	r25, r24
     6a6:	96 30       	cpi	r25, 0x06	; 6
     6a8:	38 f4       	brcc	.+14     	; 0x6b8 <_ZN11Interpreter9parse_hexEv+0x70>
     6aa:	f6 01       	movw	r30, r12
     6ac:	81 93       	st	Z+, r24
     6ae:	6f 01       	movw	r12, r30
     6b0:	c4 01       	movw	r24, r8
     6b2:	0e 94 43 02 	call	0x486	; 0x486 <_ZN11Interpreter7advanceEv>
     6b6:	e7 cf       	rjmp	.-50     	; 0x686 <_ZN11Interpreter9parse_hexEv+0x3e>
     6b8:	e0 0f       	add	r30, r16
     6ba:	f1 1f       	adc	r31, r17
     6bc:	10 82       	st	Z, r1
     6be:	67 01       	movw	r12, r14
     6c0:	ff ef       	ldi	r31, 0xFF	; 255
     6c2:	cf 1a       	sub	r12, r31
     6c4:	df 0a       	sbc	r13, r31
     6c6:	c6 01       	movw	r24, r12
     6c8:	0e 94 e3 16 	call	0x2dc6	; 0x2dc6 <_ZN5ValueC1Ev>
     6cc:	83 e2       	ldi	r24, 0x23	; 35
     6ce:	d7 01       	movw	r26, r14
     6d0:	8c 93       	st	X, r24
     6d2:	40 e1       	ldi	r20, 0x10	; 16
     6d4:	50 e0       	ldi	r21, 0x00	; 0
     6d6:	60 e0       	ldi	r22, 0x00	; 0
     6d8:	70 e0       	ldi	r23, 0x00	; 0
     6da:	c8 01       	movw	r24, r16
     6dc:	0e 94 a5 2a 	call	0x554a	; 0x554a <strtol>
     6e0:	ce 01       	movw	r24, r28
     6e2:	01 96       	adiw	r24, 0x01	; 1
     6e4:	0e 94 e4 16 	call	0x2dc8	; 0x2dc8 <_ZN5ValueC1Ei>
     6e8:	88 e2       	ldi	r24, 0x28	; 40
     6ea:	fe 01       	movw	r30, r28
     6ec:	31 96       	adiw	r30, 0x01	; 1
     6ee:	d6 01       	movw	r26, r12
     6f0:	01 90       	ld	r0, Z+
     6f2:	0d 92       	st	X+, r0
     6f4:	8a 95       	dec	r24
     6f6:	e1 f7       	brne	.-8      	; 0x6f0 <_ZN11Interpreter9parse_hexEv+0xa8>
     6f8:	c7 01       	movw	r24, r14
     6fa:	ec 96       	adiw	r28, 0x3c	; 60
     6fc:	0f b6       	in	r0, 0x3f	; 63
     6fe:	f8 94       	cli
     700:	de bf       	out	0x3e, r29	; 62
     702:	0f be       	out	0x3f, r0	; 63
     704:	cd bf       	out	0x3d, r28	; 61
     706:	df 91       	pop	r29
     708:	cf 91       	pop	r28
     70a:	1f 91       	pop	r17
     70c:	0f 91       	pop	r16
     70e:	ff 90       	pop	r15
     710:	ef 90       	pop	r14
     712:	df 90       	pop	r13
     714:	cf 90       	pop	r12
     716:	bf 90       	pop	r11
     718:	af 90       	pop	r10
     71a:	9f 90       	pop	r9
     71c:	8f 90       	pop	r8
     71e:	08 95       	ret

00000720 <_ZN11Interpreter12parse_stringEv>:
     720:	3f 92       	push	r3
     722:	4f 92       	push	r4
     724:	5f 92       	push	r5
     726:	6f 92       	push	r6
     728:	7f 92       	push	r7
     72a:	8f 92       	push	r8
     72c:	9f 92       	push	r9
     72e:	af 92       	push	r10
     730:	bf 92       	push	r11
     732:	cf 92       	push	r12
     734:	df 92       	push	r13
     736:	ef 92       	push	r14
     738:	ff 92       	push	r15
     73a:	0f 93       	push	r16
     73c:	1f 93       	push	r17
     73e:	cf 93       	push	r28
     740:	df 93       	push	r29
     742:	cd b7       	in	r28, 0x3d	; 61
     744:	de b7       	in	r29, 0x3e	; 62
     746:	c1 54       	subi	r28, 0x41	; 65
     748:	d1 09       	sbc	r29, r1
     74a:	0f b6       	in	r0, 0x3f	; 63
     74c:	f8 94       	cli
     74e:	de bf       	out	0x3e, r29	; 62
     750:	0f be       	out	0x3f, r0	; 63
     752:	cd bf       	out	0x3d, r28	; 61
     754:	5c 01       	movw	r10, r24
     756:	8b 01       	movw	r16, r22
     758:	6e 01       	movw	r12, r28
     75a:	89 e2       	ldi	r24, 0x29	; 41
     75c:	c8 0e       	add	r12, r24
     75e:	d1 1c       	adc	r13, r1
     760:	36 01       	movw	r6, r12
     762:	7b 01       	movw	r14, r22
     764:	ee eb       	ldi	r30, 0xBE	; 190
     766:	ee 1a       	sub	r14, r30
     768:	ee ef       	ldi	r30, 0xFE	; 254
     76a:	fe 0a       	sbc	r15, r30
     76c:	8d e0       	ldi	r24, 0x0D	; 13
     76e:	48 2e       	mov	r4, r24
     770:	9a e0       	ldi	r25, 0x0A	; 10
     772:	39 2e       	mov	r3, r25
     774:	29 e0       	ldi	r18, 0x09	; 9
     776:	52 2e       	mov	r5, r18
     778:	43 01       	movw	r8, r6
     77a:	8c 18       	sub	r8, r12
     77c:	9d 08       	sbc	r9, r13
     77e:	f7 01       	movw	r30, r14
     780:	80 81       	ld	r24, Z
     782:	88 23       	and	r24, r24
     784:	81 f1       	breq	.+96     	; 0x7e6 <_ZN11Interpreter12parse_stringEv+0xc6>
     786:	82 32       	cpi	r24, 0x22	; 34
     788:	89 f4       	brne	.+34     	; 0x7ac <_ZN11Interpreter12parse_stringEv+0x8c>
     78a:	c8 01       	movw	r24, r16
     78c:	0e 94 5f 02 	call	0x4be	; 0x4be <_ZN11Interpreter4peekEv>
     790:	82 32       	cpi	r24, 0x22	; 34
     792:	49 f5       	brne	.+82     	; 0x7e6 <_ZN11Interpreter12parse_stringEv+0xc6>
     794:	c8 01       	movw	r24, r16
     796:	0e 94 43 02 	call	0x486	; 0x486 <_ZN11Interpreter7advanceEv>
     79a:	f7 01       	movw	r30, r14
     79c:	80 81       	ld	r24, Z
     79e:	f3 01       	movw	r30, r6
     7a0:	81 93       	st	Z+, r24
     7a2:	3f 01       	movw	r6, r30
     7a4:	c8 01       	movw	r24, r16
     7a6:	0e 94 43 02 	call	0x486	; 0x486 <_ZN11Interpreter7advanceEv>
     7aa:	e6 cf       	rjmp	.-52     	; 0x778 <_ZN11Interpreter12parse_stringEv+0x58>
     7ac:	8c 35       	cpi	r24, 0x5C	; 92
     7ae:	a9 f7       	brne	.-22     	; 0x79a <_ZN11Interpreter12parse_stringEv+0x7a>
     7b0:	c8 01       	movw	r24, r16
     7b2:	0e 94 5f 02 	call	0x4be	; 0x4be <_ZN11Interpreter4peekEv>
     7b6:	82 37       	cpi	r24, 0x72	; 114
     7b8:	51 f0       	breq	.+20     	; 0x7ce <_ZN11Interpreter12parse_stringEv+0xae>
     7ba:	8e 36       	cpi	r24, 0x6E	; 110
     7bc:	71 f0       	breq	.+28     	; 0x7da <_ZN11Interpreter12parse_stringEv+0xba>
     7be:	84 37       	cpi	r24, 0x74	; 116
     7c0:	61 f7       	brne	.-40     	; 0x79a <_ZN11Interpreter12parse_stringEv+0x7a>
     7c2:	c8 01       	movw	r24, r16
     7c4:	0e 94 43 02 	call	0x486	; 0x486 <_ZN11Interpreter7advanceEv>
     7c8:	f7 01       	movw	r30, r14
     7ca:	50 82       	st	Z, r5
     7cc:	e6 cf       	rjmp	.-52     	; 0x79a <_ZN11Interpreter12parse_stringEv+0x7a>
     7ce:	c8 01       	movw	r24, r16
     7d0:	0e 94 43 02 	call	0x486	; 0x486 <_ZN11Interpreter7advanceEv>
     7d4:	f7 01       	movw	r30, r14
     7d6:	40 82       	st	Z, r4
     7d8:	e0 cf       	rjmp	.-64     	; 0x79a <_ZN11Interpreter12parse_stringEv+0x7a>
     7da:	c8 01       	movw	r24, r16
     7dc:	0e 94 43 02 	call	0x486	; 0x486 <_ZN11Interpreter7advanceEv>
     7e0:	f7 01       	movw	r30, r14
     7e2:	30 82       	st	Z, r3
     7e4:	da cf       	rjmp	.-76     	; 0x79a <_ZN11Interpreter12parse_stringEv+0x7a>
     7e6:	c8 01       	movw	r24, r16
     7e8:	0e 94 43 02 	call	0x486	; 0x486 <_ZN11Interpreter7advanceEv>
     7ec:	f6 01       	movw	r30, r12
     7ee:	e8 0d       	add	r30, r8
     7f0:	f9 1d       	adc	r31, r9
     7f2:	10 82       	st	Z, r1
     7f4:	85 01       	movw	r16, r10
     7f6:	0f 5f       	subi	r16, 0xFF	; 255
     7f8:	1f 4f       	sbci	r17, 0xFF	; 255
     7fa:	c8 01       	movw	r24, r16
     7fc:	0e 94 e3 16 	call	0x2dc6	; 0x2dc6 <_ZN5ValueC1Ev>
     800:	84 e2       	ldi	r24, 0x24	; 36
     802:	f5 01       	movw	r30, r10
     804:	80 83       	st	Z, r24
     806:	b6 01       	movw	r22, r12
     808:	ce 01       	movw	r24, r28
     80a:	01 96       	adiw	r24, 0x01	; 1
     80c:	0e 94 1c 17 	call	0x2e38	; 0x2e38 <_ZN5ValueC1EPKc>
     810:	88 e2       	ldi	r24, 0x28	; 40
     812:	fe 01       	movw	r30, r28
     814:	31 96       	adiw	r30, 0x01	; 1
     816:	d8 01       	movw	r26, r16
     818:	01 90       	ld	r0, Z+
     81a:	0d 92       	st	X+, r0
     81c:	8a 95       	dec	r24
     81e:	e1 f7       	brne	.-8      	; 0x818 <_ZN11Interpreter12parse_stringEv+0xf8>
     820:	c5 01       	movw	r24, r10
     822:	cf 5b       	subi	r28, 0xBF	; 191
     824:	df 4f       	sbci	r29, 0xFF	; 255
     826:	0f b6       	in	r0, 0x3f	; 63
     828:	f8 94       	cli
     82a:	de bf       	out	0x3e, r29	; 62
     82c:	0f be       	out	0x3f, r0	; 63
     82e:	cd bf       	out	0x3d, r28	; 61
     830:	df 91       	pop	r29
     832:	cf 91       	pop	r28
     834:	1f 91       	pop	r17
     836:	0f 91       	pop	r16
     838:	ff 90       	pop	r15
     83a:	ef 90       	pop	r14
     83c:	df 90       	pop	r13
     83e:	cf 90       	pop	r12
     840:	bf 90       	pop	r11
     842:	af 90       	pop	r10
     844:	9f 90       	pop	r9
     846:	8f 90       	pop	r8
     848:	7f 90       	pop	r7
     84a:	6f 90       	pop	r6
     84c:	5f 90       	pop	r5
     84e:	4f 90       	pop	r4
     850:	3f 90       	pop	r3
     852:	08 95       	ret

00000854 <_Z10nocase_cmpPcPKc>:
     854:	cf 92       	push	r12
     856:	df 92       	push	r13
     858:	ef 92       	push	r14
     85a:	ff 92       	push	r15
     85c:	0f 93       	push	r16
     85e:	1f 93       	push	r17
     860:	cf 93       	push	r28
     862:	7b 01       	movw	r14, r22
     864:	8c 01       	movw	r16, r24
     866:	f7 01       	movw	r30, r14
     868:	c1 91       	ld	r28, Z+
     86a:	7f 01       	movw	r14, r30
     86c:	cc 23       	and	r28, r28
     86e:	89 f0       	breq	.+34     	; 0x892 <__stack+0x33>
     870:	f8 01       	movw	r30, r16
     872:	81 91       	ld	r24, Z+
     874:	8f 01       	movw	r16, r30
     876:	90 e0       	ldi	r25, 0x00	; 0
     878:	0e 94 d6 2c 	call	0x59ac	; 0x59ac <toupper>
     87c:	6c 01       	movw	r12, r24
     87e:	8c 2f       	mov	r24, r28
     880:	90 e0       	ldi	r25, 0x00	; 0
     882:	0e 94 d6 2c 	call	0x59ac	; 0x59ac <toupper>
     886:	c8 16       	cp	r12, r24
     888:	d9 06       	cpc	r13, r25
     88a:	69 f3       	breq	.-38     	; 0x866 <__stack+0x7>
     88c:	81 e0       	ldi	r24, 0x01	; 1
     88e:	90 e0       	ldi	r25, 0x00	; 0
     890:	02 c0       	rjmp	.+4      	; 0x896 <__stack+0x37>
     892:	80 e0       	ldi	r24, 0x00	; 0
     894:	90 e0       	ldi	r25, 0x00	; 0
     896:	cf 91       	pop	r28
     898:	1f 91       	pop	r17
     89a:	0f 91       	pop	r16
     89c:	ff 90       	pop	r15
     89e:	ef 90       	pop	r14
     8a0:	df 90       	pop	r13
     8a2:	cf 90       	pop	r12
     8a4:	08 95       	ret

000008a6 <_ZN11Interpreter3_idEv>:
     8a6:	3f 92       	push	r3
     8a8:	4f 92       	push	r4
     8aa:	5f 92       	push	r5
     8ac:	6f 92       	push	r6
     8ae:	7f 92       	push	r7
     8b0:	8f 92       	push	r8
     8b2:	9f 92       	push	r9
     8b4:	af 92       	push	r10
     8b6:	bf 92       	push	r11
     8b8:	cf 92       	push	r12
     8ba:	df 92       	push	r13
     8bc:	ef 92       	push	r14
     8be:	ff 92       	push	r15
     8c0:	0f 93       	push	r16
     8c2:	1f 93       	push	r17
     8c4:	cf 93       	push	r28
     8c6:	df 93       	push	r29
     8c8:	cd b7       	in	r28, 0x3d	; 61
     8ca:	de b7       	in	r29, 0x3e	; 62
     8cc:	c1 54       	subi	r28, 0x41	; 65
     8ce:	d1 09       	sbc	r29, r1
     8d0:	0f b6       	in	r0, 0x3f	; 63
     8d2:	f8 94       	cli
     8d4:	de bf       	out	0x3e, r29	; 62
     8d6:	0f be       	out	0x3f, r0	; 63
     8d8:	cd bf       	out	0x3d, r28	; 61
     8da:	8c 01       	movw	r16, r24
     8dc:	5b 01       	movw	r10, r22
     8de:	01 96       	adiw	r24, 0x01	; 1
     8e0:	0e 94 e3 16 	call	0x2dc6	; 0x2dc6 <_ZN5ValueC1Ev>
     8e4:	7e 01       	movw	r14, r28
     8e6:	89 e2       	ldi	r24, 0x29	; 41
     8e8:	e8 0e       	add	r14, r24
     8ea:	f1 1c       	adc	r15, r1
     8ec:	37 01       	movw	r6, r14
     8ee:	25 01       	movw	r4, r10
     8f0:	ee eb       	ldi	r30, 0xBE	; 190
     8f2:	4e 1a       	sub	r4, r30
     8f4:	ee ef       	ldi	r30, 0xFE	; 254
     8f6:	5e 0a       	sbc	r5, r30
     8f8:	63 01       	movw	r12, r6
     8fa:	ce 18       	sub	r12, r14
     8fc:	df 08       	sbc	r13, r15
     8fe:	f2 01       	movw	r30, r4
     900:	30 80       	ld	r3, Z
     902:	33 20       	and	r3, r3
     904:	49 f1       	breq	.+82     	; 0x958 <_ZN11Interpreter3_idEv+0xb2>
     906:	83 2c       	mov	r8, r3
     908:	91 2c       	mov	r9, r1
     90a:	c4 01       	movw	r24, r8
     90c:	0e 94 b5 2c 	call	0x596a	; 0x596a <isalnum>
     910:	89 2b       	or	r24, r25
     912:	99 f0       	breq	.+38     	; 0x93a <_ZN11Interpreter3_idEv+0x94>
     914:	c4 01       	movw	r24, r8
     916:	0e 94 c5 2c 	call	0x598a	; 0x598a <isalpha>
     91a:	89 2b       	or	r24, r25
     91c:	29 f0       	breq	.+10     	; 0x928 <_ZN11Interpreter3_idEv+0x82>
     91e:	c4 01       	movw	r24, r8
     920:	0e 94 d6 2c 	call	0x59ac	; 0x59ac <toupper>
     924:	f2 01       	movw	r30, r4
     926:	80 83       	st	Z, r24
     928:	f2 01       	movw	r30, r4
     92a:	80 81       	ld	r24, Z
     92c:	f3 01       	movw	r30, r6
     92e:	81 93       	st	Z+, r24
     930:	3f 01       	movw	r6, r30
     932:	c5 01       	movw	r24, r10
     934:	0e 94 43 02 	call	0x486	; 0x486 <_ZN11Interpreter7advanceEv>
     938:	df cf       	rjmp	.-66     	; 0x8f8 <_ZN11Interpreter3_idEv+0x52>
     93a:	fa e3       	ldi	r31, 0x3A	; 58
     93c:	3f 12       	cpse	r3, r31
     93e:	0c c0       	rjmp	.+24     	; 0x958 <_ZN11Interpreter3_idEv+0xb2>
     940:	c5 01       	movw	r24, r10
     942:	0e 94 43 02 	call	0x486	; 0x486 <_ZN11Interpreter7advanceEv>
     946:	f7 01       	movw	r30, r14
     948:	ec 0d       	add	r30, r12
     94a:	fd 1d       	adc	r31, r13
     94c:	10 82       	st	Z, r1
     94e:	83 e3       	ldi	r24, 0x33	; 51
     950:	f8 01       	movw	r30, r16
     952:	80 83       	st	Z, r24
     954:	b7 01       	movw	r22, r14
     956:	e5 c2       	rjmp	.+1482   	; 0xf22 <_ZN11Interpreter3_idEv+0x67c>
     958:	f7 01       	movw	r30, r14
     95a:	ec 0d       	add	r30, r12
     95c:	fd 1d       	adc	r31, r13
     95e:	10 82       	st	Z, r1
     960:	6d e6       	ldi	r22, 0x6D	; 109
     962:	70 e0       	ldi	r23, 0x00	; 0
     964:	c7 01       	movw	r24, r14
     966:	0e 94 2a 04 	call	0x854	; 0x854 <_Z10nocase_cmpPcPKc>
     96a:	89 2b       	or	r24, r25
     96c:	31 f4       	brne	.+12     	; 0x97a <_ZN11Interpreter3_idEv+0xd4>
     96e:	8d e2       	ldi	r24, 0x2D	; 45
     970:	f8 01       	movw	r30, r16
     972:	80 83       	st	Z, r24
     974:	61 e0       	ldi	r22, 0x01	; 1
     976:	70 e0       	ldi	r23, 0x00	; 0
     978:	94 c1       	rjmp	.+808    	; 0xca2 <_ZN11Interpreter3_idEv+0x3fc>
     97a:	63 e7       	ldi	r22, 0x73	; 115
     97c:	70 e0       	ldi	r23, 0x00	; 0
     97e:	c7 01       	movw	r24, r14
     980:	0e 94 2a 04 	call	0x854	; 0x854 <_Z10nocase_cmpPcPKc>
     984:	89 2b       	or	r24, r25
     986:	31 f4       	brne	.+12     	; 0x994 <_ZN11Interpreter3_idEv+0xee>
     988:	8d e2       	ldi	r24, 0x2D	; 45
     98a:	f8 01       	movw	r30, r16
     98c:	80 83       	st	Z, r24
     98e:	62 e0       	ldi	r22, 0x02	; 2
     990:	70 e0       	ldi	r23, 0x00	; 0
     992:	87 c1       	rjmp	.+782    	; 0xca2 <_ZN11Interpreter3_idEv+0x3fc>
     994:	67 e7       	ldi	r22, 0x77	; 119
     996:	70 e0       	ldi	r23, 0x00	; 0
     998:	c7 01       	movw	r24, r14
     99a:	0e 94 2a 04 	call	0x854	; 0x854 <_Z10nocase_cmpPcPKc>
     99e:	89 2b       	or	r24, r25
     9a0:	31 f4       	brne	.+12     	; 0x9ae <_ZN11Interpreter3_idEv+0x108>
     9a2:	8d e2       	ldi	r24, 0x2D	; 45
     9a4:	f8 01       	movw	r30, r16
     9a6:	80 83       	st	Z, r24
     9a8:	63 e0       	ldi	r22, 0x03	; 3
     9aa:	70 e0       	ldi	r23, 0x00	; 0
     9ac:	7a c1       	rjmp	.+756    	; 0xca2 <_ZN11Interpreter3_idEv+0x3fc>
     9ae:	6e e7       	ldi	r22, 0x7E	; 126
     9b0:	70 e0       	ldi	r23, 0x00	; 0
     9b2:	c7 01       	movw	r24, r14
     9b4:	0e 94 2a 04 	call	0x854	; 0x854 <_Z10nocase_cmpPcPKc>
     9b8:	89 2b       	or	r24, r25
     9ba:	31 f4       	brne	.+12     	; 0x9c8 <_ZN11Interpreter3_idEv+0x122>
     9bc:	8d e2       	ldi	r24, 0x2D	; 45
     9be:	f8 01       	movw	r30, r16
     9c0:	80 83       	st	Z, r24
     9c2:	64 e0       	ldi	r22, 0x04	; 4
     9c4:	70 e0       	ldi	r23, 0x00	; 0
     9c6:	6d c1       	rjmp	.+730    	; 0xca2 <_ZN11Interpreter3_idEv+0x3fc>
     9c8:	66 e8       	ldi	r22, 0x86	; 134
     9ca:	70 e0       	ldi	r23, 0x00	; 0
     9cc:	c7 01       	movw	r24, r14
     9ce:	0e 94 2a 04 	call	0x854	; 0x854 <_Z10nocase_cmpPcPKc>
     9d2:	89 2b       	or	r24, r25
     9d4:	31 f4       	brne	.+12     	; 0x9e2 <_ZN11Interpreter3_idEv+0x13c>
     9d6:	8d e2       	ldi	r24, 0x2D	; 45
     9d8:	f8 01       	movw	r30, r16
     9da:	80 83       	st	Z, r24
     9dc:	65 e0       	ldi	r22, 0x05	; 5
     9de:	70 e0       	ldi	r23, 0x00	; 0
     9e0:	60 c1       	rjmp	.+704    	; 0xca2 <_ZN11Interpreter3_idEv+0x3fc>
     9e2:	6d e8       	ldi	r22, 0x8D	; 141
     9e4:	70 e0       	ldi	r23, 0x00	; 0
     9e6:	c7 01       	movw	r24, r14
     9e8:	0e 94 2a 04 	call	0x854	; 0x854 <_Z10nocase_cmpPcPKc>
     9ec:	89 2b       	or	r24, r25
     9ee:	31 f4       	brne	.+12     	; 0x9fc <_ZN11Interpreter3_idEv+0x156>
     9f0:	8d e2       	ldi	r24, 0x2D	; 45
     9f2:	f8 01       	movw	r30, r16
     9f4:	80 83       	st	Z, r24
     9f6:	66 e0       	ldi	r22, 0x06	; 6
     9f8:	70 e0       	ldi	r23, 0x00	; 0
     9fa:	53 c1       	rjmp	.+678    	; 0xca2 <_ZN11Interpreter3_idEv+0x3fc>
     9fc:	63 e9       	ldi	r22, 0x93	; 147
     9fe:	70 e0       	ldi	r23, 0x00	; 0
     a00:	c7 01       	movw	r24, r14
     a02:	0e 94 2a 04 	call	0x854	; 0x854 <_Z10nocase_cmpPcPKc>
     a06:	89 2b       	or	r24, r25
     a08:	31 f4       	brne	.+12     	; 0xa16 <_ZN11Interpreter3_idEv+0x170>
     a0a:	8d e2       	ldi	r24, 0x2D	; 45
     a0c:	f8 01       	movw	r30, r16
     a0e:	80 83       	st	Z, r24
     a10:	67 e0       	ldi	r22, 0x07	; 7
     a12:	70 e0       	ldi	r23, 0x00	; 0
     a14:	46 c1       	rjmp	.+652    	; 0xca2 <_ZN11Interpreter3_idEv+0x3fc>
     a16:	68 e9       	ldi	r22, 0x98	; 152
     a18:	70 e0       	ldi	r23, 0x00	; 0
     a1a:	c7 01       	movw	r24, r14
     a1c:	0e 94 2a 04 	call	0x854	; 0x854 <_Z10nocase_cmpPcPKc>
     a20:	89 2b       	or	r24, r25
     a22:	31 f4       	brne	.+12     	; 0xa30 <_ZN11Interpreter3_idEv+0x18a>
     a24:	8d e2       	ldi	r24, 0x2D	; 45
     a26:	f8 01       	movw	r30, r16
     a28:	80 83       	st	Z, r24
     a2a:	6b e0       	ldi	r22, 0x0B	; 11
     a2c:	70 e0       	ldi	r23, 0x00	; 0
     a2e:	39 c1       	rjmp	.+626    	; 0xca2 <_ZN11Interpreter3_idEv+0x3fc>
     a30:	6e e9       	ldi	r22, 0x9E	; 158
     a32:	70 e0       	ldi	r23, 0x00	; 0
     a34:	c7 01       	movw	r24, r14
     a36:	0e 94 2a 04 	call	0x854	; 0x854 <_Z10nocase_cmpPcPKc>
     a3a:	89 2b       	or	r24, r25
     a3c:	31 f4       	brne	.+12     	; 0xa4a <_ZN11Interpreter3_idEv+0x1a4>
     a3e:	8d e2       	ldi	r24, 0x2D	; 45
     a40:	f8 01       	movw	r30, r16
     a42:	80 83       	st	Z, r24
     a44:	6f e0       	ldi	r22, 0x0F	; 15
     a46:	70 e0       	ldi	r23, 0x00	; 0
     a48:	2c c1       	rjmp	.+600    	; 0xca2 <_ZN11Interpreter3_idEv+0x3fc>
     a4a:	63 ea       	ldi	r22, 0xA3	; 163
     a4c:	70 e0       	ldi	r23, 0x00	; 0
     a4e:	c7 01       	movw	r24, r14
     a50:	0e 94 2a 04 	call	0x854	; 0x854 <_Z10nocase_cmpPcPKc>
     a54:	89 2b       	or	r24, r25
     a56:	31 f4       	brne	.+12     	; 0xa64 <_ZN11Interpreter3_idEv+0x1be>
     a58:	8d e2       	ldi	r24, 0x2D	; 45
     a5a:	f8 01       	movw	r30, r16
     a5c:	80 83       	st	Z, r24
     a5e:	68 e0       	ldi	r22, 0x08	; 8
     a60:	70 e0       	ldi	r23, 0x00	; 0
     a62:	1f c1       	rjmp	.+574    	; 0xca2 <_ZN11Interpreter3_idEv+0x3fc>
     a64:	68 ea       	ldi	r22, 0xA8	; 168
     a66:	70 e0       	ldi	r23, 0x00	; 0
     a68:	c7 01       	movw	r24, r14
     a6a:	0e 94 2a 04 	call	0x854	; 0x854 <_Z10nocase_cmpPcPKc>
     a6e:	89 2b       	or	r24, r25
     a70:	31 f4       	brne	.+12     	; 0xa7e <_ZN11Interpreter3_idEv+0x1d8>
     a72:	8d e2       	ldi	r24, 0x2D	; 45
     a74:	f8 01       	movw	r30, r16
     a76:	80 83       	st	Z, r24
     a78:	69 e0       	ldi	r22, 0x09	; 9
     a7a:	70 e0       	ldi	r23, 0x00	; 0
     a7c:	12 c1       	rjmp	.+548    	; 0xca2 <_ZN11Interpreter3_idEv+0x3fc>
     a7e:	6d ea       	ldi	r22, 0xAD	; 173
     a80:	70 e0       	ldi	r23, 0x00	; 0
     a82:	c7 01       	movw	r24, r14
     a84:	0e 94 2a 04 	call	0x854	; 0x854 <_Z10nocase_cmpPcPKc>
     a88:	89 2b       	or	r24, r25
     a8a:	31 f4       	brne	.+12     	; 0xa98 <_ZN11Interpreter3_idEv+0x1f2>
     a8c:	8d e2       	ldi	r24, 0x2D	; 45
     a8e:	f8 01       	movw	r30, r16
     a90:	80 83       	st	Z, r24
     a92:	6a e0       	ldi	r22, 0x0A	; 10
     a94:	70 e0       	ldi	r23, 0x00	; 0
     a96:	05 c1       	rjmp	.+522    	; 0xca2 <_ZN11Interpreter3_idEv+0x3fc>
     a98:	62 eb       	ldi	r22, 0xB2	; 178
     a9a:	70 e0       	ldi	r23, 0x00	; 0
     a9c:	c7 01       	movw	r24, r14
     a9e:	0e 94 2a 04 	call	0x854	; 0x854 <_Z10nocase_cmpPcPKc>
     aa2:	89 2b       	or	r24, r25
     aa4:	31 f4       	brne	.+12     	; 0xab2 <_ZN11Interpreter3_idEv+0x20c>
     aa6:	8d e2       	ldi	r24, 0x2D	; 45
     aa8:	f8 01       	movw	r30, r16
     aaa:	80 83       	st	Z, r24
     aac:	6c e0       	ldi	r22, 0x0C	; 12
     aae:	70 e0       	ldi	r23, 0x00	; 0
     ab0:	f8 c0       	rjmp	.+496    	; 0xca2 <_ZN11Interpreter3_idEv+0x3fc>
     ab2:	68 eb       	ldi	r22, 0xB8	; 184
     ab4:	70 e0       	ldi	r23, 0x00	; 0
     ab6:	c7 01       	movw	r24, r14
     ab8:	0e 94 2a 04 	call	0x854	; 0x854 <_Z10nocase_cmpPcPKc>
     abc:	89 2b       	or	r24, r25
     abe:	31 f4       	brne	.+12     	; 0xacc <_ZN11Interpreter3_idEv+0x226>
     ac0:	8d e2       	ldi	r24, 0x2D	; 45
     ac2:	f8 01       	movw	r30, r16
     ac4:	80 83       	st	Z, r24
     ac6:	6d e0       	ldi	r22, 0x0D	; 13
     ac8:	70 e0       	ldi	r23, 0x00	; 0
     aca:	eb c0       	rjmp	.+470    	; 0xca2 <_ZN11Interpreter3_idEv+0x3fc>
     acc:	6e eb       	ldi	r22, 0xBE	; 190
     ace:	70 e0       	ldi	r23, 0x00	; 0
     ad0:	c7 01       	movw	r24, r14
     ad2:	0e 94 2a 04 	call	0x854	; 0x854 <_Z10nocase_cmpPcPKc>
     ad6:	89 2b       	or	r24, r25
     ad8:	31 f4       	brne	.+12     	; 0xae6 <_ZN11Interpreter3_idEv+0x240>
     ada:	8d e2       	ldi	r24, 0x2D	; 45
     adc:	f8 01       	movw	r30, r16
     ade:	80 83       	st	Z, r24
     ae0:	6e e0       	ldi	r22, 0x0E	; 14
     ae2:	70 e0       	ldi	r23, 0x00	; 0
     ae4:	de c0       	rjmp	.+444    	; 0xca2 <_ZN11Interpreter3_idEv+0x3fc>
     ae6:	64 ec       	ldi	r22, 0xC4	; 196
     ae8:	70 e0       	ldi	r23, 0x00	; 0
     aea:	c7 01       	movw	r24, r14
     aec:	0e 94 2a 04 	call	0x854	; 0x854 <_Z10nocase_cmpPcPKc>
     af0:	89 2b       	or	r24, r25
     af2:	31 f4       	brne	.+12     	; 0xb00 <_ZN11Interpreter3_idEv+0x25a>
     af4:	8d e2       	ldi	r24, 0x2D	; 45
     af6:	f8 01       	movw	r30, r16
     af8:	80 83       	st	Z, r24
     afa:	60 e1       	ldi	r22, 0x10	; 16
     afc:	70 e0       	ldi	r23, 0x00	; 0
     afe:	d1 c0       	rjmp	.+418    	; 0xca2 <_ZN11Interpreter3_idEv+0x3fc>
     b00:	69 ec       	ldi	r22, 0xC9	; 201
     b02:	70 e0       	ldi	r23, 0x00	; 0
     b04:	c7 01       	movw	r24, r14
     b06:	0e 94 2a 04 	call	0x854	; 0x854 <_Z10nocase_cmpPcPKc>
     b0a:	89 2b       	or	r24, r25
     b0c:	31 f4       	brne	.+12     	; 0xb1a <_ZN11Interpreter3_idEv+0x274>
     b0e:	8d e2       	ldi	r24, 0x2D	; 45
     b10:	f8 01       	movw	r30, r16
     b12:	80 83       	st	Z, r24
     b14:	61 e1       	ldi	r22, 0x11	; 17
     b16:	70 e0       	ldi	r23, 0x00	; 0
     b18:	c4 c0       	rjmp	.+392    	; 0xca2 <_ZN11Interpreter3_idEv+0x3fc>
     b1a:	6e ec       	ldi	r22, 0xCE	; 206
     b1c:	70 e0       	ldi	r23, 0x00	; 0
     b1e:	c7 01       	movw	r24, r14
     b20:	0e 94 2a 04 	call	0x854	; 0x854 <_Z10nocase_cmpPcPKc>
     b24:	89 2b       	or	r24, r25
     b26:	31 f4       	brne	.+12     	; 0xb34 <_ZN11Interpreter3_idEv+0x28e>
     b28:	8d e2       	ldi	r24, 0x2D	; 45
     b2a:	f8 01       	movw	r30, r16
     b2c:	80 83       	st	Z, r24
     b2e:	62 e1       	ldi	r22, 0x12	; 18
     b30:	70 e0       	ldi	r23, 0x00	; 0
     b32:	b7 c0       	rjmp	.+366    	; 0xca2 <_ZN11Interpreter3_idEv+0x3fc>
     b34:	63 ed       	ldi	r22, 0xD3	; 211
     b36:	70 e0       	ldi	r23, 0x00	; 0
     b38:	c7 01       	movw	r24, r14
     b3a:	0e 94 2a 04 	call	0x854	; 0x854 <_Z10nocase_cmpPcPKc>
     b3e:	89 2b       	or	r24, r25
     b40:	31 f4       	brne	.+12     	; 0xb4e <_ZN11Interpreter3_idEv+0x2a8>
     b42:	8d e2       	ldi	r24, 0x2D	; 45
     b44:	f8 01       	movw	r30, r16
     b46:	80 83       	st	Z, r24
     b48:	6a e1       	ldi	r22, 0x1A	; 26
     b4a:	70 e0       	ldi	r23, 0x00	; 0
     b4c:	aa c0       	rjmp	.+340    	; 0xca2 <_ZN11Interpreter3_idEv+0x3fc>
     b4e:	6c ed       	ldi	r22, 0xDC	; 220
     b50:	70 e0       	ldi	r23, 0x00	; 0
     b52:	c7 01       	movw	r24, r14
     b54:	0e 94 2a 04 	call	0x854	; 0x854 <_Z10nocase_cmpPcPKc>
     b58:	89 2b       	or	r24, r25
     b5a:	31 f4       	brne	.+12     	; 0xb68 <_ZN11Interpreter3_idEv+0x2c2>
     b5c:	8d e2       	ldi	r24, 0x2D	; 45
     b5e:	f8 01       	movw	r30, r16
     b60:	80 83       	st	Z, r24
     b62:	6b e1       	ldi	r22, 0x1B	; 27
     b64:	70 e0       	ldi	r23, 0x00	; 0
     b66:	9d c0       	rjmp	.+314    	; 0xca2 <_ZN11Interpreter3_idEv+0x3fc>
     b68:	62 ee       	ldi	r22, 0xE2	; 226
     b6a:	70 e0       	ldi	r23, 0x00	; 0
     b6c:	c7 01       	movw	r24, r14
     b6e:	0e 94 2a 04 	call	0x854	; 0x854 <_Z10nocase_cmpPcPKc>
     b72:	89 2b       	or	r24, r25
     b74:	31 f4       	brne	.+12     	; 0xb82 <_ZN11Interpreter3_idEv+0x2dc>
     b76:	8d e2       	ldi	r24, 0x2D	; 45
     b78:	f8 01       	movw	r30, r16
     b7a:	80 83       	st	Z, r24
     b7c:	6c e1       	ldi	r22, 0x1C	; 28
     b7e:	70 e0       	ldi	r23, 0x00	; 0
     b80:	90 c0       	rjmp	.+288    	; 0xca2 <_ZN11Interpreter3_idEv+0x3fc>
     b82:	6a ee       	ldi	r22, 0xEA	; 234
     b84:	70 e0       	ldi	r23, 0x00	; 0
     b86:	c7 01       	movw	r24, r14
     b88:	0e 94 2a 04 	call	0x854	; 0x854 <_Z10nocase_cmpPcPKc>
     b8c:	89 2b       	or	r24, r25
     b8e:	31 f4       	brne	.+12     	; 0xb9c <_ZN11Interpreter3_idEv+0x2f6>
     b90:	8d e2       	ldi	r24, 0x2D	; 45
     b92:	f8 01       	movw	r30, r16
     b94:	80 83       	st	Z, r24
     b96:	6d e1       	ldi	r22, 0x1D	; 29
     b98:	70 e0       	ldi	r23, 0x00	; 0
     b9a:	83 c0       	rjmp	.+262    	; 0xca2 <_ZN11Interpreter3_idEv+0x3fc>
     b9c:	62 ef       	ldi	r22, 0xF2	; 242
     b9e:	70 e0       	ldi	r23, 0x00	; 0
     ba0:	c7 01       	movw	r24, r14
     ba2:	0e 94 2a 04 	call	0x854	; 0x854 <_Z10nocase_cmpPcPKc>
     ba6:	89 2b       	or	r24, r25
     ba8:	31 f4       	brne	.+12     	; 0xbb6 <_ZN11Interpreter3_idEv+0x310>
     baa:	8d e2       	ldi	r24, 0x2D	; 45
     bac:	f8 01       	movw	r30, r16
     bae:	80 83       	st	Z, r24
     bb0:	63 e1       	ldi	r22, 0x13	; 19
     bb2:	70 e0       	ldi	r23, 0x00	; 0
     bb4:	76 c0       	rjmp	.+236    	; 0xca2 <_ZN11Interpreter3_idEv+0x3fc>
     bb6:	6a ef       	ldi	r22, 0xFA	; 250
     bb8:	70 e0       	ldi	r23, 0x00	; 0
     bba:	c7 01       	movw	r24, r14
     bbc:	0e 94 2a 04 	call	0x854	; 0x854 <_Z10nocase_cmpPcPKc>
     bc0:	89 2b       	or	r24, r25
     bc2:	31 f4       	brne	.+12     	; 0xbd0 <_ZN11Interpreter3_idEv+0x32a>
     bc4:	8d e2       	ldi	r24, 0x2D	; 45
     bc6:	f8 01       	movw	r30, r16
     bc8:	80 83       	st	Z, r24
     bca:	64 e1       	ldi	r22, 0x14	; 20
     bcc:	70 e0       	ldi	r23, 0x00	; 0
     bce:	69 c0       	rjmp	.+210    	; 0xca2 <_ZN11Interpreter3_idEv+0x3fc>
     bd0:	60 e0       	ldi	r22, 0x00	; 0
     bd2:	71 e0       	ldi	r23, 0x01	; 1
     bd4:	c7 01       	movw	r24, r14
     bd6:	0e 94 2a 04 	call	0x854	; 0x854 <_Z10nocase_cmpPcPKc>
     bda:	89 2b       	or	r24, r25
     bdc:	31 f4       	brne	.+12     	; 0xbea <_ZN11Interpreter3_idEv+0x344>
     bde:	8d e2       	ldi	r24, 0x2D	; 45
     be0:	f8 01       	movw	r30, r16
     be2:	80 83       	st	Z, r24
     be4:	65 e1       	ldi	r22, 0x15	; 21
     be6:	70 e0       	ldi	r23, 0x00	; 0
     be8:	5c c0       	rjmp	.+184    	; 0xca2 <_ZN11Interpreter3_idEv+0x3fc>
     bea:	69 e0       	ldi	r22, 0x09	; 9
     bec:	71 e0       	ldi	r23, 0x01	; 1
     bee:	c7 01       	movw	r24, r14
     bf0:	0e 94 2a 04 	call	0x854	; 0x854 <_Z10nocase_cmpPcPKc>
     bf4:	89 2b       	or	r24, r25
     bf6:	31 f4       	brne	.+12     	; 0xc04 <_ZN11Interpreter3_idEv+0x35e>
     bf8:	8d e2       	ldi	r24, 0x2D	; 45
     bfa:	f8 01       	movw	r30, r16
     bfc:	80 83       	st	Z, r24
     bfe:	6f e1       	ldi	r22, 0x1F	; 31
     c00:	70 e0       	ldi	r23, 0x00	; 0
     c02:	4f c0       	rjmp	.+158    	; 0xca2 <_ZN11Interpreter3_idEv+0x3fc>
     c04:	62 e1       	ldi	r22, 0x12	; 18
     c06:	71 e0       	ldi	r23, 0x01	; 1
     c08:	c7 01       	movw	r24, r14
     c0a:	0e 94 2a 04 	call	0x854	; 0x854 <_Z10nocase_cmpPcPKc>
     c0e:	89 2b       	or	r24, r25
     c10:	31 f4       	brne	.+12     	; 0xc1e <_ZN11Interpreter3_idEv+0x378>
     c12:	8d e2       	ldi	r24, 0x2D	; 45
     c14:	f8 01       	movw	r30, r16
     c16:	80 83       	st	Z, r24
     c18:	61 e2       	ldi	r22, 0x21	; 33
     c1a:	70 e0       	ldi	r23, 0x00	; 0
     c1c:	42 c0       	rjmp	.+132    	; 0xca2 <_ZN11Interpreter3_idEv+0x3fc>
     c1e:	6a e1       	ldi	r22, 0x1A	; 26
     c20:	71 e0       	ldi	r23, 0x01	; 1
     c22:	c7 01       	movw	r24, r14
     c24:	0e 94 2a 04 	call	0x854	; 0x854 <_Z10nocase_cmpPcPKc>
     c28:	89 2b       	or	r24, r25
     c2a:	31 f4       	brne	.+12     	; 0xc38 <_ZN11Interpreter3_idEv+0x392>
     c2c:	8d e2       	ldi	r24, 0x2D	; 45
     c2e:	f8 01       	movw	r30, r16
     c30:	80 83       	st	Z, r24
     c32:	60 e2       	ldi	r22, 0x20	; 32
     c34:	70 e0       	ldi	r23, 0x00	; 0
     c36:	35 c0       	rjmp	.+106    	; 0xca2 <_ZN11Interpreter3_idEv+0x3fc>
     c38:	63 e2       	ldi	r22, 0x23	; 35
     c3a:	71 e0       	ldi	r23, 0x01	; 1
     c3c:	c7 01       	movw	r24, r14
     c3e:	0e 94 2a 04 	call	0x854	; 0x854 <_Z10nocase_cmpPcPKc>
     c42:	89 2b       	or	r24, r25
     c44:	31 f4       	brne	.+12     	; 0xc52 <_ZN11Interpreter3_idEv+0x3ac>
     c46:	8d e2       	ldi	r24, 0x2D	; 45
     c48:	f8 01       	movw	r30, r16
     c4a:	80 83       	st	Z, r24
     c4c:	66 e1       	ldi	r22, 0x16	; 22
     c4e:	70 e0       	ldi	r23, 0x00	; 0
     c50:	28 c0       	rjmp	.+80     	; 0xca2 <_ZN11Interpreter3_idEv+0x3fc>
     c52:	6e e2       	ldi	r22, 0x2E	; 46
     c54:	71 e0       	ldi	r23, 0x01	; 1
     c56:	c7 01       	movw	r24, r14
     c58:	0e 94 2a 04 	call	0x854	; 0x854 <_Z10nocase_cmpPcPKc>
     c5c:	89 2b       	or	r24, r25
     c5e:	31 f4       	brne	.+12     	; 0xc6c <_ZN11Interpreter3_idEv+0x3c6>
     c60:	8d e2       	ldi	r24, 0x2D	; 45
     c62:	f8 01       	movw	r30, r16
     c64:	80 83       	st	Z, r24
     c66:	67 e1       	ldi	r22, 0x17	; 23
     c68:	70 e0       	ldi	r23, 0x00	; 0
     c6a:	1b c0       	rjmp	.+54     	; 0xca2 <_ZN11Interpreter3_idEv+0x3fc>
     c6c:	67 e3       	ldi	r22, 0x37	; 55
     c6e:	71 e0       	ldi	r23, 0x01	; 1
     c70:	ce 01       	movw	r24, r28
     c72:	89 96       	adiw	r24, 0x29	; 41
     c74:	0e 94 2a 04 	call	0x854	; 0x854 <_Z10nocase_cmpPcPKc>
     c78:	89 2b       	or	r24, r25
     c7a:	31 f4       	brne	.+12     	; 0xc88 <_ZN11Interpreter3_idEv+0x3e2>
     c7c:	8d e2       	ldi	r24, 0x2D	; 45
     c7e:	f8 01       	movw	r30, r16
     c80:	80 83       	st	Z, r24
     c82:	69 e1       	ldi	r22, 0x19	; 25
     c84:	70 e0       	ldi	r23, 0x00	; 0
     c86:	0d c0       	rjmp	.+26     	; 0xca2 <_ZN11Interpreter3_idEv+0x3fc>
     c88:	6e e3       	ldi	r22, 0x3E	; 62
     c8a:	71 e0       	ldi	r23, 0x01	; 1
     c8c:	ce 01       	movw	r24, r28
     c8e:	89 96       	adiw	r24, 0x29	; 41
     c90:	0e 94 2a 04 	call	0x854	; 0x854 <_Z10nocase_cmpPcPKc>
     c94:	89 2b       	or	r24, r25
     c96:	51 f4       	brne	.+20     	; 0xcac <_ZN11Interpreter3_idEv+0x406>
     c98:	8d e2       	ldi	r24, 0x2D	; 45
     c9a:	f8 01       	movw	r30, r16
     c9c:	80 83       	st	Z, r24
     c9e:	68 e1       	ldi	r22, 0x18	; 24
     ca0:	70 e0       	ldi	r23, 0x00	; 0
     ca2:	ce 01       	movw	r24, r28
     ca4:	01 96       	adiw	r24, 0x01	; 1
     ca6:	0e 94 e4 16 	call	0x2dc8	; 0x2dc8 <_ZN5ValueC1Ei>
     caa:	3f c1       	rjmp	.+638    	; 0xf2a <_ZN11Interpreter3_idEv+0x684>
     cac:	65 e4       	ldi	r22, 0x45	; 69
     cae:	71 e0       	ldi	r23, 0x01	; 1
     cb0:	ce 01       	movw	r24, r28
     cb2:	89 96       	adiw	r24, 0x29	; 41
     cb4:	0e 94 2a 04 	call	0x854	; 0x854 <_Z10nocase_cmpPcPKc>
     cb8:	89 2b       	or	r24, r25
     cba:	29 f4       	brne	.+10     	; 0xcc6 <_ZN11Interpreter3_idEv+0x420>
     cbc:	85 e2       	ldi	r24, 0x25	; 37
     cbe:	f8 01       	movw	r30, r16
     cc0:	80 83       	st	Z, r24
     cc2:	61 e0       	ldi	r22, 0x01	; 1
     cc4:	0c c0       	rjmp	.+24     	; 0xcde <_ZN11Interpreter3_idEv+0x438>
     cc6:	6a e4       	ldi	r22, 0x4A	; 74
     cc8:	71 e0       	ldi	r23, 0x01	; 1
     cca:	ce 01       	movw	r24, r28
     ccc:	89 96       	adiw	r24, 0x29	; 41
     cce:	0e 94 2a 04 	call	0x854	; 0x854 <_Z10nocase_cmpPcPKc>
     cd2:	89 2b       	or	r24, r25
     cd4:	49 f4       	brne	.+18     	; 0xce8 <_ZN11Interpreter3_idEv+0x442>
     cd6:	85 e2       	ldi	r24, 0x25	; 37
     cd8:	f8 01       	movw	r30, r16
     cda:	80 83       	st	Z, r24
     cdc:	60 e0       	ldi	r22, 0x00	; 0
     cde:	ce 01       	movw	r24, r28
     ce0:	01 96       	adiw	r24, 0x01	; 1
     ce2:	0e 94 27 17 	call	0x2e4e	; 0x2e4e <_ZN5ValueC1Eb>
     ce6:	21 c1       	rjmp	.+578    	; 0xf2a <_ZN11Interpreter3_idEv+0x684>
     ce8:	60 e5       	ldi	r22, 0x50	; 80
     cea:	71 e0       	ldi	r23, 0x01	; 1
     cec:	ce 01       	movw	r24, r28
     cee:	89 96       	adiw	r24, 0x29	; 41
     cf0:	0e 94 2a 04 	call	0x854	; 0x854 <_Z10nocase_cmpPcPKc>
     cf4:	89 2b       	or	r24, r25
     cf6:	31 f4       	brne	.+12     	; 0xd04 <_ZN11Interpreter3_idEv+0x45e>
     cf8:	89 e2       	ldi	r24, 0x29	; 41
     cfa:	f8 01       	movw	r30, r16
     cfc:	80 83       	st	Z, r24
     cfe:	60 e5       	ldi	r22, 0x50	; 80
     d00:	71 e0       	ldi	r23, 0x01	; 1
     d02:	0f c1       	rjmp	.+542    	; 0xf22 <_ZN11Interpreter3_idEv+0x67c>
     d04:	64 e5       	ldi	r22, 0x54	; 84
     d06:	71 e0       	ldi	r23, 0x01	; 1
     d08:	ce 01       	movw	r24, r28
     d0a:	89 96       	adiw	r24, 0x29	; 41
     d0c:	0e 94 2a 04 	call	0x854	; 0x854 <_Z10nocase_cmpPcPKc>
     d10:	89 2b       	or	r24, r25
     d12:	31 f4       	brne	.+12     	; 0xd20 <_ZN11Interpreter3_idEv+0x47a>
     d14:	8a e2       	ldi	r24, 0x2A	; 42
     d16:	f8 01       	movw	r30, r16
     d18:	80 83       	st	Z, r24
     d1a:	64 e5       	ldi	r22, 0x54	; 84
     d1c:	71 e0       	ldi	r23, 0x01	; 1
     d1e:	01 c1       	rjmp	.+514    	; 0xf22 <_ZN11Interpreter3_idEv+0x67c>
     d20:	68 e5       	ldi	r22, 0x58	; 88
     d22:	71 e0       	ldi	r23, 0x01	; 1
     d24:	ce 01       	movw	r24, r28
     d26:	89 96       	adiw	r24, 0x29	; 41
     d28:	0e 94 2a 04 	call	0x854	; 0x854 <_Z10nocase_cmpPcPKc>
     d2c:	89 2b       	or	r24, r25
     d2e:	31 f4       	brne	.+12     	; 0xd3c <_ZN11Interpreter3_idEv+0x496>
     d30:	8e e0       	ldi	r24, 0x0E	; 14
     d32:	f8 01       	movw	r30, r16
     d34:	80 83       	st	Z, r24
     d36:	68 e5       	ldi	r22, 0x58	; 88
     d38:	71 e0       	ldi	r23, 0x01	; 1
     d3a:	f3 c0       	rjmp	.+486    	; 0xf22 <_ZN11Interpreter3_idEv+0x67c>
     d3c:	6c e5       	ldi	r22, 0x5C	; 92
     d3e:	71 e0       	ldi	r23, 0x01	; 1
     d40:	ce 01       	movw	r24, r28
     d42:	89 96       	adiw	r24, 0x29	; 41
     d44:	0e 94 2a 04 	call	0x854	; 0x854 <_Z10nocase_cmpPcPKc>
     d48:	89 2b       	or	r24, r25
     d4a:	31 f4       	brne	.+12     	; 0xd58 <_ZN11Interpreter3_idEv+0x4b2>
     d4c:	87 e0       	ldi	r24, 0x07	; 7
     d4e:	f8 01       	movw	r30, r16
     d50:	80 83       	st	Z, r24
     d52:	6c e5       	ldi	r22, 0x5C	; 92
     d54:	71 e0       	ldi	r23, 0x01	; 1
     d56:	e5 c0       	rjmp	.+458    	; 0xf22 <_ZN11Interpreter3_idEv+0x67c>
     d58:	6a e8       	ldi	r22, 0x8A	; 138
     d5a:	71 e0       	ldi	r23, 0x01	; 1
     d5c:	ce 01       	movw	r24, r28
     d5e:	89 96       	adiw	r24, 0x29	; 41
     d60:	0e 94 2a 04 	call	0x854	; 0x854 <_Z10nocase_cmpPcPKc>
     d64:	89 2b       	or	r24, r25
     d66:	31 f4       	brne	.+12     	; 0xd74 <_ZN11Interpreter3_idEv+0x4ce>
     d68:	88 e0       	ldi	r24, 0x08	; 8
     d6a:	f8 01       	movw	r30, r16
     d6c:	80 83       	st	Z, r24
     d6e:	6a e8       	ldi	r22, 0x8A	; 138
     d70:	71 e0       	ldi	r23, 0x01	; 1
     d72:	d7 c0       	rjmp	.+430    	; 0xf22 <_ZN11Interpreter3_idEv+0x67c>
     d74:	60 e6       	ldi	r22, 0x60	; 96
     d76:	71 e0       	ldi	r23, 0x01	; 1
     d78:	ce 01       	movw	r24, r28
     d7a:	89 96       	adiw	r24, 0x29	; 41
     d7c:	0e 94 2a 04 	call	0x854	; 0x854 <_Z10nocase_cmpPcPKc>
     d80:	89 2b       	or	r24, r25
     d82:	31 f4       	brne	.+12     	; 0xd90 <_ZN11Interpreter3_idEv+0x4ea>
     d84:	8e e0       	ldi	r24, 0x0E	; 14
     d86:	f8 01       	movw	r30, r16
     d88:	80 83       	st	Z, r24
     d8a:	60 e6       	ldi	r22, 0x60	; 96
     d8c:	71 e0       	ldi	r23, 0x01	; 1
     d8e:	c9 c0       	rjmp	.+402    	; 0xf22 <_ZN11Interpreter3_idEv+0x67c>
     d90:	64 e6       	ldi	r22, 0x64	; 100
     d92:	71 e0       	ldi	r23, 0x01	; 1
     d94:	ce 01       	movw	r24, r28
     d96:	89 96       	adiw	r24, 0x29	; 41
     d98:	0e 94 2a 04 	call	0x854	; 0x854 <_Z10nocase_cmpPcPKc>
     d9c:	89 2b       	or	r24, r25
     d9e:	31 f4       	brne	.+12     	; 0xdac <_ZN11Interpreter3_idEv+0x506>
     da0:	8a e0       	ldi	r24, 0x0A	; 10
     da2:	f8 01       	movw	r30, r16
     da4:	80 83       	st	Z, r24
     da6:	64 e6       	ldi	r22, 0x64	; 100
     da8:	71 e0       	ldi	r23, 0x01	; 1
     daa:	bb c0       	rjmp	.+374    	; 0xf22 <_ZN11Interpreter3_idEv+0x67c>
     dac:	67 e6       	ldi	r22, 0x67	; 103
     dae:	71 e0       	ldi	r23, 0x01	; 1
     db0:	ce 01       	movw	r24, r28
     db2:	89 96       	adiw	r24, 0x29	; 41
     db4:	0e 94 2a 04 	call	0x854	; 0x854 <_Z10nocase_cmpPcPKc>
     db8:	89 2b       	or	r24, r25
     dba:	31 f4       	brne	.+12     	; 0xdc8 <_ZN11Interpreter3_idEv+0x522>
     dbc:	8c e0       	ldi	r24, 0x0C	; 12
     dbe:	f8 01       	movw	r30, r16
     dc0:	80 83       	st	Z, r24
     dc2:	67 e6       	ldi	r22, 0x67	; 103
     dc4:	71 e0       	ldi	r23, 0x01	; 1
     dc6:	ad c0       	rjmp	.+346    	; 0xf22 <_ZN11Interpreter3_idEv+0x67c>
     dc8:	6c e6       	ldi	r22, 0x6C	; 108
     dca:	71 e0       	ldi	r23, 0x01	; 1
     dcc:	ce 01       	movw	r24, r28
     dce:	89 96       	adiw	r24, 0x29	; 41
     dd0:	0e 94 2a 04 	call	0x854	; 0x854 <_Z10nocase_cmpPcPKc>
     dd4:	89 2b       	or	r24, r25
     dd6:	31 f4       	brne	.+12     	; 0xde4 <_ZN11Interpreter3_idEv+0x53e>
     dd8:	87 e2       	ldi	r24, 0x27	; 39
     dda:	f8 01       	movw	r30, r16
     ddc:	80 83       	st	Z, r24
     dde:	6c e6       	ldi	r22, 0x6C	; 108
     de0:	71 e0       	ldi	r23, 0x01	; 1
     de2:	9f c0       	rjmp	.+318    	; 0xf22 <_ZN11Interpreter3_idEv+0x67c>
     de4:	62 e7       	ldi	r22, 0x72	; 114
     de6:	71 e0       	ldi	r23, 0x01	; 1
     de8:	ce 01       	movw	r24, r28
     dea:	89 96       	adiw	r24, 0x29	; 41
     dec:	0e 94 2a 04 	call	0x854	; 0x854 <_Z10nocase_cmpPcPKc>
     df0:	89 2b       	or	r24, r25
     df2:	99 f4       	brne	.+38     	; 0xe1a <_ZN11Interpreter3_idEv+0x574>
     df4:	88 e2       	ldi	r24, 0x28	; 40
     df6:	f8 2e       	mov	r15, r24
     df8:	f8 01       	movw	r30, r16
     dfa:	f0 82       	st	Z, r15
     dfc:	62 e7       	ldi	r22, 0x72	; 114
     dfe:	71 e0       	ldi	r23, 0x01	; 1
     e00:	ce 01       	movw	r24, r28
     e02:	01 96       	adiw	r24, 0x01	; 1
     e04:	0e 94 1c 17 	call	0x2e38	; 0x2e38 <_ZN5ValueC1EPKc>
     e08:	fe 01       	movw	r30, r28
     e0a:	31 96       	adiw	r30, 0x01	; 1
     e0c:	d8 01       	movw	r26, r16
     e0e:	11 96       	adiw	r26, 0x01	; 1
     e10:	01 90       	ld	r0, Z+
     e12:	0d 92       	st	X+, r0
     e14:	fa 94       	dec	r15
     e16:	e1 f7       	brne	.-8      	; 0xe10 <_ZN11Interpreter3_idEv+0x56a>
     e18:	91 c0       	rjmp	.+290    	; 0xf3c <_ZN11Interpreter3_idEv+0x696>
     e1a:	67 e7       	ldi	r22, 0x77	; 119
     e1c:	71 e0       	ldi	r23, 0x01	; 1
     e1e:	ce 01       	movw	r24, r28
     e20:	89 96       	adiw	r24, 0x29	; 41
     e22:	0e 94 2a 04 	call	0x854	; 0x854 <_Z10nocase_cmpPcPKc>
     e26:	89 2b       	or	r24, r25
     e28:	31 f4       	brne	.+12     	; 0xe36 <_ZN11Interpreter3_idEv+0x590>
     e2a:	88 e1       	ldi	r24, 0x18	; 24
     e2c:	f8 01       	movw	r30, r16
     e2e:	80 83       	st	Z, r24
     e30:	67 e7       	ldi	r22, 0x77	; 119
     e32:	71 e0       	ldi	r23, 0x01	; 1
     e34:	76 c0       	rjmp	.+236    	; 0xf22 <_ZN11Interpreter3_idEv+0x67c>
     e36:	6e e7       	ldi	r22, 0x7E	; 126
     e38:	71 e0       	ldi	r23, 0x01	; 1
     e3a:	ce 01       	movw	r24, r28
     e3c:	89 96       	adiw	r24, 0x29	; 41
     e3e:	0e 94 2a 04 	call	0x854	; 0x854 <_Z10nocase_cmpPcPKc>
     e42:	89 2b       	or	r24, r25
     e44:	31 f4       	brne	.+12     	; 0xe52 <_ZN11Interpreter3_idEv+0x5ac>
     e46:	82 e3       	ldi	r24, 0x32	; 50
     e48:	f8 01       	movw	r30, r16
     e4a:	80 83       	st	Z, r24
     e4c:	6e e7       	ldi	r22, 0x7E	; 126
     e4e:	71 e0       	ldi	r23, 0x01	; 1
     e50:	68 c0       	rjmp	.+208    	; 0xf22 <_ZN11Interpreter3_idEv+0x67c>
     e52:	64 e8       	ldi	r22, 0x84	; 132
     e54:	71 e0       	ldi	r23, 0x01	; 1
     e56:	ce 01       	movw	r24, r28
     e58:	89 96       	adiw	r24, 0x29	; 41
     e5a:	0e 94 2a 04 	call	0x854	; 0x854 <_Z10nocase_cmpPcPKc>
     e5e:	89 2b       	or	r24, r25
     e60:	31 f4       	brne	.+12     	; 0xe6e <_ZN11Interpreter3_idEv+0x5c8>
     e62:	8b e0       	ldi	r24, 0x0B	; 11
     e64:	f8 01       	movw	r30, r16
     e66:	80 83       	st	Z, r24
     e68:	64 e8       	ldi	r22, 0x84	; 132
     e6a:	71 e0       	ldi	r23, 0x01	; 1
     e6c:	5a c0       	rjmp	.+180    	; 0xf22 <_ZN11Interpreter3_idEv+0x67c>
     e6e:	69 e8       	ldi	r22, 0x89	; 137
     e70:	71 e0       	ldi	r23, 0x01	; 1
     e72:	ce 01       	movw	r24, r28
     e74:	89 96       	adiw	r24, 0x29	; 41
     e76:	0e 94 2a 04 	call	0x854	; 0x854 <_Z10nocase_cmpPcPKc>
     e7a:	89 2b       	or	r24, r25
     e7c:	31 f4       	brne	.+12     	; 0xe8a <_ZN11Interpreter3_idEv+0x5e4>
     e7e:	8e e2       	ldi	r24, 0x2E	; 46
     e80:	f8 01       	movw	r30, r16
     e82:	80 83       	st	Z, r24
     e84:	69 e8       	ldi	r22, 0x89	; 137
     e86:	71 e0       	ldi	r23, 0x01	; 1
     e88:	4c c0       	rjmp	.+152    	; 0xf22 <_ZN11Interpreter3_idEv+0x67c>
     e8a:	6d e8       	ldi	r22, 0x8D	; 141
     e8c:	71 e0       	ldi	r23, 0x01	; 1
     e8e:	ce 01       	movw	r24, r28
     e90:	89 96       	adiw	r24, 0x29	; 41
     e92:	0e 94 2a 04 	call	0x854	; 0x854 <_Z10nocase_cmpPcPKc>
     e96:	89 2b       	or	r24, r25
     e98:	31 f4       	brne	.+12     	; 0xea6 <_ZN11Interpreter3_idEv+0x600>
     e9a:	8f e2       	ldi	r24, 0x2F	; 47
     e9c:	f8 01       	movw	r30, r16
     e9e:	80 83       	st	Z, r24
     ea0:	6d e8       	ldi	r22, 0x8D	; 141
     ea2:	71 e0       	ldi	r23, 0x01	; 1
     ea4:	3e c0       	rjmp	.+124    	; 0xf22 <_ZN11Interpreter3_idEv+0x67c>
     ea6:	60 e9       	ldi	r22, 0x90	; 144
     ea8:	71 e0       	ldi	r23, 0x01	; 1
     eaa:	ce 01       	movw	r24, r28
     eac:	89 96       	adiw	r24, 0x29	; 41
     eae:	0e 94 2a 04 	call	0x854	; 0x854 <_Z10nocase_cmpPcPKc>
     eb2:	89 2b       	or	r24, r25
     eb4:	31 f4       	brne	.+12     	; 0xec2 <_ZN11Interpreter3_idEv+0x61c>
     eb6:	8c e2       	ldi	r24, 0x2C	; 44
     eb8:	f8 01       	movw	r30, r16
     eba:	80 83       	st	Z, r24
     ebc:	60 e9       	ldi	r22, 0x90	; 144
     ebe:	71 e0       	ldi	r23, 0x01	; 1
     ec0:	30 c0       	rjmp	.+96     	; 0xf22 <_ZN11Interpreter3_idEv+0x67c>
     ec2:	63 e9       	ldi	r22, 0x93	; 147
     ec4:	71 e0       	ldi	r23, 0x01	; 1
     ec6:	ce 01       	movw	r24, r28
     ec8:	89 96       	adiw	r24, 0x29	; 41
     eca:	0e 94 2a 04 	call	0x854	; 0x854 <_Z10nocase_cmpPcPKc>
     ece:	89 2b       	or	r24, r25
     ed0:	31 f4       	brne	.+12     	; 0xede <_ZN11Interpreter3_idEv+0x638>
     ed2:	80 e3       	ldi	r24, 0x30	; 48
     ed4:	f8 01       	movw	r30, r16
     ed6:	80 83       	st	Z, r24
     ed8:	63 e9       	ldi	r22, 0x93	; 147
     eda:	71 e0       	ldi	r23, 0x01	; 1
     edc:	22 c0       	rjmp	.+68     	; 0xf22 <_ZN11Interpreter3_idEv+0x67c>
     ede:	68 e9       	ldi	r22, 0x98	; 152
     ee0:	71 e0       	ldi	r23, 0x01	; 1
     ee2:	ce 01       	movw	r24, r28
     ee4:	89 96       	adiw	r24, 0x29	; 41
     ee6:	0e 94 2a 04 	call	0x854	; 0x854 <_Z10nocase_cmpPcPKc>
     eea:	89 2b       	or	r24, r25
     eec:	31 f4       	brne	.+12     	; 0xefa <_ZN11Interpreter3_idEv+0x654>
     eee:	81 e3       	ldi	r24, 0x31	; 49
     ef0:	f8 01       	movw	r30, r16
     ef2:	80 83       	st	Z, r24
     ef4:	68 e9       	ldi	r22, 0x98	; 152
     ef6:	71 e0       	ldi	r23, 0x01	; 1
     ef8:	14 c0       	rjmp	.+40     	; 0xf22 <_ZN11Interpreter3_idEv+0x67c>
     efa:	63 e7       	ldi	r22, 0x73	; 115
     efc:	71 e0       	ldi	r23, 0x01	; 1
     efe:	ce 01       	movw	r24, r28
     f00:	89 96       	adiw	r24, 0x29	; 41
     f02:	0e 94 2a 04 	call	0x854	; 0x854 <_Z10nocase_cmpPcPKc>
     f06:	89 2b       	or	r24, r25
     f08:	31 f4       	brne	.+12     	; 0xf16 <_ZN11Interpreter3_idEv+0x670>
     f0a:	82 e2       	ldi	r24, 0x22	; 34
     f0c:	f8 01       	movw	r30, r16
     f0e:	80 83       	st	Z, r24
     f10:	63 e7       	ldi	r22, 0x73	; 115
     f12:	71 e0       	ldi	r23, 0x01	; 1
     f14:	06 c0       	rjmp	.+12     	; 0xf22 <_ZN11Interpreter3_idEv+0x67c>
     f16:	8d e0       	ldi	r24, 0x0D	; 13
     f18:	f8 01       	movw	r30, r16
     f1a:	80 83       	st	Z, r24
     f1c:	be 01       	movw	r22, r28
     f1e:	67 5d       	subi	r22, 0xD7	; 215
     f20:	7f 4f       	sbci	r23, 0xFF	; 255
     f22:	ce 01       	movw	r24, r28
     f24:	01 96       	adiw	r24, 0x01	; 1
     f26:	0e 94 1c 17 	call	0x2e38	; 0x2e38 <_ZN5ValueC1EPKc>
     f2a:	88 e2       	ldi	r24, 0x28	; 40
     f2c:	fe 01       	movw	r30, r28
     f2e:	31 96       	adiw	r30, 0x01	; 1
     f30:	d8 01       	movw	r26, r16
     f32:	11 96       	adiw	r26, 0x01	; 1
     f34:	01 90       	ld	r0, Z+
     f36:	0d 92       	st	X+, r0
     f38:	8a 95       	dec	r24
     f3a:	e1 f7       	brne	.-8      	; 0xf34 <_ZN11Interpreter3_idEv+0x68e>
     f3c:	c8 01       	movw	r24, r16
     f3e:	cf 5b       	subi	r28, 0xBF	; 191
     f40:	df 4f       	sbci	r29, 0xFF	; 255
     f42:	0f b6       	in	r0, 0x3f	; 63
     f44:	f8 94       	cli
     f46:	de bf       	out	0x3e, r29	; 62
     f48:	0f be       	out	0x3f, r0	; 63
     f4a:	cd bf       	out	0x3d, r28	; 61
     f4c:	df 91       	pop	r29
     f4e:	cf 91       	pop	r28
     f50:	1f 91       	pop	r17
     f52:	0f 91       	pop	r16
     f54:	ff 90       	pop	r15
     f56:	ef 90       	pop	r14
     f58:	df 90       	pop	r13
     f5a:	cf 90       	pop	r12
     f5c:	bf 90       	pop	r11
     f5e:	af 90       	pop	r10
     f60:	9f 90       	pop	r9
     f62:	8f 90       	pop	r8
     f64:	7f 90       	pop	r7
     f66:	6f 90       	pop	r6
     f68:	5f 90       	pop	r5
     f6a:	4f 90       	pop	r4
     f6c:	3f 90       	pop	r3
     f6e:	08 95       	ret

00000f70 <_ZN11Interpreter14get_next_tokenEv>:
     f70:	8f 92       	push	r8
     f72:	9f 92       	push	r9
     f74:	af 92       	push	r10
     f76:	bf 92       	push	r11
     f78:	df 92       	push	r13
     f7a:	ef 92       	push	r14
     f7c:	ff 92       	push	r15
     f7e:	0f 93       	push	r16
     f80:	1f 93       	push	r17
     f82:	cf 93       	push	r28
     f84:	df 93       	push	r29
     f86:	cd b7       	in	r28, 0x3d	; 61
     f88:	de b7       	in	r29, 0x3e	; 62
     f8a:	c1 55       	subi	r28, 0x51	; 81
     f8c:	d1 09       	sbc	r29, r1
     f8e:	0f b6       	in	r0, 0x3f	; 63
     f90:	f8 94       	cli
     f92:	de bf       	out	0x3e, r29	; 62
     f94:	0f be       	out	0x3f, r0	; 63
     f96:	cd bf       	out	0x3d, r28	; 61
     f98:	7c 01       	movw	r14, r24
     f9a:	8b 01       	movw	r16, r22
     f9c:	ce 01       	movw	r24, r28
     f9e:	02 96       	adiw	r24, 0x02	; 2
     fa0:	0e 94 e3 16 	call	0x2dc6	; 0x2dc6 <_ZN5ValueC1Ev>
     fa4:	58 01       	movw	r10, r16
     fa6:	8e eb       	ldi	r24, 0xBE	; 190
     fa8:	a8 1a       	sub	r10, r24
     faa:	8e ef       	ldi	r24, 0xFE	; 254
     fac:	b8 0a       	sbc	r11, r24
     fae:	f5 01       	movw	r30, r10
     fb0:	d0 80       	ld	r13, Z
     fb2:	dd 20       	and	r13, r13
     fb4:	09 f4       	brne	.+2      	; 0xfb8 <_ZN11Interpreter14get_next_tokenEv+0x48>
     fb6:	43 c1       	rjmp	.+646    	; 0x123e <_ZN11Interpreter14get_next_tokenEv+0x2ce>
     fb8:	8d 2c       	mov	r8, r13
     fba:	91 2c       	mov	r9, r1
     fbc:	c4 01       	movw	r24, r8
     fbe:	0e 94 cd 2c 	call	0x599a	; 0x599a <isspace>
     fc2:	89 2b       	or	r24, r25
     fc4:	d1 f0       	breq	.+52     	; 0xffa <_ZN11Interpreter14get_next_tokenEv+0x8a>
     fc6:	fd e0       	ldi	r31, 0x0D	; 13
     fc8:	df 16       	cp	r13, r31
     fca:	21 f0       	breq	.+8      	; 0xfd4 <_ZN11Interpreter14get_next_tokenEv+0x64>
     fcc:	8a e0       	ldi	r24, 0x0A	; 10
     fce:	d8 12       	cpse	r13, r24
     fd0:	10 c0       	rjmp	.+32     	; 0xff2 <_ZN11Interpreter14get_next_tokenEv+0x82>
     fd2:	08 c0       	rjmp	.+16     	; 0xfe4 <_ZN11Interpreter14get_next_tokenEv+0x74>
     fd4:	c8 01       	movw	r24, r16
     fd6:	0e 94 5f 02 	call	0x4be	; 0x4be <_ZN11Interpreter4peekEv>
     fda:	8a 30       	cpi	r24, 0x0A	; 10
     fdc:	19 f4       	brne	.+6      	; 0xfe4 <_ZN11Interpreter14get_next_tokenEv+0x74>
     fde:	c8 01       	movw	r24, r16
     fe0:	0e 94 43 02 	call	0x486	; 0x486 <_ZN11Interpreter7advanceEv>
     fe4:	c8 01       	movw	r24, r16
     fe6:	0e 94 43 02 	call	0x486	; 0x486 <_ZN11Interpreter7advanceEv>
     fea:	87 e1       	ldi	r24, 0x17	; 23
     fec:	89 83       	std	Y+1, r24	; 0x01
     fee:	6a e0       	ldi	r22, 0x0A	; 10
     ff0:	29 c1       	rjmp	.+594    	; 0x1244 <_ZN11Interpreter14get_next_tokenEv+0x2d4>
     ff2:	c8 01       	movw	r24, r16
     ff4:	0e 94 70 02 	call	0x4e0	; 0x4e0 <_ZN11Interpreter15skip_whitespaceEv>
     ff8:	da cf       	rjmp	.-76     	; 0xfae <_ZN11Interpreter14get_next_tokenEv+0x3e>
     ffa:	c4 01       	movw	r24, r8
     ffc:	c0 97       	sbiw	r24, 0x30	; 48
     ffe:	0a 97       	sbiw	r24, 0x0a	; 10
    1000:	28 f4       	brcc	.+10     	; 0x100c <_ZN11Interpreter14get_next_tokenEv+0x9c>
    1002:	b8 01       	movw	r22, r16
    1004:	c7 01       	movw	r24, r14
    1006:	0e 94 8a 02 	call	0x514	; 0x514 <_ZN11Interpreter12parse_numberEv>
    100a:	3c c1       	rjmp	.+632    	; 0x1284 <_ZN11Interpreter14get_next_tokenEv+0x314>
    100c:	e2 e2       	ldi	r30, 0x22	; 34
    100e:	de 12       	cpse	r13, r30
    1010:	08 c0       	rjmp	.+16     	; 0x1022 <_ZN11Interpreter14get_next_tokenEv+0xb2>
    1012:	c8 01       	movw	r24, r16
    1014:	0e 94 43 02 	call	0x486	; 0x486 <_ZN11Interpreter7advanceEv>
    1018:	b8 01       	movw	r22, r16
    101a:	c7 01       	movw	r24, r14
    101c:	0e 94 90 03 	call	0x720	; 0x720 <_ZN11Interpreter12parse_stringEv>
    1020:	31 c1       	rjmp	.+610    	; 0x1284 <_ZN11Interpreter14get_next_tokenEv+0x314>
    1022:	c4 01       	movw	r24, r8
    1024:	0e 94 b5 2c 	call	0x596a	; 0x596a <isalnum>
    1028:	89 2b       	or	r24, r25
    102a:	29 f0       	breq	.+10     	; 0x1036 <_ZN11Interpreter14get_next_tokenEv+0xc6>
    102c:	b8 01       	movw	r22, r16
    102e:	c7 01       	movw	r24, r14
    1030:	0e 94 53 04 	call	0x8a6	; 0x8a6 <_ZN11Interpreter3_idEv>
    1034:	27 c1       	rjmp	.+590    	; 0x1284 <_ZN11Interpreter14get_next_tokenEv+0x314>
    1036:	f6 e2       	ldi	r31, 0x26	; 38
    1038:	df 12       	cpse	r13, r31
    103a:	0d c0       	rjmp	.+26     	; 0x1056 <_ZN11Interpreter14get_next_tokenEv+0xe6>
    103c:	c8 01       	movw	r24, r16
    103e:	0e 94 5f 02 	call	0x4be	; 0x4be <_ZN11Interpreter4peekEv>
    1042:	88 34       	cpi	r24, 0x48	; 72
    1044:	09 f4       	brne	.+2      	; 0x1048 <_ZN11Interpreter14get_next_tokenEv+0xd8>
    1046:	14 c1       	rjmp	.+552    	; 0x1270 <_ZN11Interpreter14get_next_tokenEv+0x300>
    1048:	c8 01       	movw	r24, r16
    104a:	0e 94 43 02 	call	0x486	; 0x486 <_ZN11Interpreter7advanceEv>
    104e:	89 e1       	ldi	r24, 0x19	; 25
    1050:	89 83       	std	Y+1, r24	; 0x01
    1052:	66 e2       	ldi	r22, 0x26	; 38
    1054:	f7 c0       	rjmp	.+494    	; 0x1244 <_ZN11Interpreter14get_next_tokenEv+0x2d4>
    1056:	8d e3       	ldi	r24, 0x3D	; 61
    1058:	d8 12       	cpse	r13, r24
    105a:	07 c0       	rjmp	.+14     	; 0x106a <_ZN11Interpreter14get_next_tokenEv+0xfa>
    105c:	c8 01       	movw	r24, r16
    105e:	0e 94 43 02 	call	0x486	; 0x486 <_ZN11Interpreter7advanceEv>
    1062:	83 e1       	ldi	r24, 0x13	; 19
    1064:	89 83       	std	Y+1, r24	; 0x01
    1066:	6d e3       	ldi	r22, 0x3D	; 61
    1068:	ed c0       	rjmp	.+474    	; 0x1244 <_ZN11Interpreter14get_next_tokenEv+0x2d4>
    106a:	ec e2       	ldi	r30, 0x2C	; 44
    106c:	de 12       	cpse	r13, r30
    106e:	07 c0       	rjmp	.+14     	; 0x107e <_ZN11Interpreter14get_next_tokenEv+0x10e>
    1070:	c8 01       	movw	r24, r16
    1072:	0e 94 43 02 	call	0x486	; 0x486 <_ZN11Interpreter7advanceEv>
    1076:	8a e1       	ldi	r24, 0x1A	; 26
    1078:	89 83       	std	Y+1, r24	; 0x01
    107a:	6c e2       	ldi	r22, 0x2C	; 44
    107c:	e3 c0       	rjmp	.+454    	; 0x1244 <_ZN11Interpreter14get_next_tokenEv+0x2d4>
    107e:	f5 e2       	ldi	r31, 0x25	; 37
    1080:	df 12       	cpse	r13, r31
    1082:	07 c0       	rjmp	.+14     	; 0x1092 <_ZN11Interpreter14get_next_tokenEv+0x122>
    1084:	c8 01       	movw	r24, r16
    1086:	0e 94 43 02 	call	0x486	; 0x486 <_ZN11Interpreter7advanceEv>
    108a:	82 e0       	ldi	r24, 0x02	; 2
    108c:	89 83       	std	Y+1, r24	; 0x01
    108e:	65 e2       	ldi	r22, 0x25	; 37
    1090:	d9 c0       	rjmp	.+434    	; 0x1244 <_ZN11Interpreter14get_next_tokenEv+0x2d4>
    1092:	8a e3       	ldi	r24, 0x3A	; 58
    1094:	d8 12       	cpse	r13, r24
    1096:	07 c0       	rjmp	.+14     	; 0x10a6 <_ZN11Interpreter14get_next_tokenEv+0x136>
    1098:	c8 01       	movw	r24, r16
    109a:	0e 94 43 02 	call	0x486	; 0x486 <_ZN11Interpreter7advanceEv>
    109e:	8b e1       	ldi	r24, 0x1B	; 27
    10a0:	89 83       	std	Y+1, r24	; 0x01
    10a2:	6a e3       	ldi	r22, 0x3A	; 58
    10a4:	cf c0       	rjmp	.+414    	; 0x1244 <_ZN11Interpreter14get_next_tokenEv+0x2d4>
    10a6:	ec e3       	ldi	r30, 0x3C	; 60
    10a8:	de 12       	cpse	r13, r30
    10aa:	2f c0       	rjmp	.+94     	; 0x110a <_ZN11Interpreter14get_next_tokenEv+0x19a>
    10ac:	c8 01       	movw	r24, r16
    10ae:	0e 94 5f 02 	call	0x4be	; 0x4be <_ZN11Interpreter4peekEv>
    10b2:	8e 33       	cpi	r24, 0x3E	; 62
    10b4:	59 f4       	brne	.+22     	; 0x10cc <_ZN11Interpreter14get_next_tokenEv+0x15c>
    10b6:	c8 01       	movw	r24, r16
    10b8:	0e 94 43 02 	call	0x486	; 0x486 <_ZN11Interpreter7advanceEv>
    10bc:	c8 01       	movw	r24, r16
    10be:	0e 94 43 02 	call	0x486	; 0x486 <_ZN11Interpreter7advanceEv>
    10c2:	84 e1       	ldi	r24, 0x14	; 20
    10c4:	89 83       	std	Y+1, r24	; 0x01
    10c6:	6d e9       	ldi	r22, 0x9D	; 157
    10c8:	71 e0       	ldi	r23, 0x01	; 1
    10ca:	86 c0       	rjmp	.+268    	; 0x11d8 <_ZN11Interpreter14get_next_tokenEv+0x268>
    10cc:	8d 33       	cpi	r24, 0x3D	; 61
    10ce:	59 f4       	brne	.+22     	; 0x10e6 <_ZN11Interpreter14get_next_tokenEv+0x176>
    10d0:	c8 01       	movw	r24, r16
    10d2:	0e 94 43 02 	call	0x486	; 0x486 <_ZN11Interpreter7advanceEv>
    10d6:	c8 01       	movw	r24, r16
    10d8:	0e 94 43 02 	call	0x486	; 0x486 <_ZN11Interpreter7advanceEv>
    10dc:	81 e1       	ldi	r24, 0x11	; 17
    10de:	89 83       	std	Y+1, r24	; 0x01
    10e0:	60 ea       	ldi	r22, 0xA0	; 160
    10e2:	71 e0       	ldi	r23, 0x01	; 1
    10e4:	79 c0       	rjmp	.+242    	; 0x11d8 <_ZN11Interpreter14get_next_tokenEv+0x268>
    10e6:	8c 33       	cpi	r24, 0x3C	; 60
    10e8:	59 f4       	brne	.+22     	; 0x1100 <_ZN11Interpreter14get_next_tokenEv+0x190>
    10ea:	c8 01       	movw	r24, r16
    10ec:	0e 94 43 02 	call	0x486	; 0x486 <_ZN11Interpreter7advanceEv>
    10f0:	c8 01       	movw	r24, r16
    10f2:	0e 94 43 02 	call	0x486	; 0x486 <_ZN11Interpreter7advanceEv>
    10f6:	85 e0       	ldi	r24, 0x05	; 5
    10f8:	89 83       	std	Y+1, r24	; 0x01
    10fa:	63 ea       	ldi	r22, 0xA3	; 163
    10fc:	71 e0       	ldi	r23, 0x01	; 1
    10fe:	6c c0       	rjmp	.+216    	; 0x11d8 <_ZN11Interpreter14get_next_tokenEv+0x268>
    1100:	c8 01       	movw	r24, r16
    1102:	0e 94 43 02 	call	0x486	; 0x486 <_ZN11Interpreter7advanceEv>
    1106:	80 e1       	ldi	r24, 0x10	; 16
    1108:	24 c0       	rjmp	.+72     	; 0x1152 <_ZN11Interpreter14get_next_tokenEv+0x1e2>
    110a:	fe e3       	ldi	r31, 0x3E	; 62
    110c:	df 12       	cpse	r13, r31
    110e:	24 c0       	rjmp	.+72     	; 0x1158 <_ZN11Interpreter14get_next_tokenEv+0x1e8>
    1110:	c8 01       	movw	r24, r16
    1112:	0e 94 5f 02 	call	0x4be	; 0x4be <_ZN11Interpreter4peekEv>
    1116:	8d 33       	cpi	r24, 0x3D	; 61
    1118:	59 f4       	brne	.+22     	; 0x1130 <_ZN11Interpreter14get_next_tokenEv+0x1c0>
    111a:	c8 01       	movw	r24, r16
    111c:	0e 94 43 02 	call	0x486	; 0x486 <_ZN11Interpreter7advanceEv>
    1120:	c8 01       	movw	r24, r16
    1122:	0e 94 43 02 	call	0x486	; 0x486 <_ZN11Interpreter7advanceEv>
    1126:	82 e1       	ldi	r24, 0x12	; 18
    1128:	89 83       	std	Y+1, r24	; 0x01
    112a:	66 ea       	ldi	r22, 0xA6	; 166
    112c:	71 e0       	ldi	r23, 0x01	; 1
    112e:	54 c0       	rjmp	.+168    	; 0x11d8 <_ZN11Interpreter14get_next_tokenEv+0x268>
    1130:	8e 33       	cpi	r24, 0x3E	; 62
    1132:	59 f4       	brne	.+22     	; 0x114a <_ZN11Interpreter14get_next_tokenEv+0x1da>
    1134:	c8 01       	movw	r24, r16
    1136:	0e 94 43 02 	call	0x486	; 0x486 <_ZN11Interpreter7advanceEv>
    113a:	c8 01       	movw	r24, r16
    113c:	0e 94 43 02 	call	0x486	; 0x486 <_ZN11Interpreter7advanceEv>
    1140:	86 e0       	ldi	r24, 0x06	; 6
    1142:	89 83       	std	Y+1, r24	; 0x01
    1144:	69 ea       	ldi	r22, 0xA9	; 169
    1146:	71 e0       	ldi	r23, 0x01	; 1
    1148:	47 c0       	rjmp	.+142    	; 0x11d8 <_ZN11Interpreter14get_next_tokenEv+0x268>
    114a:	c8 01       	movw	r24, r16
    114c:	0e 94 43 02 	call	0x486	; 0x486 <_ZN11Interpreter7advanceEv>
    1150:	8f e0       	ldi	r24, 0x0F	; 15
    1152:	89 83       	std	Y+1, r24	; 0x01
    1154:	6c e3       	ldi	r22, 0x3C	; 60
    1156:	76 c0       	rjmp	.+236    	; 0x1244 <_ZN11Interpreter14get_next_tokenEv+0x2d4>
    1158:	8b e2       	ldi	r24, 0x2B	; 43
    115a:	d8 12       	cpse	r13, r24
    115c:	14 c0       	rjmp	.+40     	; 0x1186 <_ZN11Interpreter14get_next_tokenEv+0x216>
    115e:	c8 01       	movw	r24, r16
    1160:	0e 94 43 02 	call	0x486	; 0x486 <_ZN11Interpreter7advanceEv>
    1164:	f5 01       	movw	r30, r10
    1166:	80 81       	ld	r24, Z
    1168:	8d 33       	cpi	r24, 0x3D	; 61
    116a:	41 f4       	brne	.+16     	; 0x117c <_ZN11Interpreter14get_next_tokenEv+0x20c>
    116c:	c8 01       	movw	r24, r16
    116e:	0e 94 43 02 	call	0x486	; 0x486 <_ZN11Interpreter7advanceEv>
    1172:	8c e1       	ldi	r24, 0x1C	; 28
    1174:	89 83       	std	Y+1, r24	; 0x01
    1176:	6c ea       	ldi	r22, 0xAC	; 172
    1178:	71 e0       	ldi	r23, 0x01	; 1
    117a:	2e c0       	rjmp	.+92     	; 0x11d8 <_ZN11Interpreter14get_next_tokenEv+0x268>
    117c:	83 e0       	ldi	r24, 0x03	; 3
    117e:	89 83       	std	Y+1, r24	; 0x01
    1180:	6f ea       	ldi	r22, 0xAF	; 175
    1182:	71 e0       	ldi	r23, 0x01	; 1
    1184:	29 c0       	rjmp	.+82     	; 0x11d8 <_ZN11Interpreter14get_next_tokenEv+0x268>
    1186:	fd e2       	ldi	r31, 0x2D	; 45
    1188:	df 12       	cpse	r13, r31
    118a:	13 c0       	rjmp	.+38     	; 0x11b2 <_ZN11Interpreter14get_next_tokenEv+0x242>
    118c:	c8 01       	movw	r24, r16
    118e:	0e 94 43 02 	call	0x486	; 0x486 <_ZN11Interpreter7advanceEv>
    1192:	f5 01       	movw	r30, r10
    1194:	80 81       	ld	r24, Z
    1196:	8d 33       	cpi	r24, 0x3D	; 61
    1198:	41 f4       	brne	.+16     	; 0x11aa <_ZN11Interpreter14get_next_tokenEv+0x23a>
    119a:	c8 01       	movw	r24, r16
    119c:	0e 94 43 02 	call	0x486	; 0x486 <_ZN11Interpreter7advanceEv>
    11a0:	8d e1       	ldi	r24, 0x1D	; 29
    11a2:	89 83       	std	Y+1, r24	; 0x01
    11a4:	61 eb       	ldi	r22, 0xB1	; 177
    11a6:	71 e0       	ldi	r23, 0x01	; 1
    11a8:	17 c0       	rjmp	.+46     	; 0x11d8 <_ZN11Interpreter14get_next_tokenEv+0x268>
    11aa:	81 e0       	ldi	r24, 0x01	; 1
    11ac:	89 83       	std	Y+1, r24	; 0x01
    11ae:	6d e2       	ldi	r22, 0x2D	; 45
    11b0:	49 c0       	rjmp	.+146    	; 0x1244 <_ZN11Interpreter14get_next_tokenEv+0x2d4>
    11b2:	fe e5       	ldi	r31, 0x5E	; 94
    11b4:	df 12       	cpse	r13, r31
    11b6:	07 c0       	rjmp	.+14     	; 0x11c6 <_ZN11Interpreter14get_next_tokenEv+0x256>
    11b8:	c8 01       	movw	r24, r16
    11ba:	0e 94 43 02 	call	0x486	; 0x486 <_ZN11Interpreter7advanceEv>
    11be:	8e e1       	ldi	r24, 0x1E	; 30
    11c0:	89 83       	std	Y+1, r24	; 0x01
    11c2:	6e e5       	ldi	r22, 0x5E	; 94
    11c4:	3f c0       	rjmp	.+126    	; 0x1244 <_ZN11Interpreter14get_next_tokenEv+0x2d4>
    11c6:	8a e2       	ldi	r24, 0x2A	; 42
    11c8:	d8 12       	cpse	r13, r24
    11ca:	0b c0       	rjmp	.+22     	; 0x11e2 <_ZN11Interpreter14get_next_tokenEv+0x272>
    11cc:	c8 01       	movw	r24, r16
    11ce:	0e 94 43 02 	call	0x486	; 0x486 <_ZN11Interpreter7advanceEv>
    11d2:	19 82       	std	Y+1, r1	; 0x01
    11d4:	64 eb       	ldi	r22, 0xB4	; 180
    11d6:	71 e0       	ldi	r23, 0x01	; 1
    11d8:	ce 01       	movw	r24, r28
    11da:	8a 96       	adiw	r24, 0x2a	; 42
    11dc:	0e 94 1c 17 	call	0x2e38	; 0x2e38 <_ZN5ValueC1EPKc>
    11e0:	35 c0       	rjmp	.+106    	; 0x124c <_ZN11Interpreter14get_next_tokenEv+0x2dc>
    11e2:	ef e2       	ldi	r30, 0x2F	; 47
    11e4:	de 12       	cpse	r13, r30
    11e6:	07 c0       	rjmp	.+14     	; 0x11f6 <_ZN11Interpreter14get_next_tokenEv+0x286>
    11e8:	c8 01       	movw	r24, r16
    11ea:	0e 94 43 02 	call	0x486	; 0x486 <_ZN11Interpreter7advanceEv>
    11ee:	84 e0       	ldi	r24, 0x04	; 4
    11f0:	89 83       	std	Y+1, r24	; 0x01
    11f2:	6f e2       	ldi	r22, 0x2F	; 47
    11f4:	27 c0       	rjmp	.+78     	; 0x1244 <_ZN11Interpreter14get_next_tokenEv+0x2d4>
    11f6:	fc e5       	ldi	r31, 0x5C	; 92
    11f8:	df 12       	cpse	r13, r31
    11fa:	07 c0       	rjmp	.+14     	; 0x120a <_ZN11Interpreter14get_next_tokenEv+0x29a>
    11fc:	c8 01       	movw	r24, r16
    11fe:	0e 94 43 02 	call	0x486	; 0x486 <_ZN11Interpreter7advanceEv>
    1202:	8f e1       	ldi	r24, 0x1F	; 31
    1204:	89 83       	std	Y+1, r24	; 0x01
    1206:	6c e5       	ldi	r22, 0x5C	; 92
    1208:	1d c0       	rjmp	.+58     	; 0x1244 <_ZN11Interpreter14get_next_tokenEv+0x2d4>
    120a:	88 e2       	ldi	r24, 0x28	; 40
    120c:	d8 12       	cpse	r13, r24
    120e:	07 c0       	rjmp	.+14     	; 0x121e <_ZN11Interpreter14get_next_tokenEv+0x2ae>
    1210:	c8 01       	movw	r24, r16
    1212:	0e 94 43 02 	call	0x486	; 0x486 <_ZN11Interpreter7advanceEv>
    1216:	80 e2       	ldi	r24, 0x20	; 32
    1218:	89 83       	std	Y+1, r24	; 0x01
    121a:	68 e2       	ldi	r22, 0x28	; 40
    121c:	13 c0       	rjmp	.+38     	; 0x1244 <_ZN11Interpreter14get_next_tokenEv+0x2d4>
    121e:	e9 e2       	ldi	r30, 0x29	; 41
    1220:	de 12       	cpse	r13, r30
    1222:	07 c0       	rjmp	.+14     	; 0x1232 <_ZN11Interpreter14get_next_tokenEv+0x2c2>
    1224:	c8 01       	movw	r24, r16
    1226:	0e 94 43 02 	call	0x486	; 0x486 <_ZN11Interpreter7advanceEv>
    122a:	81 e2       	ldi	r24, 0x21	; 33
    122c:	89 83       	std	Y+1, r24	; 0x01
    122e:	69 e2       	ldi	r22, 0x29	; 41
    1230:	09 c0       	rjmp	.+18     	; 0x1244 <_ZN11Interpreter14get_next_tokenEv+0x2d4>
    1232:	66 eb       	ldi	r22, 0xB6	; 182
    1234:	71 e0       	ldi	r23, 0x01	; 1
    1236:	c8 01       	movw	r24, r16
    1238:	0e 94 15 02 	call	0x42a	; 0x42a <_ZN11Interpreter5errorEPKc>
    123c:	b8 ce       	rjmp	.-656    	; 0xfae <_ZN11Interpreter14get_next_tokenEv+0x3e>
    123e:	82 e2       	ldi	r24, 0x22	; 34
    1240:	89 83       	std	Y+1, r24	; 0x01
    1242:	60 e0       	ldi	r22, 0x00	; 0
    1244:	ce 01       	movw	r24, r28
    1246:	8a 96       	adiw	r24, 0x2a	; 42
    1248:	0e 94 ff 16 	call	0x2dfe	; 0x2dfe <_ZN5ValueC1Ec>
    124c:	88 e2       	ldi	r24, 0x28	; 40
    124e:	fe 01       	movw	r30, r28
    1250:	ba 96       	adiw	r30, 0x2a	; 42
    1252:	de 01       	movw	r26, r28
    1254:	12 96       	adiw	r26, 0x02	; 2
    1256:	01 90       	ld	r0, Z+
    1258:	0d 92       	st	X+, r0
    125a:	8a 95       	dec	r24
    125c:	e1 f7       	brne	.-8      	; 0x1256 <_ZN11Interpreter14get_next_tokenEv+0x2e6>
    125e:	89 e2       	ldi	r24, 0x29	; 41
    1260:	fe 01       	movw	r30, r28
    1262:	31 96       	adiw	r30, 0x01	; 1
    1264:	d7 01       	movw	r26, r14
    1266:	01 90       	ld	r0, Z+
    1268:	0d 92       	st	X+, r0
    126a:	8a 95       	dec	r24
    126c:	e1 f7       	brne	.-8      	; 0x1266 <_ZN11Interpreter14get_next_tokenEv+0x2f6>
    126e:	0a c0       	rjmp	.+20     	; 0x1284 <_ZN11Interpreter14get_next_tokenEv+0x314>
    1270:	c8 01       	movw	r24, r16
    1272:	0e 94 43 02 	call	0x486	; 0x486 <_ZN11Interpreter7advanceEv>
    1276:	c8 01       	movw	r24, r16
    1278:	0e 94 43 02 	call	0x486	; 0x486 <_ZN11Interpreter7advanceEv>
    127c:	b8 01       	movw	r22, r16
    127e:	c7 01       	movw	r24, r14
    1280:	0e 94 24 03 	call	0x648	; 0x648 <_ZN11Interpreter9parse_hexEv>
    1284:	c7 01       	movw	r24, r14
    1286:	cf 5a       	subi	r28, 0xAF	; 175
    1288:	df 4f       	sbci	r29, 0xFF	; 255
    128a:	0f b6       	in	r0, 0x3f	; 63
    128c:	f8 94       	cli
    128e:	de bf       	out	0x3e, r29	; 62
    1290:	0f be       	out	0x3f, r0	; 63
    1292:	cd bf       	out	0x3d, r28	; 61
    1294:	df 91       	pop	r29
    1296:	cf 91       	pop	r28
    1298:	1f 91       	pop	r17
    129a:	0f 91       	pop	r16
    129c:	ff 90       	pop	r15
    129e:	ef 90       	pop	r14
    12a0:	df 90       	pop	r13
    12a2:	bf 90       	pop	r11
    12a4:	af 90       	pop	r10
    12a6:	9f 90       	pop	r9
    12a8:	8f 90       	pop	r8
    12aa:	08 95       	ret

000012ac <_ZN11Interpreter3eatE9TokenType>:
    12ac:	0f 93       	push	r16
    12ae:	1f 93       	push	r17
    12b0:	cf 93       	push	r28
    12b2:	df 93       	push	r29
    12b4:	cd b7       	in	r28, 0x3d	; 61
    12b6:	de b7       	in	r29, 0x3e	; 62
    12b8:	a9 97       	sbiw	r28, 0x29	; 41
    12ba:	0f b6       	in	r0, 0x3f	; 63
    12bc:	f8 94       	cli
    12be:	de bf       	out	0x3e, r29	; 62
    12c0:	0f be       	out	0x3f, r0	; 63
    12c2:	cd bf       	out	0x3d, r28	; 61
    12c4:	8c 01       	movw	r16, r24
    12c6:	0d 5b       	subi	r16, 0xBD	; 189
    12c8:	1e 4f       	sbci	r17, 0xFE	; 254
    12ca:	f8 01       	movw	r30, r16
    12cc:	20 81       	ld	r18, Z
    12ce:	26 13       	cpse	r18, r22
    12d0:	18 c0       	rjmp	.+48     	; 0x1302 <_ZN11Interpreter3eatE9TokenType+0x56>
    12d2:	bc 01       	movw	r22, r24
    12d4:	ce 01       	movw	r24, r28
    12d6:	01 96       	adiw	r24, 0x01	; 1
    12d8:	0e 94 b8 07 	call	0xf70	; 0xf70 <_ZN11Interpreter14get_next_tokenEv>
    12dc:	89 e2       	ldi	r24, 0x29	; 41
    12de:	fe 01       	movw	r30, r28
    12e0:	31 96       	adiw	r30, 0x01	; 1
    12e2:	d8 01       	movw	r26, r16
    12e4:	01 90       	ld	r0, Z+
    12e6:	0d 92       	st	X+, r0
    12e8:	8a 95       	dec	r24
    12ea:	e1 f7       	brne	.-8      	; 0x12e4 <_ZN11Interpreter3eatE9TokenType+0x38>
    12ec:	a9 96       	adiw	r28, 0x29	; 41
    12ee:	0f b6       	in	r0, 0x3f	; 63
    12f0:	f8 94       	cli
    12f2:	de bf       	out	0x3e, r29	; 62
    12f4:	0f be       	out	0x3f, r0	; 63
    12f6:	cd bf       	out	0x3d, r28	; 61
    12f8:	df 91       	pop	r29
    12fa:	cf 91       	pop	r28
    12fc:	1f 91       	pop	r17
    12fe:	0f 91       	pop	r16
    1300:	08 95       	ret
    1302:	6d ec       	ldi	r22, 0xCD	; 205
    1304:	71 e0       	ldi	r23, 0x01	; 1
    1306:	a9 96       	adiw	r28, 0x29	; 41
    1308:	0f b6       	in	r0, 0x3f	; 63
    130a:	f8 94       	cli
    130c:	de bf       	out	0x3e, r29	; 62
    130e:	0f be       	out	0x3f, r0	; 63
    1310:	cd bf       	out	0x3d, r28	; 61
    1312:	df 91       	pop	r29
    1314:	cf 91       	pop	r28
    1316:	1f 91       	pop	r17
    1318:	0f 91       	pop	r16
    131a:	0c 94 15 02 	jmp	0x42a	; 0x42a <_ZN11Interpreter5errorEPKc>

0000131e <_ZN11Interpreter10lookup_varEPKc>:
    131e:	8f 92       	push	r8
    1320:	9f 92       	push	r9
    1322:	af 92       	push	r10
    1324:	bf 92       	push	r11
    1326:	cf 92       	push	r12
    1328:	df 92       	push	r13
    132a:	ef 92       	push	r14
    132c:	ff 92       	push	r15
    132e:	0f 93       	push	r16
    1330:	1f 93       	push	r17
    1332:	cf 93       	push	r28
    1334:	df 93       	push	r29
    1336:	cd b7       	in	r28, 0x3d	; 61
    1338:	de b7       	in	r29, 0x3e	; 62
    133a:	6e 97       	sbiw	r28, 0x1e	; 30
    133c:	0f b6       	in	r0, 0x3f	; 63
    133e:	f8 94       	cli
    1340:	de bf       	out	0x3e, r29	; 62
    1342:	0f be       	out	0x3f, r0	; 63
    1344:	cd bf       	out	0x3d, r28	; 61
    1346:	7c 01       	movw	r14, r24
    1348:	6b 01       	movw	r12, r22
    134a:	94 2e       	mov	r9, r20
    134c:	85 2e       	mov	r8, r21
    134e:	5b 01       	movw	r10, r22
    1350:	8f ef       	ldi	r24, 0xFF	; 255
    1352:	a8 1a       	sub	r10, r24
    1354:	b8 0a       	sbc	r11, r24
    1356:	00 e0       	ldi	r16, 0x00	; 0
    1358:	10 e0       	ldi	r17, 0x00	; 0
    135a:	69 2d       	mov	r22, r9
    135c:	78 2d       	mov	r23, r8
    135e:	c5 01       	movw	r24, r10
    1360:	0e 94 fd 2c 	call	0x59fa	; 0x59fa <strcmp>
    1364:	89 2b       	or	r24, r25
    1366:	f9 f0       	breq	.+62     	; 0x13a6 <_ZN11Interpreter10lookup_varEPKc+0x88>
    1368:	0f 5f       	subi	r16, 0xFF	; 255
    136a:	1f 4f       	sbci	r17, 0xFF	; 255
    136c:	98 e0       	ldi	r25, 0x08	; 8
    136e:	a9 0e       	add	r10, r25
    1370:	b1 1c       	adc	r11, r1
    1372:	06 30       	cpi	r16, 0x06	; 6
    1374:	11 05       	cpc	r17, r1
    1376:	89 f7       	brne	.-30     	; 0x135a <_ZN11Interpreter10lookup_varEPKc+0x3c>
    1378:	8f 92       	push	r8
    137a:	9f 92       	push	r9
    137c:	8c ed       	ldi	r24, 0xDC	; 220
    137e:	91 e0       	ldi	r25, 0x01	; 1
    1380:	9f 93       	push	r25
    1382:	8f 93       	push	r24
    1384:	ce 01       	movw	r24, r28
    1386:	01 96       	adiw	r24, 0x01	; 1
    1388:	5c 01       	movw	r10, r24
    138a:	9f 93       	push	r25
    138c:	8f 93       	push	r24
    138e:	0e 94 5c 2d 	call	0x5ab8	; 0x5ab8 <sprintf>
    1392:	b5 01       	movw	r22, r10
    1394:	c6 01       	movw	r24, r12
    1396:	0e 94 15 02 	call	0x42a	; 0x42a <_ZN11Interpreter5errorEPKc>
    139a:	0f 90       	pop	r0
    139c:	0f 90       	pop	r0
    139e:	0f 90       	pop	r0
    13a0:	0f 90       	pop	r0
    13a2:	0f 90       	pop	r0
    13a4:	0f 90       	pop	r0
    13a6:	88 e2       	ldi	r24, 0x28	; 40
    13a8:	80 9f       	mul	r24, r16
    13aa:	f0 01       	movw	r30, r0
    13ac:	81 9f       	mul	r24, r17
    13ae:	f0 0d       	add	r31, r0
    13b0:	11 24       	eor	r1, r1
    13b2:	ec 0d       	add	r30, r12
    13b4:	fd 1d       	adc	r31, r13
    13b6:	f1 96       	adiw	r30, 0x31	; 49
    13b8:	d7 01       	movw	r26, r14
    13ba:	01 90       	ld	r0, Z+
    13bc:	0d 92       	st	X+, r0
    13be:	8a 95       	dec	r24
    13c0:	e1 f7       	brne	.-8      	; 0x13ba <_ZN11Interpreter10lookup_varEPKc+0x9c>
    13c2:	c7 01       	movw	r24, r14
    13c4:	6e 96       	adiw	r28, 0x1e	; 30
    13c6:	0f b6       	in	r0, 0x3f	; 63
    13c8:	f8 94       	cli
    13ca:	de bf       	out	0x3e, r29	; 62
    13cc:	0f be       	out	0x3f, r0	; 63
    13ce:	cd bf       	out	0x3d, r28	; 61
    13d0:	df 91       	pop	r29
    13d2:	cf 91       	pop	r28
    13d4:	1f 91       	pop	r17
    13d6:	0f 91       	pop	r16
    13d8:	ff 90       	pop	r15
    13da:	ef 90       	pop	r14
    13dc:	df 90       	pop	r13
    13de:	cf 90       	pop	r12
    13e0:	bf 90       	pop	r11
    13e2:	af 90       	pop	r10
    13e4:	9f 90       	pop	r9
    13e6:	8f 90       	pop	r8
    13e8:	08 95       	ret

000013ea <_ZN11Interpreter9store_varEPKc5Value>:
    13ea:	af 92       	push	r10
    13ec:	bf 92       	push	r11
    13ee:	cf 92       	push	r12
    13f0:	df 92       	push	r13
    13f2:	ef 92       	push	r14
    13f4:	ff 92       	push	r15
    13f6:	0f 93       	push	r16
    13f8:	1f 93       	push	r17
    13fa:	cf 93       	push	r28
    13fc:	df 93       	push	r29
    13fe:	cd b7       	in	r28, 0x3d	; 61
    1400:	de b7       	in	r29, 0x3e	; 62
    1402:	8c 01       	movw	r16, r24
    1404:	6b 01       	movw	r12, r22
    1406:	5c 01       	movw	r10, r24
    1408:	8f ef       	ldi	r24, 0xFF	; 255
    140a:	a8 1a       	sub	r10, r24
    140c:	b8 0a       	sbc	r11, r24
    140e:	e1 2c       	mov	r14, r1
    1410:	f1 2c       	mov	r15, r1
    1412:	b6 01       	movw	r22, r12
    1414:	c5 01       	movw	r24, r10
    1416:	0e 94 fd 2c 	call	0x59fa	; 0x59fa <strcmp>
    141a:	89 2b       	or	r24, r25
    141c:	39 f4       	brne	.+14     	; 0x142c <_ZN11Interpreter9store_varEPKc5Value+0x42>
    141e:	88 e2       	ldi	r24, 0x28	; 40
    1420:	8e 9d       	mul	r24, r14
    1422:	d0 01       	movw	r26, r0
    1424:	8f 9d       	mul	r24, r15
    1426:	b0 0d       	add	r27, r0
    1428:	11 24       	eor	r1, r1
    142a:	2a c0       	rjmp	.+84     	; 0x1480 <_ZN11Interpreter9store_varEPKc5Value+0x96>
    142c:	ef ef       	ldi	r30, 0xFF	; 255
    142e:	ee 1a       	sub	r14, r30
    1430:	fe 0a       	sbc	r15, r30
    1432:	f8 e0       	ldi	r31, 0x08	; 8
    1434:	af 0e       	add	r10, r31
    1436:	b1 1c       	adc	r11, r1
    1438:	86 e0       	ldi	r24, 0x06	; 6
    143a:	e8 16       	cp	r14, r24
    143c:	f1 04       	cpc	r15, r1
    143e:	49 f7       	brne	.-46     	; 0x1412 <_ZN11Interpreter9store_varEPKc5Value+0x28>
    1440:	78 01       	movw	r14, r16
    1442:	e6 ec       	ldi	r30, 0xC6	; 198
    1444:	ee 1a       	sub	r14, r30
    1446:	ee ef       	ldi	r30, 0xFE	; 254
    1448:	fe 0a       	sbc	r15, r30
    144a:	f7 01       	movw	r30, r14
    144c:	80 81       	ld	r24, Z
    144e:	91 81       	ldd	r25, Z+1	; 0x01
    1450:	23 e0       	ldi	r18, 0x03	; 3
    1452:	88 0f       	add	r24, r24
    1454:	99 1f       	adc	r25, r25
    1456:	2a 95       	dec	r18
    1458:	e1 f7       	brne	.-8      	; 0x1452 <_ZN11Interpreter9store_varEPKc5Value+0x68>
    145a:	01 96       	adiw	r24, 0x01	; 1
    145c:	b6 01       	movw	r22, r12
    145e:	80 0f       	add	r24, r16
    1460:	91 1f       	adc	r25, r17
    1462:	0e 94 06 2d 	call	0x5a0c	; 0x5a0c <strcpy>
    1466:	f7 01       	movw	r30, r14
    1468:	20 81       	ld	r18, Z
    146a:	31 81       	ldd	r19, Z+1	; 0x01
    146c:	c9 01       	movw	r24, r18
    146e:	01 96       	adiw	r24, 0x01	; 1
    1470:	91 83       	std	Z+1, r25	; 0x01
    1472:	80 83       	st	Z, r24
    1474:	88 e2       	ldi	r24, 0x28	; 40
    1476:	82 9f       	mul	r24, r18
    1478:	d0 01       	movw	r26, r0
    147a:	83 9f       	mul	r24, r19
    147c:	b0 0d       	add	r27, r0
    147e:	11 24       	eor	r1, r1
    1480:	a0 0f       	add	r26, r16
    1482:	b1 1f       	adc	r27, r17
    1484:	d1 96       	adiw	r26, 0x31	; 49
    1486:	fe 01       	movw	r30, r28
    1488:	3d 96       	adiw	r30, 0x0d	; 13
    148a:	01 90       	ld	r0, Z+
    148c:	0d 92       	st	X+, r0
    148e:	8a 95       	dec	r24
    1490:	e1 f7       	brne	.-8      	; 0x148a <_ZN11Interpreter9store_varEPKc5Value+0xa0>
    1492:	81 e0       	ldi	r24, 0x01	; 1
    1494:	df 91       	pop	r29
    1496:	cf 91       	pop	r28
    1498:	1f 91       	pop	r17
    149a:	0f 91       	pop	r16
    149c:	ff 90       	pop	r15
    149e:	ef 90       	pop	r14
    14a0:	df 90       	pop	r13
    14a2:	cf 90       	pop	r12
    14a4:	bf 90       	pop	r11
    14a6:	af 90       	pop	r10
    14a8:	08 95       	ret

000014aa <_ZN11Interpreter7delayMsEi>:
    14aa:	80 e0       	ldi	r24, 0x00	; 0
    14ac:	90 e0       	ldi	r25, 0x00	; 0
    14ae:	86 17       	cp	r24, r22
    14b0:	97 07       	cpc	r25, r23
    14b2:	3c f4       	brge	.+14     	; 0x14c2 <_ZN11Interpreter7delayMsEi+0x18>
    14b4:	e6 e6       	ldi	r30, 0x66	; 102
    14b6:	fe e0       	ldi	r31, 0x0E	; 14
    14b8:	31 97       	sbiw	r30, 0x01	; 1
    14ba:	f1 f7       	brne	.-4      	; 0x14b8 <_ZN11Interpreter7delayMsEi+0xe>
    14bc:	00 00       	nop
    14be:	01 96       	adiw	r24, 0x01	; 1
    14c0:	f6 cf       	rjmp	.-20     	; 0x14ae <_ZN11Interpreter7delayMsEi+0x4>
    14c2:	08 95       	ret

000014c4 <_ZN11Interpreter9strlen_eeEPc>:
    14c4:	0f 93       	push	r16
    14c6:	1f 93       	push	r17
    14c8:	cf 93       	push	r28
    14ca:	df 93       	push	r29
    14cc:	8b 01       	movw	r16, r22
    14ce:	cb 01       	movw	r24, r22
    14d0:	0e 94 42 2f 	call	0x5e84	; 0x5e84 <eeprom_read_byte>
    14d4:	c0 e0       	ldi	r28, 0x00	; 0
    14d6:	d0 e0       	ldi	r29, 0x00	; 0
    14d8:	88 23       	and	r24, r24
    14da:	39 f0       	breq	.+14     	; 0x14ea <_ZN11Interpreter9strlen_eeEPc+0x26>
    14dc:	21 96       	adiw	r28, 0x01	; 1
    14de:	c8 01       	movw	r24, r16
    14e0:	8c 0f       	add	r24, r28
    14e2:	9d 1f       	adc	r25, r29
    14e4:	0e 94 42 2f 	call	0x5e84	; 0x5e84 <eeprom_read_byte>
    14e8:	f7 cf       	rjmp	.-18     	; 0x14d8 <_ZN11Interpreter9strlen_eeEPc+0x14>
    14ea:	ce 01       	movw	r24, r28
    14ec:	df 91       	pop	r29
    14ee:	cf 91       	pop	r28
    14f0:	1f 91       	pop	r17
    14f2:	0f 91       	pop	r16
    14f4:	08 95       	ret

000014f6 <_ZN11InterpreterC1EPc>:
    14f6:	af 92       	push	r10
    14f8:	bf 92       	push	r11
    14fa:	cf 92       	push	r12
    14fc:	df 92       	push	r13
    14fe:	ef 92       	push	r14
    1500:	ff 92       	push	r15
    1502:	0f 93       	push	r16
    1504:	1f 93       	push	r17
    1506:	cf 93       	push	r28
    1508:	df 93       	push	r29
    150a:	cd b7       	in	r28, 0x3d	; 61
    150c:	de b7       	in	r29, 0x3e	; 62
    150e:	a9 97       	sbiw	r28, 0x29	; 41
    1510:	0f b6       	in	r0, 0x3f	; 63
    1512:	f8 94       	cli
    1514:	de bf       	out	0x3e, r29	; 62
    1516:	0f be       	out	0x3f, r0	; 63
    1518:	cd bf       	out	0x3d, r28	; 61
    151a:	8c 01       	movw	r16, r24
    151c:	6b 01       	movw	r12, r22
    151e:	7c 01       	movw	r14, r24
    1520:	81 e3       	ldi	r24, 0x31	; 49
    1522:	e8 0e       	add	r14, r24
    1524:	f1 1c       	adc	r15, r1
    1526:	58 01       	movw	r10, r16
    1528:	ef ed       	ldi	r30, 0xDF	; 223
    152a:	ae 1a       	sub	r10, r30
    152c:	ee ef       	ldi	r30, 0xFE	; 254
    152e:	be 0a       	sbc	r11, r30
    1530:	c7 01       	movw	r24, r14
    1532:	0e 94 e3 16 	call	0x2dc6	; 0x2dc6 <_ZN5ValueC1Ev>
    1536:	f8 e2       	ldi	r31, 0x28	; 40
    1538:	ef 0e       	add	r14, r31
    153a:	f1 1c       	adc	r15, r1
    153c:	ea 14       	cp	r14, r10
    153e:	fb 04       	cpc	r15, r11
    1540:	b9 f7       	brne	.-18     	; 0x1530 <_ZN11InterpreterC1EPc+0x3a>
    1542:	78 01       	movw	r14, r16
    1544:	8d eb       	ldi	r24, 0xBD	; 189
    1546:	e8 1a       	sub	r14, r24
    1548:	8e ef       	ldi	r24, 0xFE	; 254
    154a:	f8 0a       	sbc	r15, r24
    154c:	c7 01       	movw	r24, r14
    154e:	01 96       	adiw	r24, 0x01	; 1
    1550:	0e 94 e3 16 	call	0x2dc6	; 0x2dc6 <_ZN5ValueC1Ev>
    1554:	f8 01       	movw	r30, r16
    1556:	10 82       	st	Z, r1
    1558:	e4 5c       	subi	r30, 0xC4	; 196
    155a:	fe 4f       	sbci	r31, 0xFE	; 254
    155c:	d1 82       	std	Z+1, r13	; 0x01
    155e:	c0 82       	st	Z, r12
    1560:	32 96       	adiw	r30, 0x02	; 2
    1562:	11 82       	std	Z+1, r1	; 0x01
    1564:	10 82       	st	Z, r1
    1566:	b6 01       	movw	r22, r12
    1568:	c8 01       	movw	r24, r16
    156a:	0e 94 62 0a 	call	0x14c4	; 0x14c4 <_ZN11Interpreter9strlen_eeEPc>
    156e:	f8 01       	movw	r30, r16
    1570:	e0 5c       	subi	r30, 0xC0	; 192
    1572:	fe 4f       	sbci	r31, 0xFE	; 254
    1574:	91 83       	std	Z+1, r25	; 0x01
    1576:	80 83       	st	Z, r24
    1578:	c6 01       	movw	r24, r12
    157a:	0e 94 42 2f 	call	0x5e84	; 0x5e84 <eeprom_read_byte>
    157e:	f8 01       	movw	r30, r16
    1580:	ee 5b       	subi	r30, 0xBE	; 190
    1582:	fe 4f       	sbci	r31, 0xFE	; 254
    1584:	80 83       	st	Z, r24
    1586:	b8 01       	movw	r22, r16
    1588:	ce 01       	movw	r24, r28
    158a:	01 96       	adiw	r24, 0x01	; 1
    158c:	0e 94 b8 07 	call	0xf70	; 0xf70 <_ZN11Interpreter14get_next_tokenEv>
    1590:	89 e2       	ldi	r24, 0x29	; 41
    1592:	fe 01       	movw	r30, r28
    1594:	31 96       	adiw	r30, 0x01	; 1
    1596:	d7 01       	movw	r26, r14
    1598:	01 90       	ld	r0, Z+
    159a:	0d 92       	st	X+, r0
    159c:	8a 95       	dec	r24
    159e:	e1 f7       	brne	.-8      	; 0x1598 <_ZN11InterpreterC1EPc+0xa2>
    15a0:	f8 01       	movw	r30, r16
    15a2:	e6 5c       	subi	r30, 0xC6	; 198
    15a4:	fe 4f       	sbci	r31, 0xFE	; 254
    15a6:	11 82       	std	Z+1, r1	; 0x01
    15a8:	10 82       	st	Z, r1
    15aa:	a9 96       	adiw	r28, 0x29	; 41
    15ac:	0f b6       	in	r0, 0x3f	; 63
    15ae:	f8 94       	cli
    15b0:	de bf       	out	0x3e, r29	; 62
    15b2:	0f be       	out	0x3f, r0	; 63
    15b4:	cd bf       	out	0x3d, r28	; 61
    15b6:	df 91       	pop	r29
    15b8:	cf 91       	pop	r28
    15ba:	1f 91       	pop	r17
    15bc:	0f 91       	pop	r16
    15be:	ff 90       	pop	r15
    15c0:	ef 90       	pop	r14
    15c2:	df 90       	pop	r13
    15c4:	cf 90       	pop	r12
    15c6:	bf 90       	pop	r11
    15c8:	af 90       	pop	r10
    15ca:	08 95       	ret

000015cc <_ZN11Interpreter7freeRAMEv>:
    15cc:	cf 93       	push	r28
    15ce:	df 93       	push	r29
    15d0:	00 d0       	rcall	.+0      	; 0x15d2 <_ZN11Interpreter7freeRAMEv+0x6>
    15d2:	cd b7       	in	r28, 0x3d	; 61
    15d4:	de b7       	in	r29, 0x3e	; 62
    15d6:	80 91 82 02 	lds	r24, 0x0282	; 0x800282 <__brkval>
    15da:	90 91 83 02 	lds	r25, 0x0283	; 0x800283 <__brkval+0x1>
    15de:	21 e0       	ldi	r18, 0x01	; 1
    15e0:	30 e0       	ldi	r19, 0x00	; 0
    15e2:	00 97       	sbiw	r24, 0x00	; 0
    15e4:	11 f0       	breq	.+4      	; 0x15ea <_ZN11Interpreter7freeRAMEv+0x1e>
    15e6:	20 e0       	ldi	r18, 0x00	; 0
    15e8:	30 e0       	ldi	r19, 0x00	; 0
    15ea:	ae 01       	movw	r20, r28
    15ec:	4f 5f       	subi	r20, 0xFF	; 255
    15ee:	5f 4f       	sbci	r21, 0xFF	; 255
    15f0:	42 17       	cp	r20, r18
    15f2:	53 07       	cpc	r21, r19
    15f4:	11 f0       	breq	.+4      	; 0x15fa <_ZN11Interpreter7freeRAMEv+0x2e>
    15f6:	88 e8       	ldi	r24, 0x88	; 136
    15f8:	92 e0       	ldi	r25, 0x02	; 2
    15fa:	0f 90       	pop	r0
    15fc:	0f 90       	pop	r0
    15fe:	df 91       	pop	r29
    1600:	cf 91       	pop	r28
    1602:	08 95       	ret

00001604 <_ZN11Interpreter13function_callEv>:
    1604:	af 92       	push	r10
    1606:	bf 92       	push	r11
    1608:	cf 92       	push	r12
    160a:	df 92       	push	r13
    160c:	ef 92       	push	r14
    160e:	ff 92       	push	r15
    1610:	0f 93       	push	r16
    1612:	1f 93       	push	r17
    1614:	cf 93       	push	r28
    1616:	df 93       	push	r29
    1618:	cd b7       	in	r28, 0x3d	; 61
    161a:	de b7       	in	r29, 0x3e	; 62
    161c:	c8 57       	subi	r28, 0x78	; 120
    161e:	d1 09       	sbc	r29, r1
    1620:	0f b6       	in	r0, 0x3f	; 63
    1622:	f8 94       	cli
    1624:	de bf       	out	0x3e, r29	; 62
    1626:	0f be       	out	0x3f, r0	; 63
    1628:	cd bf       	out	0x3d, r28	; 61
    162a:	6c 01       	movw	r12, r24
    162c:	8b 01       	movw	r16, r22
    162e:	ad b6       	in	r10, 0x3d	; 61
    1630:	be b6       	in	r11, 0x3e	; 62
    1632:	fb 01       	movw	r30, r22
    1634:	e8 5b       	subi	r30, 0xB8	; 184
    1636:	fe 4f       	sbci	r31, 0xFE	; 254
    1638:	e0 80       	ld	r14, Z
    163a:	f1 80       	ldd	r15, Z+1	; 0x01
    163c:	6d e2       	ldi	r22, 0x2D	; 45
    163e:	c8 01       	movw	r24, r16
    1640:	0e 94 56 09 	call	0x12ac	; 0x12ac <_ZN11Interpreter3eatE9TokenType>
    1644:	60 e2       	ldi	r22, 0x20	; 32
    1646:	c8 01       	movw	r24, r16
    1648:	0e 94 56 09 	call	0x12ac	; 0x12ac <_ZN11Interpreter3eatE9TokenType>
    164c:	21 e0       	ldi	r18, 0x01	; 1
    164e:	e2 16       	cp	r14, r18
    1650:	f1 04       	cpc	r15, r1
    1652:	f9 f4       	brne	.+62     	; 0x1692 <_ZN11Interpreter13function_callEv+0x8e>
    1654:	b8 01       	movw	r22, r16
    1656:	ce 01       	movw	r24, r28
    1658:	01 96       	adiw	r24, 0x01	; 1
    165a:	0e 94 0f 10 	call	0x201e	; 0x201e <_ZN11Interpreter4exprEv>
    165e:	61 e2       	ldi	r22, 0x21	; 33
    1660:	c8 01       	movw	r24, r16
    1662:	0e 94 56 09 	call	0x12ac	; 0x12ac <_ZN11Interpreter3eatE9TokenType>
    1666:	ce 01       	movw	r24, r28
    1668:	01 96       	adiw	r24, 0x01	; 1
    166a:	0e 94 cd 22 	call	0x459a	; 0x459a <_ZN5Value8ToStringEv>
    166e:	0e 94 bf 01 	call	0x37e	; 0x37e <_Z10lcd_printfPKc>
    1672:	f8 01       	movw	r30, r16
    1674:	80 81       	ld	r24, Z
    1676:	88 23       	and	r24, r24
    1678:	09 f4       	brne	.+2      	; 0x167c <_ZN11Interpreter13function_callEv+0x78>
    167a:	a3 c2       	rjmp	.+1350   	; 0x1bc2 <_ZN11Interpreter13function_callEv+0x5be>
    167c:	ce 01       	movw	r24, r28
    167e:	01 96       	adiw	r24, 0x01	; 1
    1680:	0e 94 cd 22 	call	0x459a	; 0x459a <_ZN5Value8ToStringEv>
    1684:	0e 94 33 16 	call	0x2c66	; 0x2c66 <_Z11send_stringPc>
    1688:	8d ee       	ldi	r24, 0xED	; 237
    168a:	91 e0       	ldi	r25, 0x01	; 1
    168c:	0e 94 33 16 	call	0x2c66	; 0x2c66 <_Z11send_stringPc>
    1690:	98 c2       	rjmp	.+1328   	; 0x1bc2 <_ZN11Interpreter13function_callEv+0x5be>
    1692:	f4 e0       	ldi	r31, 0x04	; 4
    1694:	ef 16       	cp	r14, r31
    1696:	f1 04       	cpc	r15, r1
    1698:	49 f4       	brne	.+18     	; 0x16ac <_ZN11Interpreter13function_callEv+0xa8>
    169a:	61 e2       	ldi	r22, 0x21	; 33
    169c:	c8 01       	movw	r24, r16
    169e:	0e 94 56 09 	call	0x12ac	; 0x12ac <_ZN11Interpreter3eatE9TokenType>
    16a2:	c8 01       	movw	r24, r16
    16a4:	0e 94 e6 0a 	call	0x15cc	; 0x15cc <_ZN11Interpreter7freeRAMEv>
    16a8:	bc 01       	movw	r22, r24
    16aa:	87 c2       	rjmp	.+1294   	; 0x1bba <_ZN11Interpreter13function_callEv+0x5b6>
    16ac:	25 e0       	ldi	r18, 0x05	; 5
    16ae:	e2 16       	cp	r14, r18
    16b0:	f1 04       	cpc	r15, r1
    16b2:	69 f4       	brne	.+26     	; 0x16ce <_ZN11Interpreter13function_callEv+0xca>
    16b4:	61 e2       	ldi	r22, 0x21	; 33
    16b6:	c8 01       	movw	r24, r16
    16b8:	0e 94 56 09 	call	0x12ac	; 0x12ac <_ZN11Interpreter3eatE9TokenType>
    16bc:	9b e0       	ldi	r25, 0x0B	; 11
    16be:	88 e1       	ldi	r24, 0x18	; 24
    16c0:	0f b6       	in	r0, 0x3f	; 63
    16c2:	f8 94       	cli
    16c4:	a8 95       	wdr
    16c6:	81 bd       	out	0x21, r24	; 33
    16c8:	0f be       	out	0x3f, r0	; 63
    16ca:	91 bd       	out	0x21, r25	; 33
    16cc:	ff cf       	rjmp	.-2      	; 0x16cc <_ZN11Interpreter13function_callEv+0xc8>
    16ce:	33 e0       	ldi	r19, 0x03	; 3
    16d0:	e3 16       	cp	r14, r19
    16d2:	f1 04       	cpc	r15, r1
    16d4:	51 f4       	brne	.+20     	; 0x16ea <_ZN11Interpreter13function_callEv+0xe6>
    16d6:	b8 01       	movw	r22, r16
    16d8:	ce 01       	movw	r24, r28
    16da:	01 96       	adiw	r24, 0x01	; 1
    16dc:	0e 94 0f 10 	call	0x201e	; 0x201e <_ZN11Interpreter4exprEv>
    16e0:	6d a1       	ldd	r22, Y+37	; 0x25
    16e2:	7e a1       	ldd	r23, Y+38	; 0x26
    16e4:	61 50       	subi	r22, 0x01	; 1
    16e6:	71 09       	sbc	r23, r1
    16e8:	78 c0       	rjmp	.+240    	; 0x17da <_ZN11Interpreter13function_callEv+0x1d6>
    16ea:	86 e0       	ldi	r24, 0x06	; 6
    16ec:	e8 16       	cp	r14, r24
    16ee:	f1 04       	cpc	r15, r1
    16f0:	79 f4       	brne	.+30     	; 0x1710 <_ZN11Interpreter13function_callEv+0x10c>
    16f2:	b8 01       	movw	r22, r16
    16f4:	ce 01       	movw	r24, r28
    16f6:	01 96       	adiw	r24, 0x01	; 1
    16f8:	0e 94 0f 10 	call	0x201e	; 0x201e <_ZN11Interpreter4exprEv>
    16fc:	61 e2       	ldi	r22, 0x21	; 33
    16fe:	c8 01       	movw	r24, r16
    1700:	0e 94 56 09 	call	0x12ac	; 0x12ac <_ZN11Interpreter3eatE9TokenType>
    1704:	6d 81       	ldd	r22, Y+5	; 0x05
    1706:	7e 81       	ldd	r23, Y+6	; 0x06
    1708:	c8 01       	movw	r24, r16
    170a:	0e 94 55 0a 	call	0x14aa	; 0x14aa <_ZN11Interpreter7delayMsEi>
    170e:	59 c2       	rjmp	.+1202   	; 0x1bc2 <_ZN11Interpreter13function_callEv+0x5be>
    1710:	9e e1       	ldi	r25, 0x1E	; 30
    1712:	e9 16       	cp	r14, r25
    1714:	f1 04       	cpc	r15, r1
    1716:	09 f0       	breq	.+2      	; 0x171a <_ZN11Interpreter13function_callEv+0x116>
    1718:	45 c0       	rjmp	.+138    	; 0x17a4 <_ZN11Interpreter13function_callEv+0x1a0>
    171a:	b8 01       	movw	r22, r16
    171c:	ce 01       	movw	r24, r28
    171e:	8f 5a       	subi	r24, 0xAF	; 175
    1720:	9f 4f       	sbci	r25, 0xFF	; 255
    1722:	0e 94 0f 10 	call	0x201e	; 0x201e <_ZN11Interpreter4exprEv>
    1726:	6a e1       	ldi	r22, 0x1A	; 26
    1728:	c8 01       	movw	r24, r16
    172a:	0e 94 56 09 	call	0x12ac	; 0x12ac <_ZN11Interpreter3eatE9TokenType>
    172e:	b8 01       	movw	r22, r16
    1730:	ce 01       	movw	r24, r28
    1732:	89 96       	adiw	r24, 0x29	; 41
    1734:	0e 94 0f 10 	call	0x201e	; 0x201e <_ZN11Interpreter4exprEv>
    1738:	6a e1       	ldi	r22, 0x1A	; 26
    173a:	c8 01       	movw	r24, r16
    173c:	0e 94 56 09 	call	0x12ac	; 0x12ac <_ZN11Interpreter3eatE9TokenType>
    1740:	b8 01       	movw	r22, r16
    1742:	ce 01       	movw	r24, r28
    1744:	01 96       	adiw	r24, 0x01	; 1
    1746:	0e 94 0f 10 	call	0x201e	; 0x201e <_ZN11Interpreter4exprEv>
    174a:	ed 80       	ldd	r14, Y+5	; 0x05
    174c:	fe 80       	ldd	r15, Y+6	; 0x06
    174e:	61 e2       	ldi	r22, 0x21	; 33
    1750:	c8 01       	movw	r24, r16
    1752:	0e 94 56 09 	call	0x12ac	; 0x12ac <_ZN11Interpreter3eatE9TokenType>
    1756:	c7 01       	movw	r24, r14
    1758:	01 96       	adiw	r24, 0x01	; 1
    175a:	ed b7       	in	r30, 0x3d	; 61
    175c:	fe b7       	in	r31, 0x3e	; 62
    175e:	e8 1b       	sub	r30, r24
    1760:	f9 0b       	sbc	r31, r25
    1762:	0f b6       	in	r0, 0x3f	; 63
    1764:	f8 94       	cli
    1766:	fe bf       	out	0x3e, r31	; 62
    1768:	0f be       	out	0x3f, r0	; 63
    176a:	ed bf       	out	0x3d, r30	; 61
    176c:	0d b7       	in	r16, 0x3d	; 61
    176e:	1e b7       	in	r17, 0x3e	; 62
    1770:	0f 5f       	subi	r16, 0xFF	; 255
    1772:	1f 4f       	sbci	r17, 0xFF	; 255
    1774:	ce 01       	movw	r24, r28
    1776:	8f 5a       	subi	r24, 0xAF	; 175
    1778:	9f 4f       	sbci	r25, 0xFF	; 255
    177a:	0e 94 cd 22 	call	0x459a	; 0x459a <_ZN5Value8ToStringEv>
    177e:	a7 01       	movw	r20, r14
    1780:	bc 01       	movw	r22, r24
    1782:	c8 01       	movw	r24, r16
    1784:	0e 94 e9 2c 	call	0x59d2	; 0x59d2 <memcpy>
    1788:	f8 01       	movw	r30, r16
    178a:	ee 0d       	add	r30, r14
    178c:	ff 1d       	adc	r31, r15
    178e:	10 82       	st	Z, r1
    1790:	b8 01       	movw	r22, r16
    1792:	c6 01       	movw	r24, r12
    1794:	0e 94 1c 17 	call	0x2e38	; 0x2e38 <_ZN5ValueC1EPKc>
    1798:	0f b6       	in	r0, 0x3f	; 63
    179a:	f8 94       	cli
    179c:	be be       	out	0x3e, r11	; 62
    179e:	0f be       	out	0x3f, r0	; 63
    17a0:	ad be       	out	0x3d, r10	; 61
    17a2:	17 c2       	rjmp	.+1070   	; 0x1bd2 <_ZN11Interpreter13function_callEv+0x5ce>
    17a4:	f2 e0       	ldi	r31, 0x02	; 2
    17a6:	ef 16       	cp	r14, r31
    17a8:	f1 04       	cpc	r15, r1
    17aa:	19 f5       	brne	.+70     	; 0x17f2 <_ZN11Interpreter13function_callEv+0x1ee>
    17ac:	c8 01       	movw	r24, r16
    17ae:	8c 5b       	subi	r24, 0xBC	; 188
    17b0:	9e 4f       	sbci	r25, 0xFE	; 254
    17b2:	0e 94 cd 22 	call	0x459a	; 0x459a <_ZN5Value8ToStringEv>
    17b6:	ac 01       	movw	r20, r24
    17b8:	b8 01       	movw	r22, r16
    17ba:	ce 01       	movw	r24, r28
    17bc:	01 96       	adiw	r24, 0x01	; 1
    17be:	0e 94 8f 09 	call	0x131e	; 0x131e <_ZN11Interpreter10lookup_varEPKc>
    17c2:	ce 01       	movw	r24, r28
    17c4:	01 96       	adiw	r24, 0x01	; 1
    17c6:	0e 94 cd 22 	call	0x459a	; 0x459a <_ZN5Value8ToStringEv>
    17ca:	fc 01       	movw	r30, r24
    17cc:	01 90       	ld	r0, Z+
    17ce:	00 20       	and	r0, r0
    17d0:	e9 f7       	brne	.-6      	; 0x17cc <_ZN11Interpreter13function_callEv+0x1c8>
    17d2:	31 97       	sbiw	r30, 0x01	; 1
    17d4:	bf 01       	movw	r22, r30
    17d6:	68 1b       	sub	r22, r24
    17d8:	79 0b       	sbc	r23, r25
    17da:	ce 01       	movw	r24, r28
    17dc:	89 96       	adiw	r24, 0x29	; 41
    17de:	0e 94 e4 16 	call	0x2dc8	; 0x2dc8 <_ZN5ValueC1Ei>
    17e2:	61 e2       	ldi	r22, 0x21	; 33
    17e4:	c8 01       	movw	r24, r16
    17e6:	0e 94 56 09 	call	0x12ac	; 0x12ac <_ZN11Interpreter3eatE9TokenType>
    17ea:	88 e2       	ldi	r24, 0x28	; 40
    17ec:	fe 01       	movw	r30, r28
    17ee:	b9 96       	adiw	r30, 0x29	; 41
    17f0:	eb c1       	rjmp	.+982    	; 0x1bc8 <_ZN11Interpreter13function_callEv+0x5c4>
    17f2:	27 e0       	ldi	r18, 0x07	; 7
    17f4:	e2 16       	cp	r14, r18
    17f6:	f1 04       	cpc	r15, r1
    17f8:	61 f4       	brne	.+24     	; 0x1812 <_ZN11Interpreter13function_callEv+0x20e>
    17fa:	b8 01       	movw	r22, r16
    17fc:	ce 01       	movw	r24, r28
    17fe:	01 96       	adiw	r24, 0x01	; 1
    1800:	0e 94 0f 10 	call	0x201e	; 0x201e <_ZN11Interpreter4exprEv>
    1804:	61 e2       	ldi	r22, 0x21	; 33
    1806:	c8 01       	movw	r24, r16
    1808:	0e 94 56 09 	call	0x12ac	; 0x12ac <_ZN11Interpreter3eatE9TokenType>
    180c:	8d 81       	ldd	r24, Y+5	; 0x05
    180e:	8a bb       	out	0x1a, r24	; 26
    1810:	d8 c1       	rjmp	.+944    	; 0x1bc2 <_ZN11Interpreter13function_callEv+0x5be>
    1812:	3b e0       	ldi	r19, 0x0B	; 11
    1814:	e3 16       	cp	r14, r19
    1816:	f1 04       	cpc	r15, r1
    1818:	61 f4       	brne	.+24     	; 0x1832 <_ZN11Interpreter13function_callEv+0x22e>
    181a:	b8 01       	movw	r22, r16
    181c:	ce 01       	movw	r24, r28
    181e:	01 96       	adiw	r24, 0x01	; 1
    1820:	0e 94 0f 10 	call	0x201e	; 0x201e <_ZN11Interpreter4exprEv>
    1824:	61 e2       	ldi	r22, 0x21	; 33
    1826:	c8 01       	movw	r24, r16
    1828:	0e 94 56 09 	call	0x12ac	; 0x12ac <_ZN11Interpreter3eatE9TokenType>
    182c:	8d 81       	ldd	r24, Y+5	; 0x05
    182e:	8b bb       	out	0x1b, r24	; 27
    1830:	c8 c1       	rjmp	.+912    	; 0x1bc2 <_ZN11Interpreter13function_callEv+0x5be>
    1832:	8f e0       	ldi	r24, 0x0F	; 15
    1834:	e8 16       	cp	r14, r24
    1836:	f1 04       	cpc	r15, r1
    1838:	31 f4       	brne	.+12     	; 0x1846 <_ZN11Interpreter13function_callEv+0x242>
    183a:	61 e2       	ldi	r22, 0x21	; 33
    183c:	c8 01       	movw	r24, r16
    183e:	0e 94 56 09 	call	0x12ac	; 0x12ac <_ZN11Interpreter3eatE9TokenType>
    1842:	69 b3       	in	r22, 0x19	; 25
    1844:	7d c0       	rjmp	.+250    	; 0x1940 <_ZN11Interpreter13function_callEv+0x33c>
    1846:	98 e0       	ldi	r25, 0x08	; 8
    1848:	e9 16       	cp	r14, r25
    184a:	f1 04       	cpc	r15, r1
    184c:	61 f4       	brne	.+24     	; 0x1866 <_ZN11Interpreter13function_callEv+0x262>
    184e:	b8 01       	movw	r22, r16
    1850:	ce 01       	movw	r24, r28
    1852:	01 96       	adiw	r24, 0x01	; 1
    1854:	0e 94 0f 10 	call	0x201e	; 0x201e <_ZN11Interpreter4exprEv>
    1858:	61 e2       	ldi	r22, 0x21	; 33
    185a:	c8 01       	movw	r24, r16
    185c:	0e 94 56 09 	call	0x12ac	; 0x12ac <_ZN11Interpreter3eatE9TokenType>
    1860:	8d 81       	ldd	r24, Y+5	; 0x05
    1862:	87 bb       	out	0x17, r24	; 23
    1864:	ae c1       	rjmp	.+860    	; 0x1bc2 <_ZN11Interpreter13function_callEv+0x5be>
    1866:	e9 e0       	ldi	r30, 0x09	; 9
    1868:	ee 16       	cp	r14, r30
    186a:	f1 04       	cpc	r15, r1
    186c:	61 f4       	brne	.+24     	; 0x1886 <_ZN11Interpreter13function_callEv+0x282>
    186e:	b8 01       	movw	r22, r16
    1870:	ce 01       	movw	r24, r28
    1872:	01 96       	adiw	r24, 0x01	; 1
    1874:	0e 94 0f 10 	call	0x201e	; 0x201e <_ZN11Interpreter4exprEv>
    1878:	61 e2       	ldi	r22, 0x21	; 33
    187a:	c8 01       	movw	r24, r16
    187c:	0e 94 56 09 	call	0x12ac	; 0x12ac <_ZN11Interpreter3eatE9TokenType>
    1880:	8d 81       	ldd	r24, Y+5	; 0x05
    1882:	84 bb       	out	0x14, r24	; 20
    1884:	9e c1       	rjmp	.+828    	; 0x1bc2 <_ZN11Interpreter13function_callEv+0x5be>
    1886:	fa e0       	ldi	r31, 0x0A	; 10
    1888:	ef 16       	cp	r14, r31
    188a:	f1 04       	cpc	r15, r1
    188c:	61 f4       	brne	.+24     	; 0x18a6 <_ZN11Interpreter13function_callEv+0x2a2>
    188e:	b8 01       	movw	r22, r16
    1890:	ce 01       	movw	r24, r28
    1892:	01 96       	adiw	r24, 0x01	; 1
    1894:	0e 94 0f 10 	call	0x201e	; 0x201e <_ZN11Interpreter4exprEv>
    1898:	61 e2       	ldi	r22, 0x21	; 33
    189a:	c8 01       	movw	r24, r16
    189c:	0e 94 56 09 	call	0x12ac	; 0x12ac <_ZN11Interpreter3eatE9TokenType>
    18a0:	8d 81       	ldd	r24, Y+5	; 0x05
    18a2:	81 bb       	out	0x11, r24	; 17
    18a4:	8e c1       	rjmp	.+796    	; 0x1bc2 <_ZN11Interpreter13function_callEv+0x5be>
    18a6:	2c e0       	ldi	r18, 0x0C	; 12
    18a8:	e2 16       	cp	r14, r18
    18aa:	f1 04       	cpc	r15, r1
    18ac:	61 f4       	brne	.+24     	; 0x18c6 <_ZN11Interpreter13function_callEv+0x2c2>
    18ae:	b8 01       	movw	r22, r16
    18b0:	ce 01       	movw	r24, r28
    18b2:	01 96       	adiw	r24, 0x01	; 1
    18b4:	0e 94 0f 10 	call	0x201e	; 0x201e <_ZN11Interpreter4exprEv>
    18b8:	61 e2       	ldi	r22, 0x21	; 33
    18ba:	c8 01       	movw	r24, r16
    18bc:	0e 94 56 09 	call	0x12ac	; 0x12ac <_ZN11Interpreter3eatE9TokenType>
    18c0:	8d 81       	ldd	r24, Y+5	; 0x05
    18c2:	88 bb       	out	0x18, r24	; 24
    18c4:	7e c1       	rjmp	.+764    	; 0x1bc2 <_ZN11Interpreter13function_callEv+0x5be>
    18c6:	3d e0       	ldi	r19, 0x0D	; 13
    18c8:	e3 16       	cp	r14, r19
    18ca:	f1 04       	cpc	r15, r1
    18cc:	61 f4       	brne	.+24     	; 0x18e6 <_ZN11Interpreter13function_callEv+0x2e2>
    18ce:	b8 01       	movw	r22, r16
    18d0:	ce 01       	movw	r24, r28
    18d2:	01 96       	adiw	r24, 0x01	; 1
    18d4:	0e 94 0f 10 	call	0x201e	; 0x201e <_ZN11Interpreter4exprEv>
    18d8:	61 e2       	ldi	r22, 0x21	; 33
    18da:	c8 01       	movw	r24, r16
    18dc:	0e 94 56 09 	call	0x12ac	; 0x12ac <_ZN11Interpreter3eatE9TokenType>
    18e0:	8d 81       	ldd	r24, Y+5	; 0x05
    18e2:	85 bb       	out	0x15, r24	; 21
    18e4:	6e c1       	rjmp	.+732    	; 0x1bc2 <_ZN11Interpreter13function_callEv+0x5be>
    18e6:	8e e0       	ldi	r24, 0x0E	; 14
    18e8:	e8 16       	cp	r14, r24
    18ea:	f1 04       	cpc	r15, r1
    18ec:	61 f4       	brne	.+24     	; 0x1906 <_ZN11Interpreter13function_callEv+0x302>
    18ee:	b8 01       	movw	r22, r16
    18f0:	ce 01       	movw	r24, r28
    18f2:	01 96       	adiw	r24, 0x01	; 1
    18f4:	0e 94 0f 10 	call	0x201e	; 0x201e <_ZN11Interpreter4exprEv>
    18f8:	61 e2       	ldi	r22, 0x21	; 33
    18fa:	c8 01       	movw	r24, r16
    18fc:	0e 94 56 09 	call	0x12ac	; 0x12ac <_ZN11Interpreter3eatE9TokenType>
    1900:	8d 81       	ldd	r24, Y+5	; 0x05
    1902:	82 bb       	out	0x12, r24	; 18
    1904:	5e c1       	rjmp	.+700    	; 0x1bc2 <_ZN11Interpreter13function_callEv+0x5be>
    1906:	90 e1       	ldi	r25, 0x10	; 16
    1908:	e9 16       	cp	r14, r25
    190a:	f1 04       	cpc	r15, r1
    190c:	31 f4       	brne	.+12     	; 0x191a <_ZN11Interpreter13function_callEv+0x316>
    190e:	61 e2       	ldi	r22, 0x21	; 33
    1910:	c8 01       	movw	r24, r16
    1912:	0e 94 56 09 	call	0x12ac	; 0x12ac <_ZN11Interpreter3eatE9TokenType>
    1916:	66 b3       	in	r22, 0x16	; 22
    1918:	13 c0       	rjmp	.+38     	; 0x1940 <_ZN11Interpreter13function_callEv+0x33c>
    191a:	e1 e1       	ldi	r30, 0x11	; 17
    191c:	ee 16       	cp	r14, r30
    191e:	f1 04       	cpc	r15, r1
    1920:	31 f4       	brne	.+12     	; 0x192e <_ZN11Interpreter13function_callEv+0x32a>
    1922:	61 e2       	ldi	r22, 0x21	; 33
    1924:	c8 01       	movw	r24, r16
    1926:	0e 94 56 09 	call	0x12ac	; 0x12ac <_ZN11Interpreter3eatE9TokenType>
    192a:	63 b3       	in	r22, 0x13	; 19
    192c:	09 c0       	rjmp	.+18     	; 0x1940 <_ZN11Interpreter13function_callEv+0x33c>
    192e:	f2 e1       	ldi	r31, 0x12	; 18
    1930:	ef 16       	cp	r14, r31
    1932:	f1 04       	cpc	r15, r1
    1934:	39 f4       	brne	.+14     	; 0x1944 <_ZN11Interpreter13function_callEv+0x340>
    1936:	61 e2       	ldi	r22, 0x21	; 33
    1938:	c8 01       	movw	r24, r16
    193a:	0e 94 56 09 	call	0x12ac	; 0x12ac <_ZN11Interpreter3eatE9TokenType>
    193e:	60 b3       	in	r22, 0x10	; 16
    1940:	70 e0       	ldi	r23, 0x00	; 0
    1942:	3b c1       	rjmp	.+630    	; 0x1bba <_ZN11Interpreter13function_callEv+0x5b6>
    1944:	2a e1       	ldi	r18, 0x1A	; 26
    1946:	e2 16       	cp	r14, r18
    1948:	f1 04       	cpc	r15, r1
    194a:	49 f4       	brne	.+18     	; 0x195e <_ZN11Interpreter13function_callEv+0x35a>
    194c:	61 e2       	ldi	r22, 0x21	; 33
    194e:	c8 01       	movw	r24, r16
    1950:	0e 94 56 09 	call	0x12ac	; 0x12ac <_ZN11Interpreter3eatE9TokenType>
    1954:	80 e4       	ldi	r24, 0x40	; 64
    1956:	87 b9       	out	0x07, r24	; 7
    1958:	87 e8       	ldi	r24, 0x87	; 135
    195a:	86 b9       	out	0x06, r24	; 6
    195c:	2c c1       	rjmp	.+600    	; 0x1bb6 <_ZN11Interpreter13function_callEv+0x5b2>
    195e:	3c e1       	ldi	r19, 0x1C	; 28
    1960:	e3 16       	cp	r14, r19
    1962:	f1 04       	cpc	r15, r1
    1964:	c1 f4       	brne	.+48     	; 0x1996 <_ZN11Interpreter13function_callEv+0x392>
    1966:	b8 01       	movw	r22, r16
    1968:	ce 01       	movw	r24, r28
    196a:	01 96       	adiw	r24, 0x01	; 1
    196c:	0e 94 0f 10 	call	0x201e	; 0x201e <_ZN11Interpreter4exprEv>
    1970:	8d 81       	ldd	r24, Y+5	; 0x05
    1972:	9e 81       	ldd	r25, Y+6	; 0x06
    1974:	18 16       	cp	r1, r24
    1976:	19 06       	cpc	r1, r25
    1978:	14 f0       	brlt	.+4      	; 0x197e <_ZN11Interpreter13function_callEv+0x37a>
    197a:	95 98       	cbi	0x12, 5	; 18
    197c:	0d c1       	rjmp	.+538    	; 0x1b98 <_ZN11Interpreter13function_callEv+0x594>
    197e:	8f 3f       	cpi	r24, 0xFF	; 255
    1980:	91 05       	cpc	r25, r1
    1982:	14 f0       	brlt	.+4      	; 0x1988 <_ZN11Interpreter13function_callEv+0x384>
    1984:	95 9a       	sbi	0x12, 5	; 18
    1986:	08 c1       	rjmp	.+528    	; 0x1b98 <_ZN11Interpreter13function_callEv+0x594>
    1988:	91 e8       	ldi	r25, 0x81	; 129
    198a:	9f bd       	out	0x2f, r25	; 47
    198c:	9b e0       	ldi	r25, 0x0B	; 11
    198e:	9e bd       	out	0x2e, r25	; 46
    1990:	1b bc       	out	0x2b, r1	; 43
    1992:	8a bd       	out	0x2a, r24	; 42
    1994:	01 c1       	rjmp	.+514    	; 0x1b98 <_ZN11Interpreter13function_callEv+0x594>
    1996:	8d e1       	ldi	r24, 0x1D	; 29
    1998:	e8 16       	cp	r14, r24
    199a:	f1 04       	cpc	r15, r1
    199c:	c1 f4       	brne	.+48     	; 0x19ce <_ZN11Interpreter13function_callEv+0x3ca>
    199e:	b8 01       	movw	r22, r16
    19a0:	ce 01       	movw	r24, r28
    19a2:	01 96       	adiw	r24, 0x01	; 1
    19a4:	0e 94 0f 10 	call	0x201e	; 0x201e <_ZN11Interpreter4exprEv>
    19a8:	8d 81       	ldd	r24, Y+5	; 0x05
    19aa:	9e 81       	ldd	r25, Y+6	; 0x06
    19ac:	18 16       	cp	r1, r24
    19ae:	19 06       	cpc	r1, r25
    19b0:	14 f0       	brlt	.+4      	; 0x19b6 <_ZN11Interpreter13function_callEv+0x3b2>
    19b2:	94 98       	cbi	0x12, 4	; 18
    19b4:	f1 c0       	rjmp	.+482    	; 0x1b98 <_ZN11Interpreter13function_callEv+0x594>
    19b6:	8f 3f       	cpi	r24, 0xFF	; 255
    19b8:	91 05       	cpc	r25, r1
    19ba:	14 f0       	brlt	.+4      	; 0x19c0 <_ZN11Interpreter13function_callEv+0x3bc>
    19bc:	94 9a       	sbi	0x12, 4	; 18
    19be:	ec c0       	rjmp	.+472    	; 0x1b98 <_ZN11Interpreter13function_callEv+0x594>
    19c0:	91 e2       	ldi	r25, 0x21	; 33
    19c2:	9f bd       	out	0x2f, r25	; 47
    19c4:	9b e0       	ldi	r25, 0x0B	; 11
    19c6:	9e bd       	out	0x2e, r25	; 46
    19c8:	19 bc       	out	0x29, r1	; 41
    19ca:	88 bd       	out	0x28, r24	; 40
    19cc:	e5 c0       	rjmp	.+458    	; 0x1b98 <_ZN11Interpreter13function_callEv+0x594>
    19ce:	9b e1       	ldi	r25, 0x1B	; 27
    19d0:	e9 16       	cp	r14, r25
    19d2:	f1 04       	cpc	r15, r1
    19d4:	79 f5       	brne	.+94     	; 0x1a34 <_ZN11Interpreter13function_callEv+0x430>
    19d6:	b8 01       	movw	r22, r16
    19d8:	ce 01       	movw	r24, r28
    19da:	89 96       	adiw	r24, 0x29	; 41
    19dc:	0e 94 0f 10 	call	0x201e	; 0x201e <_ZN11Interpreter4exprEv>
    19e0:	61 e2       	ldi	r22, 0x21	; 33
    19e2:	c8 01       	movw	r24, r16
    19e4:	0e 94 56 09 	call	0x12ac	; 0x12ac <_ZN11Interpreter3eatE9TokenType>
    19e8:	8d a5       	ldd	r24, Y+45	; 0x2d
    19ea:	80 64       	ori	r24, 0x40	; 64
    19ec:	87 b9       	out	0x07, r24	; 7
    19ee:	e6 e6       	ldi	r30, 0x66	; 102
    19f0:	fe e0       	ldi	r31, 0x0E	; 14
    19f2:	31 97       	sbiw	r30, 0x01	; 1
    19f4:	f1 f7       	brne	.-4      	; 0x19f2 <_ZN11Interpreter13function_callEv+0x3ee>
    19f6:	00 00       	nop
    19f8:	36 9a       	sbi	0x06, 6	; 6
    19fa:	36 99       	sbic	0x06, 6	; 6
    19fc:	fe cf       	rjmp	.-4      	; 0x19fa <_ZN11Interpreter13function_callEv+0x3f6>
    19fe:	64 b1       	in	r22, 0x04	; 4
    1a00:	75 b1       	in	r23, 0x05	; 5
    1a02:	07 2e       	mov	r0, r23
    1a04:	00 0c       	add	r0, r0
    1a06:	88 0b       	sbc	r24, r24
    1a08:	99 0b       	sbc	r25, r25
    1a0a:	0e 94 86 24 	call	0x490c	; 0x490c <__floatsisf>
    1a0e:	20 e0       	ldi	r18, 0x00	; 0
    1a10:	30 ec       	ldi	r19, 0xC0	; 192
    1a12:	4f e7       	ldi	r20, 0x7F	; 127
    1a14:	54 e4       	ldi	r21, 0x44	; 68
    1a16:	0e 94 dc 23 	call	0x47b8	; 0x47b8 <__divsf3>
    1a1a:	20 e0       	ldi	r18, 0x00	; 0
    1a1c:	30 e0       	ldi	r19, 0x00	; 0
    1a1e:	40 ea       	ldi	r20, 0xA0	; 160
    1a20:	50 e4       	ldi	r21, 0x40	; 64
    1a22:	0e 94 3b 25 	call	0x4a76	; 0x4a76 <__mulsf3>
    1a26:	ab 01       	movw	r20, r22
    1a28:	bc 01       	movw	r22, r24
    1a2a:	ce 01       	movw	r24, r28
    1a2c:	01 96       	adiw	r24, 0x01	; 1
    1a2e:	0e 94 2c 17 	call	0x2e58	; 0x2e58 <_ZN5ValueC1Ed>
    1a32:	c7 c0       	rjmp	.+398    	; 0x1bc2 <_ZN11Interpreter13function_callEv+0x5be>
    1a34:	f3 e1       	ldi	r31, 0x13	; 19
    1a36:	ef 16       	cp	r14, r31
    1a38:	f1 04       	cpc	r15, r1
    1a3a:	81 f4       	brne	.+32     	; 0x1a5c <_ZN11Interpreter13function_callEv+0x458>
    1a3c:	b8 01       	movw	r22, r16
    1a3e:	ce 01       	movw	r24, r28
    1a40:	01 96       	adiw	r24, 0x01	; 1
    1a42:	0e 94 0f 10 	call	0x201e	; 0x201e <_ZN11Interpreter4exprEv>
    1a46:	61 e2       	ldi	r22, 0x21	; 33
    1a48:	c8 01       	movw	r24, r16
    1a4a:	0e 94 56 09 	call	0x12ac	; 0x12ac <_ZN11Interpreter3eatE9TokenType>
    1a4e:	ce 01       	movw	r24, r28
    1a50:	01 96       	adiw	r24, 0x01	; 1
    1a52:	0e 94 ab 22 	call	0x4556	; 0x4556 <_ZN5Value9ToBooleanEv>
    1a56:	0e 94 95 01 	call	0x32a	; 0x32a <_Z7InitLCDb>
    1a5a:	ad c0       	rjmp	.+346    	; 0x1bb6 <_ZN11Interpreter13function_callEv+0x5b2>
    1a5c:	24 e1       	ldi	r18, 0x14	; 20
    1a5e:	e2 16       	cp	r14, r18
    1a60:	f1 04       	cpc	r15, r1
    1a62:	c9 f4       	brne	.+50     	; 0x1a96 <_ZN11Interpreter13function_callEv+0x492>
    1a64:	b8 01       	movw	r22, r16
    1a66:	ce 01       	movw	r24, r28
    1a68:	89 96       	adiw	r24, 0x29	; 41
    1a6a:	0e 94 0f 10 	call	0x201e	; 0x201e <_ZN11Interpreter4exprEv>
    1a6e:	6a e1       	ldi	r22, 0x1A	; 26
    1a70:	c8 01       	movw	r24, r16
    1a72:	0e 94 56 09 	call	0x12ac	; 0x12ac <_ZN11Interpreter3eatE9TokenType>
    1a76:	b8 01       	movw	r22, r16
    1a78:	ce 01       	movw	r24, r28
    1a7a:	01 96       	adiw	r24, 0x01	; 1
    1a7c:	0e 94 0f 10 	call	0x201e	; 0x201e <_ZN11Interpreter4exprEv>
    1a80:	61 e2       	ldi	r22, 0x21	; 33
    1a82:	c8 01       	movw	r24, r16
    1a84:	0e 94 56 09 	call	0x12ac	; 0x12ac <_ZN11Interpreter3eatE9TokenType>
    1a88:	6d 81       	ldd	r22, Y+5	; 0x05
    1a8a:	7e 81       	ldd	r23, Y+6	; 0x06
    1a8c:	8d a5       	ldd	r24, Y+45	; 0x2d
    1a8e:	9e a5       	ldd	r25, Y+46	; 0x2e
    1a90:	0e 94 d0 01 	call	0x3a0	; 0x3a0 <_Z9SetLCD_XYii>
    1a94:	90 c0       	rjmp	.+288    	; 0x1bb6 <_ZN11Interpreter13function_callEv+0x5b2>
    1a96:	35 e1       	ldi	r19, 0x15	; 21
    1a98:	e3 16       	cp	r14, r19
    1a9a:	f1 04       	cpc	r15, r1
    1a9c:	39 f4       	brne	.+14     	; 0x1aac <_ZN11Interpreter13function_callEv+0x4a8>
    1a9e:	61 e2       	ldi	r22, 0x21	; 33
    1aa0:	c8 01       	movw	r24, r16
    1aa2:	0e 94 56 09 	call	0x12ac	; 0x12ac <_ZN11Interpreter3eatE9TokenType>
    1aa6:	0e 94 cc 01 	call	0x398	; 0x398 <_Z8ClearLCDv>
    1aaa:	85 c0       	rjmp	.+266    	; 0x1bb6 <_ZN11Interpreter13function_callEv+0x5b2>
    1aac:	86 e1       	ldi	r24, 0x16	; 22
    1aae:	e8 16       	cp	r14, r24
    1ab0:	f1 04       	cpc	r15, r1
    1ab2:	a1 f4       	brne	.+40     	; 0x1adc <_ZN11Interpreter13function_callEv+0x4d8>
    1ab4:	b8 01       	movw	r22, r16
    1ab6:	ce 01       	movw	r24, r28
    1ab8:	01 96       	adiw	r24, 0x01	; 1
    1aba:	0e 94 0f 10 	call	0x201e	; 0x201e <_ZN11Interpreter4exprEv>
    1abe:	61 e2       	ldi	r22, 0x21	; 33
    1ac0:	c8 01       	movw	r24, r16
    1ac2:	0e 94 56 09 	call	0x12ac	; 0x12ac <_ZN11Interpreter3eatE9TokenType>
    1ac6:	ce 01       	movw	r24, r28
    1ac8:	01 96       	adiw	r24, 0x01	; 1
    1aca:	0e 94 cd 22 	call	0x459a	; 0x459a <_ZN5Value8ToStringEv>
    1ace:	0e 94 33 16 	call	0x2c66	; 0x2c66 <_Z11send_stringPc>
    1ad2:	8d ee       	ldi	r24, 0xED	; 237
    1ad4:	91 e0       	ldi	r25, 0x01	; 1
    1ad6:	0e 94 33 16 	call	0x2c66	; 0x2c66 <_Z11send_stringPc>
    1ada:	6d c0       	rjmp	.+218    	; 0x1bb6 <_ZN11Interpreter13function_callEv+0x5b2>
    1adc:	97 e1       	ldi	r25, 0x17	; 23
    1ade:	e9 16       	cp	r14, r25
    1ae0:	f1 04       	cpc	r15, r1
    1ae2:	89 f4       	brne	.+34     	; 0x1b06 <_ZN11Interpreter13function_callEv+0x502>
    1ae4:	61 e2       	ldi	r22, 0x21	; 33
    1ae6:	c8 01       	movw	r24, r16
    1ae8:	0e 94 56 09 	call	0x12ac	; 0x12ac <_ZN11Interpreter3eatE9TokenType>
    1aec:	0f 5d       	subi	r16, 0xDF	; 223
    1aee:	1e 4f       	sbci	r17, 0xFE	; 254
    1af0:	69 e1       	ldi	r22, 0x19	; 25
    1af2:	70 e0       	ldi	r23, 0x00	; 0
    1af4:	c8 01       	movw	r24, r16
    1af6:	0e 94 3c 16 	call	0x2c78	; 0x2c78 <_Z10get_stringPcj>
    1afa:	b8 01       	movw	r22, r16
    1afc:	ce 01       	movw	r24, r28
    1afe:	01 96       	adiw	r24, 0x01	; 1
    1b00:	0e 94 1c 17 	call	0x2e38	; 0x2e38 <_ZN5ValueC1EPKc>
    1b04:	5e c0       	rjmp	.+188    	; 0x1bc2 <_ZN11Interpreter13function_callEv+0x5be>
    1b06:	e8 e1       	ldi	r30, 0x18	; 24
    1b08:	ee 16       	cp	r14, r30
    1b0a:	f1 04       	cpc	r15, r1
    1b0c:	69 f4       	brne	.+26     	; 0x1b28 <_ZN11Interpreter13function_callEv+0x524>
    1b0e:	b8 01       	movw	r22, r16
    1b10:	ce 01       	movw	r24, r28
    1b12:	89 96       	adiw	r24, 0x29	; 41
    1b14:	0e 94 0f 10 	call	0x201e	; 0x201e <_ZN11Interpreter4exprEv>
    1b18:	61 e2       	ldi	r22, 0x21	; 33
    1b1a:	c8 01       	movw	r24, r16
    1b1c:	0e 94 56 09 	call	0x12ac	; 0x12ac <_ZN11Interpreter3eatE9TokenType>
    1b20:	8d a5       	ldd	r24, Y+45	; 0x2d
    1b22:	0e 94 6a 16 	call	0x2cd4	; 0x2cd4 <_Z9send_bytec>
    1b26:	47 c0       	rjmp	.+142    	; 0x1bb6 <_ZN11Interpreter13function_callEv+0x5b2>
    1b28:	f9 e1       	ldi	r31, 0x19	; 25
    1b2a:	ef 16       	cp	r14, r31
    1b2c:	f1 04       	cpc	r15, r1
    1b2e:	61 f4       	brne	.+24     	; 0x1b48 <_ZN11Interpreter13function_callEv+0x544>
    1b30:	61 e2       	ldi	r22, 0x21	; 33
    1b32:	c8 01       	movw	r24, r16
    1b34:	0e 94 56 09 	call	0x12ac	; 0x12ac <_ZN11Interpreter3eatE9TokenType>
    1b38:	0e 94 55 16 	call	0x2caa	; 0x2caa <_Z8get_bytev>
    1b3c:	68 2f       	mov	r22, r24
    1b3e:	ce 01       	movw	r24, r28
    1b40:	01 96       	adiw	r24, 0x01	; 1
    1b42:	0e 94 ff 16 	call	0x2dfe	; 0x2dfe <_ZN5ValueC1Ec>
    1b46:	3d c0       	rjmp	.+122    	; 0x1bc2 <_ZN11Interpreter13function_callEv+0x5be>
    1b48:	20 e2       	ldi	r18, 0x20	; 32
    1b4a:	e2 16       	cp	r14, r18
    1b4c:	f1 04       	cpc	r15, r1
    1b4e:	81 f4       	brne	.+32     	; 0x1b70 <_ZN11Interpreter13function_callEv+0x56c>
    1b50:	61 e2       	ldi	r22, 0x21	; 33
    1b52:	c8 01       	movw	r24, r16
    1b54:	0e 94 56 09 	call	0x12ac	; 0x12ac <_ZN11Interpreter3eatE9TokenType>
    1b58:	0e 94 6e 16 	call	0x2cdc	; 0x2cdc <_Z10readRxlinev>
    1b5c:	00 97       	sbiw	r24, 0x00	; 0
    1b5e:	11 f0       	breq	.+4      	; 0x1b64 <_ZN11Interpreter13function_callEv+0x560>
    1b60:	bc 01       	movw	r22, r24
    1b62:	02 c0       	rjmp	.+4      	; 0x1b68 <_ZN11Interpreter13function_callEv+0x564>
    1b64:	6f ee       	ldi	r22, 0xEF	; 239
    1b66:	71 e0       	ldi	r23, 0x01	; 1
    1b68:	c6 01       	movw	r24, r12
    1b6a:	0e 94 1c 17 	call	0x2e38	; 0x2e38 <_ZN5ValueC1EPKc>
    1b6e:	31 c0       	rjmp	.+98     	; 0x1bd2 <_ZN11Interpreter13function_callEv+0x5ce>
    1b70:	31 e2       	ldi	r19, 0x21	; 33
    1b72:	e3 16       	cp	r14, r19
    1b74:	f1 04       	cpc	r15, r1
    1b76:	a9 f4       	brne	.+42     	; 0x1ba2 <_ZN11Interpreter13function_callEv+0x59e>
    1b78:	b8 01       	movw	r22, r16
    1b7a:	ce 01       	movw	r24, r28
    1b7c:	01 96       	adiw	r24, 0x01	; 1
    1b7e:	0e 94 0f 10 	call	0x201e	; 0x201e <_ZN11Interpreter4exprEv>
    1b82:	8d 81       	ldd	r24, Y+5	; 0x05
    1b84:	9e 81       	ldd	r25, Y+6	; 0x06
    1b86:	80 36       	cpi	r24, 0x60	; 96
    1b88:	99 40       	sbci	r25, 0x09	; 9
    1b8a:	21 f4       	brne	.+8      	; 0x1b94 <_ZN11Interpreter13function_callEv+0x590>
    1b8c:	81 e0       	ldi	r24, 0x01	; 1
    1b8e:	80 bd       	out	0x20, r24	; 32
    1b90:	8f e7       	ldi	r24, 0x7F	; 127
    1b92:	01 c0       	rjmp	.+2      	; 0x1b96 <_ZN11Interpreter13function_callEv+0x592>
    1b94:	8f e5       	ldi	r24, 0x5F	; 95
    1b96:	89 b9       	out	0x09, r24	; 9
    1b98:	61 e2       	ldi	r22, 0x21	; 33
    1b9a:	c8 01       	movw	r24, r16
    1b9c:	0e 94 56 09 	call	0x12ac	; 0x12ac <_ZN11Interpreter3eatE9TokenType>
    1ba0:	0a c0       	rjmp	.+20     	; 0x1bb6 <_ZN11Interpreter13function_callEv+0x5b2>
    1ba2:	ff e1       	ldi	r31, 0x1F	; 31
    1ba4:	ef 16       	cp	r14, r31
    1ba6:	f1 04       	cpc	r15, r1
    1ba8:	31 f4       	brne	.+12     	; 0x1bb6 <_ZN11Interpreter13function_callEv+0x5b2>
    1baa:	61 e2       	ldi	r22, 0x21	; 33
    1bac:	c8 01       	movw	r24, r16
    1bae:	0e 94 56 09 	call	0x12ac	; 0x12ac <_ZN11Interpreter3eatE9TokenType>
    1bb2:	57 9a       	sbi	0x0a, 7	; 10
    1bb4:	78 94       	sei
    1bb6:	60 e0       	ldi	r22, 0x00	; 0
    1bb8:	70 e0       	ldi	r23, 0x00	; 0
    1bba:	ce 01       	movw	r24, r28
    1bbc:	01 96       	adiw	r24, 0x01	; 1
    1bbe:	0e 94 e4 16 	call	0x2dc8	; 0x2dc8 <_ZN5ValueC1Ei>
    1bc2:	88 e2       	ldi	r24, 0x28	; 40
    1bc4:	fe 01       	movw	r30, r28
    1bc6:	31 96       	adiw	r30, 0x01	; 1
    1bc8:	d6 01       	movw	r26, r12
    1bca:	01 90       	ld	r0, Z+
    1bcc:	0d 92       	st	X+, r0
    1bce:	8a 95       	dec	r24
    1bd0:	e1 f7       	brne	.-8      	; 0x1bca <_ZN11Interpreter13function_callEv+0x5c6>
    1bd2:	c6 01       	movw	r24, r12
    1bd4:	0f b6       	in	r0, 0x3f	; 63
    1bd6:	f8 94       	cli
    1bd8:	be be       	out	0x3e, r11	; 62
    1bda:	0f be       	out	0x3f, r0	; 63
    1bdc:	ad be       	out	0x3d, r10	; 61
    1bde:	c8 58       	subi	r28, 0x88	; 136
    1be0:	df 4f       	sbci	r29, 0xFF	; 255
    1be2:	0f b6       	in	r0, 0x3f	; 63
    1be4:	f8 94       	cli
    1be6:	de bf       	out	0x3e, r29	; 62
    1be8:	0f be       	out	0x3f, r0	; 63
    1bea:	cd bf       	out	0x3d, r28	; 61
    1bec:	df 91       	pop	r29
    1bee:	cf 91       	pop	r28
    1bf0:	1f 91       	pop	r17
    1bf2:	0f 91       	pop	r16
    1bf4:	ff 90       	pop	r15
    1bf6:	ef 90       	pop	r14
    1bf8:	df 90       	pop	r13
    1bfa:	cf 90       	pop	r12
    1bfc:	bf 90       	pop	r11
    1bfe:	af 90       	pop	r10
    1c00:	08 95       	ret

00001c02 <_ZN11Interpreter6factorEv>:
    1c02:	cf 92       	push	r12
    1c04:	df 92       	push	r13
    1c06:	ef 92       	push	r14
    1c08:	ff 92       	push	r15
    1c0a:	0f 93       	push	r16
    1c0c:	1f 93       	push	r17
    1c0e:	cf 93       	push	r28
    1c10:	df 93       	push	r29
    1c12:	cd b7       	in	r28, 0x3d	; 61
    1c14:	de b7       	in	r29, 0x3e	; 62
    1c16:	c9 57       	subi	r28, 0x79	; 121
    1c18:	d1 09       	sbc	r29, r1
    1c1a:	0f b6       	in	r0, 0x3f	; 63
    1c1c:	f8 94       	cli
    1c1e:	de bf       	out	0x3e, r29	; 62
    1c20:	0f be       	out	0x3f, r0	; 63
    1c22:	cd bf       	out	0x3d, r28	; 61
    1c24:	7c 01       	movw	r14, r24
    1c26:	8b 01       	movw	r16, r22
    1c28:	6b 01       	movw	r12, r22
    1c2a:	8d eb       	ldi	r24, 0xBD	; 189
    1c2c:	c8 1a       	sub	r12, r24
    1c2e:	8e ef       	ldi	r24, 0xFE	; 254
    1c30:	d8 0a       	sbc	r13, r24
    1c32:	89 e2       	ldi	r24, 0x29	; 41
    1c34:	f6 01       	movw	r30, r12
    1c36:	de 01       	movw	r26, r28
    1c38:	11 96       	adiw	r26, 0x01	; 1
    1c3a:	01 90       	ld	r0, Z+
    1c3c:	0d 92       	st	X+, r0
    1c3e:	8a 95       	dec	r24
    1c40:	e1 f7       	brne	.-8      	; 0x1c3a <_ZN11Interpreter6factorEv+0x38>
    1c42:	89 81       	ldd	r24, Y+1	; 0x01
    1c44:	83 30       	cpi	r24, 0x03	; 3
    1c46:	81 f4       	brne	.+32     	; 0x1c68 <_ZN11Interpreter6factorEv+0x66>
    1c48:	63 e0       	ldi	r22, 0x03	; 3
    1c4a:	c8 01       	movw	r24, r16
    1c4c:	0e 94 56 09 	call	0x12ac	; 0x12ac <_ZN11Interpreter3eatE9TokenType>
    1c50:	b8 01       	movw	r22, r16
    1c52:	ce 01       	movw	r24, r28
    1c54:	8a 96       	adiw	r24, 0x2a	; 42
    1c56:	0e 94 01 0e 	call	0x1c02	; 0x1c02 <_ZN11Interpreter6factorEv>
    1c5a:	be 01       	movw	r22, r28
    1c5c:	66 5d       	subi	r22, 0xD6	; 214
    1c5e:	7f 4f       	sbci	r23, 0xFF	; 255
    1c60:	c7 01       	movw	r24, r14
    1c62:	0e 94 29 22 	call	0x4452	; 0x4452 <_ZpsRK5Value>
    1c66:	9b c0       	rjmp	.+310    	; 0x1d9e <_ZN11Interpreter6factorEv+0x19c>
    1c68:	81 30       	cpi	r24, 0x01	; 1
    1c6a:	81 f4       	brne	.+32     	; 0x1c8c <_ZN11Interpreter6factorEv+0x8a>
    1c6c:	61 e0       	ldi	r22, 0x01	; 1
    1c6e:	c8 01       	movw	r24, r16
    1c70:	0e 94 56 09 	call	0x12ac	; 0x12ac <_ZN11Interpreter3eatE9TokenType>
    1c74:	b8 01       	movw	r22, r16
    1c76:	ce 01       	movw	r24, r28
    1c78:	8a 96       	adiw	r24, 0x2a	; 42
    1c7a:	0e 94 01 0e 	call	0x1c02	; 0x1c02 <_ZN11Interpreter6factorEv>
    1c7e:	be 01       	movw	r22, r28
    1c80:	66 5d       	subi	r22, 0xD6	; 214
    1c82:	7f 4f       	sbci	r23, 0xFF	; 255
    1c84:	c7 01       	movw	r24, r14
    1c86:	0e 94 68 22 	call	0x44d0	; 0x44d0 <_ZngRK5Value>
    1c8a:	89 c0       	rjmp	.+274    	; 0x1d9e <_ZN11Interpreter6factorEv+0x19c>
    1c8c:	8e 30       	cpi	r24, 0x0E	; 14
    1c8e:	81 f4       	brne	.+32     	; 0x1cb0 <_ZN11Interpreter6factorEv+0xae>
    1c90:	6e e0       	ldi	r22, 0x0E	; 14
    1c92:	c8 01       	movw	r24, r16
    1c94:	0e 94 56 09 	call	0x12ac	; 0x12ac <_ZN11Interpreter3eatE9TokenType>
    1c98:	b8 01       	movw	r22, r16
    1c9a:	ce 01       	movw	r24, r28
    1c9c:	8a 96       	adiw	r24, 0x2a	; 42
    1c9e:	0e 94 01 0e 	call	0x1c02	; 0x1c02 <_ZN11Interpreter6factorEv>
    1ca2:	be 01       	movw	r22, r28
    1ca4:	66 5d       	subi	r22, 0xD6	; 214
    1ca6:	7f 4f       	sbci	r23, 0xFF	; 255
    1ca8:	c7 01       	movw	r24, r14
    1caa:	0e 94 d3 1d 	call	0x3ba6	; 0x3ba6 <_ZntRK5Value>
    1cae:	77 c0       	rjmp	.+238    	; 0x1d9e <_ZN11Interpreter6factorEv+0x19c>
    1cb0:	85 32       	cpi	r24, 0x25	; 37
    1cb2:	11 f4       	brne	.+4      	; 0x1cb8 <_ZN11Interpreter6factorEv+0xb6>
    1cb4:	65 e2       	ldi	r22, 0x25	; 37
    1cb6:	49 c0       	rjmp	.+146    	; 0x1d4a <_ZN11Interpreter6factorEv+0x148>
    1cb8:	84 32       	cpi	r24, 0x24	; 36
    1cba:	11 f4       	brne	.+4      	; 0x1cc0 <_ZN11Interpreter6factorEv+0xbe>
    1cbc:	64 e2       	ldi	r22, 0x24	; 36
    1cbe:	45 c0       	rjmp	.+138    	; 0x1d4a <_ZN11Interpreter6factorEv+0x148>
    1cc0:	8d 30       	cpi	r24, 0x0D	; 13
    1cc2:	b1 f5       	brne	.+108    	; 0x1d30 <_ZN11Interpreter6factorEv+0x12e>
    1cc4:	6d e0       	ldi	r22, 0x0D	; 13
    1cc6:	c8 01       	movw	r24, r16
    1cc8:	0e 94 56 09 	call	0x12ac	; 0x12ac <_ZN11Interpreter3eatE9TokenType>
    1ccc:	f6 01       	movw	r30, r12
    1cce:	80 81       	ld	r24, Z
    1cd0:	80 32       	cpi	r24, 0x20	; 32
    1cd2:	19 f5       	brne	.+70     	; 0x1d1a <_ZN11Interpreter6factorEv+0x118>
    1cd4:	60 e2       	ldi	r22, 0x20	; 32
    1cd6:	c8 01       	movw	r24, r16
    1cd8:	0e 94 56 09 	call	0x12ac	; 0x12ac <_ZN11Interpreter3eatE9TokenType>
    1cdc:	b8 01       	movw	r22, r16
    1cde:	ce 01       	movw	r24, r28
    1ce0:	8a 96       	adiw	r24, 0x2a	; 42
    1ce2:	0e 94 01 0e 	call	0x1c02	; 0x1c02 <_ZN11Interpreter6factorEv>
    1ce6:	ce a4       	ldd	r12, Y+46	; 0x2e
    1ce8:	df a4       	ldd	r13, Y+47	; 0x2f
    1cea:	61 e2       	ldi	r22, 0x21	; 33
    1cec:	c8 01       	movw	r24, r16
    1cee:	0e 94 56 09 	call	0x12ac	; 0x12ac <_ZN11Interpreter3eatE9TokenType>
    1cf2:	ce 01       	movw	r24, r28
    1cf4:	02 96       	adiw	r24, 0x02	; 2
    1cf6:	0e 94 cd 22 	call	0x459a	; 0x459a <_ZN5Value8ToStringEv>
    1cfa:	ac 01       	movw	r20, r24
    1cfc:	b8 01       	movw	r22, r16
    1cfe:	ce 01       	movw	r24, r28
    1d00:	8e 5a       	subi	r24, 0xAE	; 174
    1d02:	9f 4f       	sbci	r25, 0xFF	; 255
    1d04:	0e 94 8f 09 	call	0x131e	; 0x131e <_ZN11Interpreter10lookup_varEPKc>
    1d08:	a6 01       	movw	r20, r12
    1d0a:	be 01       	movw	r22, r28
    1d0c:	6e 5a       	subi	r22, 0xAE	; 174
    1d0e:	7f 4f       	sbci	r23, 0xFF	; 255
    1d10:	ce 01       	movw	r24, r28
    1d12:	8a 96       	adiw	r24, 0x2a	; 42
    1d14:	0e 94 14 23 	call	0x4628	; 0x4628 <_ZN5Value11index_arrayEi>
    1d18:	3a c0       	rjmp	.+116    	; 0x1d8e <_ZN11Interpreter6factorEv+0x18c>
    1d1a:	ce 01       	movw	r24, r28
    1d1c:	02 96       	adiw	r24, 0x02	; 2
    1d1e:	0e 94 cd 22 	call	0x459a	; 0x459a <_ZN5Value8ToStringEv>
    1d22:	ac 01       	movw	r20, r24
    1d24:	b8 01       	movw	r22, r16
    1d26:	ce 01       	movw	r24, r28
    1d28:	8a 96       	adiw	r24, 0x2a	; 42
    1d2a:	0e 94 8f 09 	call	0x131e	; 0x131e <_ZN11Interpreter10lookup_varEPKc>
    1d2e:	2f c0       	rjmp	.+94     	; 0x1d8e <_ZN11Interpreter6factorEv+0x18c>
    1d30:	8d 32       	cpi	r24, 0x2D	; 45
    1d32:	21 f4       	brne	.+8      	; 0x1d3c <_ZN11Interpreter6factorEv+0x13a>
    1d34:	c7 01       	movw	r24, r14
    1d36:	0e 94 02 0b 	call	0x1604	; 0x1604 <_ZN11Interpreter13function_callEv>
    1d3a:	31 c0       	rjmp	.+98     	; 0x1d9e <_ZN11Interpreter6factorEv+0x19c>
    1d3c:	83 32       	cpi	r24, 0x23	; 35
    1d3e:	11 f4       	brne	.+4      	; 0x1d44 <_ZN11Interpreter6factorEv+0x142>
    1d40:	63 e2       	ldi	r22, 0x23	; 35
    1d42:	03 c0       	rjmp	.+6      	; 0x1d4a <_ZN11Interpreter6factorEv+0x148>
    1d44:	8b 32       	cpi	r24, 0x2B	; 43
    1d46:	41 f4       	brne	.+16     	; 0x1d58 <_ZN11Interpreter6factorEv+0x156>
    1d48:	6b e2       	ldi	r22, 0x2B	; 43
    1d4a:	c8 01       	movw	r24, r16
    1d4c:	0e 94 56 09 	call	0x12ac	; 0x12ac <_ZN11Interpreter3eatE9TokenType>
    1d50:	88 e2       	ldi	r24, 0x28	; 40
    1d52:	fe 01       	movw	r30, r28
    1d54:	32 96       	adiw	r30, 0x02	; 2
    1d56:	1e c0       	rjmp	.+60     	; 0x1d94 <_ZN11Interpreter6factorEv+0x192>
    1d58:	80 32       	cpi	r24, 0x20	; 32
    1d5a:	71 f4       	brne	.+28     	; 0x1d78 <_ZN11Interpreter6factorEv+0x176>
    1d5c:	60 e2       	ldi	r22, 0x20	; 32
    1d5e:	c8 01       	movw	r24, r16
    1d60:	0e 94 56 09 	call	0x12ac	; 0x12ac <_ZN11Interpreter3eatE9TokenType>
    1d64:	b8 01       	movw	r22, r16
    1d66:	ce 01       	movw	r24, r28
    1d68:	8a 96       	adiw	r24, 0x2a	; 42
    1d6a:	0e 94 0f 10 	call	0x201e	; 0x201e <_ZN11Interpreter4exprEv>
    1d6e:	61 e2       	ldi	r22, 0x21	; 33
    1d70:	c8 01       	movw	r24, r16
    1d72:	0e 94 56 09 	call	0x12ac	; 0x12ac <_ZN11Interpreter3eatE9TokenType>
    1d76:	0b c0       	rjmp	.+22     	; 0x1d8e <_ZN11Interpreter6factorEv+0x18c>
    1d78:	60 ef       	ldi	r22, 0xF0	; 240
    1d7a:	71 e0       	ldi	r23, 0x01	; 1
    1d7c:	c8 01       	movw	r24, r16
    1d7e:	0e 94 15 02 	call	0x42a	; 0x42a <_ZN11Interpreter5errorEPKc>
    1d82:	60 e0       	ldi	r22, 0x00	; 0
    1d84:	70 e0       	ldi	r23, 0x00	; 0
    1d86:	ce 01       	movw	r24, r28
    1d88:	8a 96       	adiw	r24, 0x2a	; 42
    1d8a:	0e 94 e4 16 	call	0x2dc8	; 0x2dc8 <_ZN5ValueC1Ei>
    1d8e:	88 e2       	ldi	r24, 0x28	; 40
    1d90:	fe 01       	movw	r30, r28
    1d92:	ba 96       	adiw	r30, 0x2a	; 42
    1d94:	d7 01       	movw	r26, r14
    1d96:	01 90       	ld	r0, Z+
    1d98:	0d 92       	st	X+, r0
    1d9a:	8a 95       	dec	r24
    1d9c:	e1 f7       	brne	.-8      	; 0x1d96 <_ZN11Interpreter6factorEv+0x194>
    1d9e:	c7 01       	movw	r24, r14
    1da0:	c7 58       	subi	r28, 0x87	; 135
    1da2:	df 4f       	sbci	r29, 0xFF	; 255
    1da4:	0f b6       	in	r0, 0x3f	; 63
    1da6:	f8 94       	cli
    1da8:	de bf       	out	0x3e, r29	; 62
    1daa:	0f be       	out	0x3f, r0	; 63
    1dac:	cd bf       	out	0x3d, r28	; 61
    1dae:	df 91       	pop	r29
    1db0:	cf 91       	pop	r28
    1db2:	1f 91       	pop	r17
    1db4:	0f 91       	pop	r16
    1db6:	ff 90       	pop	r15
    1db8:	ef 90       	pop	r14
    1dba:	df 90       	pop	r13
    1dbc:	cf 90       	pop	r12
    1dbe:	08 95       	ret

00001dc0 <_ZN11Interpreter4termEv>:
    1dc0:	cf 92       	push	r12
    1dc2:	df 92       	push	r13
    1dc4:	ef 92       	push	r14
    1dc6:	ff 92       	push	r15
    1dc8:	0f 93       	push	r16
    1dca:	1f 93       	push	r17
    1dcc:	cf 93       	push	r28
    1dce:	df 93       	push	r29
    1dd0:	cd b7       	in	r28, 0x3d	; 61
    1dd2:	de b7       	in	r29, 0x3e	; 62
    1dd4:	c0 55       	subi	r28, 0x50	; 80
    1dd6:	d1 09       	sbc	r29, r1
    1dd8:	0f b6       	in	r0, 0x3f	; 63
    1dda:	f8 94       	cli
    1ddc:	de bf       	out	0x3e, r29	; 62
    1dde:	0f be       	out	0x3f, r0	; 63
    1de0:	cd bf       	out	0x3d, r28	; 61
    1de2:	8c 01       	movw	r16, r24
    1de4:	7b 01       	movw	r14, r22
    1de6:	0e 94 01 0e 	call	0x1c02	; 0x1c02 <_ZN11Interpreter6factorEv>
    1dea:	67 01       	movw	r12, r14
    1dec:	8d eb       	ldi	r24, 0xBD	; 189
    1dee:	c8 1a       	sub	r12, r24
    1df0:	8e ef       	ldi	r24, 0xFE	; 254
    1df2:	d8 0a       	sbc	r13, r24
    1df4:	f6 01       	movw	r30, r12
    1df6:	80 81       	ld	r24, Z
    1df8:	88 23       	and	r24, r24
    1dfa:	91 f1       	breq	.+100    	; 0x1e60 <_ZN11Interpreter4termEv+0xa0>
    1dfc:	84 30       	cpi	r24, 0x04	; 4
    1dfe:	09 f4       	brne	.+2      	; 0x1e02 <_ZN11Interpreter4termEv+0x42>
    1e00:	41 c0       	rjmp	.+130    	; 0x1e84 <_ZN11Interpreter4termEv+0xc4>
    1e02:	87 30       	cpi	r24, 0x07	; 7
    1e04:	09 f4       	brne	.+2      	; 0x1e08 <_ZN11Interpreter4termEv+0x48>
    1e06:	bc c0       	rjmp	.+376    	; 0x1f80 <_ZN11Interpreter4termEv+0x1c0>
    1e08:	88 30       	cpi	r24, 0x08	; 8
    1e0a:	09 f4       	brne	.+2      	; 0x1e0e <_ZN11Interpreter4termEv+0x4e>
    1e0c:	cb c0       	rjmp	.+406    	; 0x1fa4 <_ZN11Interpreter4termEv+0x1e4>
    1e0e:	89 30       	cpi	r24, 0x09	; 9
    1e10:	09 f4       	brne	.+2      	; 0x1e14 <_ZN11Interpreter4termEv+0x54>
    1e12:	da c0       	rjmp	.+436    	; 0x1fc8 <_ZN11Interpreter4termEv+0x208>
    1e14:	8f 30       	cpi	r24, 0x0F	; 15
    1e16:	09 f4       	brne	.+2      	; 0x1e1a <_ZN11Interpreter4termEv+0x5a>
    1e18:	8f c0       	rjmp	.+286    	; 0x1f38 <_ZN11Interpreter4termEv+0x178>
    1e1a:	82 31       	cpi	r24, 0x12	; 18
    1e1c:	09 f4       	brne	.+2      	; 0x1e20 <_ZN11Interpreter4termEv+0x60>
    1e1e:	9e c0       	rjmp	.+316    	; 0x1f5c <_ZN11Interpreter4termEv+0x19c>
    1e20:	80 31       	cpi	r24, 0x10	; 16
    1e22:	09 f4       	brne	.+2      	; 0x1e26 <_ZN11Interpreter4termEv+0x66>
    1e24:	65 c0       	rjmp	.+202    	; 0x1ef0 <_ZN11Interpreter4termEv+0x130>
    1e26:	81 31       	cpi	r24, 0x11	; 17
    1e28:	09 f4       	brne	.+2      	; 0x1e2c <_ZN11Interpreter4termEv+0x6c>
    1e2a:	74 c0       	rjmp	.+232    	; 0x1f14 <_ZN11Interpreter4termEv+0x154>
    1e2c:	82 30       	cpi	r24, 0x02	; 2
    1e2e:	e1 f1       	breq	.+120    	; 0x1ea8 <_ZN11Interpreter4termEv+0xe8>
    1e30:	84 31       	cpi	r24, 0x14	; 20
    1e32:	09 f4       	brne	.+2      	; 0x1e36 <_ZN11Interpreter4termEv+0x76>
    1e34:	4b c0       	rjmp	.+150    	; 0x1ecc <_ZN11Interpreter4termEv+0x10c>
    1e36:	83 31       	cpi	r24, 0x13	; 19
    1e38:	09 f0       	breq	.+2      	; 0x1e3c <_ZN11Interpreter4termEv+0x7c>
    1e3a:	e0 c0       	rjmp	.+448    	; 0x1ffc <_ZN11Interpreter4termEv+0x23c>
    1e3c:	63 e1       	ldi	r22, 0x13	; 19
    1e3e:	c7 01       	movw	r24, r14
    1e40:	0e 94 56 09 	call	0x12ac	; 0x12ac <_ZN11Interpreter3eatE9TokenType>
    1e44:	b7 01       	movw	r22, r14
    1e46:	ce 01       	movw	r24, r28
    1e48:	01 96       	adiw	r24, 0x01	; 1
    1e4a:	0e 94 01 0e 	call	0x1c02	; 0x1c02 <_ZN11Interpreter6factorEv>
    1e4e:	ae 01       	movw	r20, r28
    1e50:	4f 5f       	subi	r20, 0xFF	; 255
    1e52:	5f 4f       	sbci	r21, 0xFF	; 255
    1e54:	b8 01       	movw	r22, r16
    1e56:	ce 01       	movw	r24, r28
    1e58:	89 96       	adiw	r24, 0x29	; 41
    1e5a:	0e 94 a4 1e 	call	0x3d48	; 0x3d48 <_ZeqRK5ValueS1_>
    1e5e:	c5 c0       	rjmp	.+394    	; 0x1fea <_ZN11Interpreter4termEv+0x22a>
    1e60:	60 e0       	ldi	r22, 0x00	; 0
    1e62:	c7 01       	movw	r24, r14
    1e64:	0e 94 56 09 	call	0x12ac	; 0x12ac <_ZN11Interpreter3eatE9TokenType>
    1e68:	b7 01       	movw	r22, r14
    1e6a:	ce 01       	movw	r24, r28
    1e6c:	01 96       	adiw	r24, 0x01	; 1
    1e6e:	0e 94 01 0e 	call	0x1c02	; 0x1c02 <_ZN11Interpreter6factorEv>
    1e72:	ae 01       	movw	r20, r28
    1e74:	4f 5f       	subi	r20, 0xFF	; 255
    1e76:	5f 4f       	sbci	r21, 0xFF	; 255
    1e78:	b8 01       	movw	r22, r16
    1e7a:	ce 01       	movw	r24, r28
    1e7c:	89 96       	adiw	r24, 0x29	; 41
    1e7e:	0e 94 52 19 	call	0x32a4	; 0x32a4 <_ZmlRK5ValueS1_>
    1e82:	b3 c0       	rjmp	.+358    	; 0x1fea <_ZN11Interpreter4termEv+0x22a>
    1e84:	64 e0       	ldi	r22, 0x04	; 4
    1e86:	c7 01       	movw	r24, r14
    1e88:	0e 94 56 09 	call	0x12ac	; 0x12ac <_ZN11Interpreter3eatE9TokenType>
    1e8c:	b7 01       	movw	r22, r14
    1e8e:	ce 01       	movw	r24, r28
    1e90:	01 96       	adiw	r24, 0x01	; 1
    1e92:	0e 94 01 0e 	call	0x1c02	; 0x1c02 <_ZN11Interpreter6factorEv>
    1e96:	ae 01       	movw	r20, r28
    1e98:	4f 5f       	subi	r20, 0xFF	; 255
    1e9a:	5f 4f       	sbci	r21, 0xFF	; 255
    1e9c:	b8 01       	movw	r22, r16
    1e9e:	ce 01       	movw	r24, r28
    1ea0:	89 96       	adiw	r24, 0x29	; 41
    1ea2:	0e 94 e5 19 	call	0x33ca	; 0x33ca <_ZdvRK5ValueS1_>
    1ea6:	a1 c0       	rjmp	.+322    	; 0x1fea <_ZN11Interpreter4termEv+0x22a>
    1ea8:	62 e0       	ldi	r22, 0x02	; 2
    1eaa:	c7 01       	movw	r24, r14
    1eac:	0e 94 56 09 	call	0x12ac	; 0x12ac <_ZN11Interpreter3eatE9TokenType>
    1eb0:	b7 01       	movw	r22, r14
    1eb2:	ce 01       	movw	r24, r28
    1eb4:	01 96       	adiw	r24, 0x01	; 1
    1eb6:	0e 94 01 0e 	call	0x1c02	; 0x1c02 <_ZN11Interpreter6factorEv>
    1eba:	ae 01       	movw	r20, r28
    1ebc:	4f 5f       	subi	r20, 0xFF	; 255
    1ebe:	5f 4f       	sbci	r21, 0xFF	; 255
    1ec0:	b8 01       	movw	r22, r16
    1ec2:	ce 01       	movw	r24, r28
    1ec4:	89 96       	adiw	r24, 0x29	; 41
    1ec6:	0e 94 73 1a 	call	0x34e6	; 0x34e6 <_ZrmRK5ValueS1_>
    1eca:	8f c0       	rjmp	.+286    	; 0x1fea <_ZN11Interpreter4termEv+0x22a>
    1ecc:	64 e1       	ldi	r22, 0x14	; 20
    1ece:	c7 01       	movw	r24, r14
    1ed0:	0e 94 56 09 	call	0x12ac	; 0x12ac <_ZN11Interpreter3eatE9TokenType>
    1ed4:	b7 01       	movw	r22, r14
    1ed6:	ce 01       	movw	r24, r28
    1ed8:	01 96       	adiw	r24, 0x01	; 1
    1eda:	0e 94 01 0e 	call	0x1c02	; 0x1c02 <_ZN11Interpreter6factorEv>
    1ede:	ae 01       	movw	r20, r28
    1ee0:	4f 5f       	subi	r20, 0xFF	; 255
    1ee2:	5f 4f       	sbci	r21, 0xFF	; 255
    1ee4:	b8 01       	movw	r22, r16
    1ee6:	ce 01       	movw	r24, r28
    1ee8:	89 96       	adiw	r24, 0x29	; 41
    1eea:	0e 94 31 1f 	call	0x3e62	; 0x3e62 <_ZneRK5ValueS1_>
    1eee:	7d c0       	rjmp	.+250    	; 0x1fea <_ZN11Interpreter4termEv+0x22a>
    1ef0:	60 e1       	ldi	r22, 0x10	; 16
    1ef2:	c7 01       	movw	r24, r14
    1ef4:	0e 94 56 09 	call	0x12ac	; 0x12ac <_ZN11Interpreter3eatE9TokenType>
    1ef8:	b7 01       	movw	r22, r14
    1efa:	ce 01       	movw	r24, r28
    1efc:	01 96       	adiw	r24, 0x01	; 1
    1efe:	0e 94 01 0e 	call	0x1c02	; 0x1c02 <_ZN11Interpreter6factorEv>
    1f02:	ae 01       	movw	r20, r28
    1f04:	4f 5f       	subi	r20, 0xFF	; 255
    1f06:	5f 4f       	sbci	r21, 0xFF	; 255
    1f08:	b8 01       	movw	r22, r16
    1f0a:	ce 01       	movw	r24, r28
    1f0c:	89 96       	adiw	r24, 0x29	; 41
    1f0e:	0e 94 bf 1f 	call	0x3f7e	; 0x3f7e <_ZltRK5ValueS1_>
    1f12:	6b c0       	rjmp	.+214    	; 0x1fea <_ZN11Interpreter4termEv+0x22a>
    1f14:	61 e1       	ldi	r22, 0x11	; 17
    1f16:	c7 01       	movw	r24, r14
    1f18:	0e 94 56 09 	call	0x12ac	; 0x12ac <_ZN11Interpreter3eatE9TokenType>
    1f1c:	b7 01       	movw	r22, r14
    1f1e:	ce 01       	movw	r24, r28
    1f20:	01 96       	adiw	r24, 0x01	; 1
    1f22:	0e 94 01 0e 	call	0x1c02	; 0x1c02 <_ZN11Interpreter6factorEv>
    1f26:	ae 01       	movw	r20, r28
    1f28:	4f 5f       	subi	r20, 0xFF	; 255
    1f2a:	5f 4f       	sbci	r21, 0xFF	; 255
    1f2c:	b8 01       	movw	r22, r16
    1f2e:	ce 01       	movw	r24, r28
    1f30:	89 96       	adiw	r24, 0x29	; 41
    1f32:	0e 94 46 20 	call	0x408c	; 0x408c <_ZleRK5ValueS1_>
    1f36:	59 c0       	rjmp	.+178    	; 0x1fea <_ZN11Interpreter4termEv+0x22a>
    1f38:	6f e0       	ldi	r22, 0x0F	; 15
    1f3a:	c7 01       	movw	r24, r14
    1f3c:	0e 94 56 09 	call	0x12ac	; 0x12ac <_ZN11Interpreter3eatE9TokenType>
    1f40:	b7 01       	movw	r22, r14
    1f42:	ce 01       	movw	r24, r28
    1f44:	01 96       	adiw	r24, 0x01	; 1
    1f46:	0e 94 01 0e 	call	0x1c02	; 0x1c02 <_ZN11Interpreter6factorEv>
    1f4a:	ae 01       	movw	r20, r28
    1f4c:	4f 5f       	subi	r20, 0xFF	; 255
    1f4e:	5f 4f       	sbci	r21, 0xFF	; 255
    1f50:	b8 01       	movw	r22, r16
    1f52:	ce 01       	movw	r24, r28
    1f54:	89 96       	adiw	r24, 0x29	; 41
    1f56:	0e 94 e8 20 	call	0x41d0	; 0x41d0 <_ZgtRK5ValueS1_>
    1f5a:	47 c0       	rjmp	.+142    	; 0x1fea <_ZN11Interpreter4termEv+0x22a>
    1f5c:	62 e1       	ldi	r22, 0x12	; 18
    1f5e:	c7 01       	movw	r24, r14
    1f60:	0e 94 56 09 	call	0x12ac	; 0x12ac <_ZN11Interpreter3eatE9TokenType>
    1f64:	b7 01       	movw	r22, r14
    1f66:	ce 01       	movw	r24, r28
    1f68:	01 96       	adiw	r24, 0x01	; 1
    1f6a:	0e 94 01 0e 	call	0x1c02	; 0x1c02 <_ZN11Interpreter6factorEv>
    1f6e:	ae 01       	movw	r20, r28
    1f70:	4f 5f       	subi	r20, 0xFF	; 255
    1f72:	5f 4f       	sbci	r21, 0xFF	; 255
    1f74:	b8 01       	movw	r22, r16
    1f76:	ce 01       	movw	r24, r28
    1f78:	89 96       	adiw	r24, 0x29	; 41
    1f7a:	0e 94 8a 21 	call	0x4314	; 0x4314 <_ZgeRK5ValueS1_>
    1f7e:	35 c0       	rjmp	.+106    	; 0x1fea <_ZN11Interpreter4termEv+0x22a>
    1f80:	67 e0       	ldi	r22, 0x07	; 7
    1f82:	c7 01       	movw	r24, r14
    1f84:	0e 94 56 09 	call	0x12ac	; 0x12ac <_ZN11Interpreter3eatE9TokenType>
    1f88:	b7 01       	movw	r22, r14
    1f8a:	ce 01       	movw	r24, r28
    1f8c:	01 96       	adiw	r24, 0x01	; 1
    1f8e:	0e 94 01 0e 	call	0x1c02	; 0x1c02 <_ZN11Interpreter6factorEv>
    1f92:	ae 01       	movw	r20, r28
    1f94:	4f 5f       	subi	r20, 0xFF	; 255
    1f96:	5f 4f       	sbci	r21, 0xFF	; 255
    1f98:	b8 01       	movw	r22, r16
    1f9a:	ce 01       	movw	r24, r28
    1f9c:	89 96       	adiw	r24, 0x29	; 41
    1f9e:	0e 94 e6 1b 	call	0x37cc	; 0x37cc <_ZanRK5ValueS1_>
    1fa2:	23 c0       	rjmp	.+70     	; 0x1fea <_ZN11Interpreter4termEv+0x22a>
    1fa4:	68 e0       	ldi	r22, 0x08	; 8
    1fa6:	c7 01       	movw	r24, r14
    1fa8:	0e 94 56 09 	call	0x12ac	; 0x12ac <_ZN11Interpreter3eatE9TokenType>
    1fac:	b7 01       	movw	r22, r14
    1fae:	ce 01       	movw	r24, r28
    1fb0:	01 96       	adiw	r24, 0x01	; 1
    1fb2:	0e 94 01 0e 	call	0x1c02	; 0x1c02 <_ZN11Interpreter6factorEv>
    1fb6:	ae 01       	movw	r20, r28
    1fb8:	4f 5f       	subi	r20, 0xFF	; 255
    1fba:	5f 4f       	sbci	r21, 0xFF	; 255
    1fbc:	b8 01       	movw	r22, r16
    1fbe:	ce 01       	movw	r24, r28
    1fc0:	89 96       	adiw	r24, 0x29	; 41
    1fc2:	0e 94 41 1d 	call	0x3a82	; 0x3a82 <_ZorRK5ValueS1_>
    1fc6:	11 c0       	rjmp	.+34     	; 0x1fea <_ZN11Interpreter4termEv+0x22a>
    1fc8:	69 e0       	ldi	r22, 0x09	; 9
    1fca:	c7 01       	movw	r24, r14
    1fcc:	0e 94 56 09 	call	0x12ac	; 0x12ac <_ZN11Interpreter3eatE9TokenType>
    1fd0:	b7 01       	movw	r22, r14
    1fd2:	ce 01       	movw	r24, r28
    1fd4:	01 96       	adiw	r24, 0x01	; 1
    1fd6:	0e 94 01 0e 	call	0x1c02	; 0x1c02 <_ZN11Interpreter6factorEv>
    1fda:	ae 01       	movw	r20, r28
    1fdc:	4f 5f       	subi	r20, 0xFF	; 255
    1fde:	5f 4f       	sbci	r21, 0xFF	; 255
    1fe0:	b8 01       	movw	r22, r16
    1fe2:	ce 01       	movw	r24, r28
    1fe4:	89 96       	adiw	r24, 0x29	; 41
    1fe6:	0e 94 19 1e 	call	0x3c32	; 0x3c32 <_ZeoRK5ValueS1_>
    1fea:	88 e2       	ldi	r24, 0x28	; 40
    1fec:	fe 01       	movw	r30, r28
    1fee:	b9 96       	adiw	r30, 0x29	; 41
    1ff0:	d8 01       	movw	r26, r16
    1ff2:	01 90       	ld	r0, Z+
    1ff4:	0d 92       	st	X+, r0
    1ff6:	8a 95       	dec	r24
    1ff8:	e1 f7       	brne	.-8      	; 0x1ff2 <_ZN11Interpreter4termEv+0x232>
    1ffa:	fc ce       	rjmp	.-520    	; 0x1df4 <_ZN11Interpreter4termEv+0x34>
    1ffc:	c8 01       	movw	r24, r16
    1ffe:	c0 5b       	subi	r28, 0xB0	; 176
    2000:	df 4f       	sbci	r29, 0xFF	; 255
    2002:	0f b6       	in	r0, 0x3f	; 63
    2004:	f8 94       	cli
    2006:	de bf       	out	0x3e, r29	; 62
    2008:	0f be       	out	0x3f, r0	; 63
    200a:	cd bf       	out	0x3d, r28	; 61
    200c:	df 91       	pop	r29
    200e:	cf 91       	pop	r28
    2010:	1f 91       	pop	r17
    2012:	0f 91       	pop	r16
    2014:	ff 90       	pop	r15
    2016:	ef 90       	pop	r14
    2018:	df 90       	pop	r13
    201a:	cf 90       	pop	r12
    201c:	08 95       	ret

0000201e <_ZN11Interpreter4exprEv>:
    201e:	cf 92       	push	r12
    2020:	df 92       	push	r13
    2022:	ef 92       	push	r14
    2024:	ff 92       	push	r15
    2026:	0f 93       	push	r16
    2028:	1f 93       	push	r17
    202a:	cf 93       	push	r28
    202c:	df 93       	push	r29
    202e:	cd b7       	in	r28, 0x3d	; 61
    2030:	de b7       	in	r29, 0x3e	; 62
    2032:	c0 55       	subi	r28, 0x50	; 80
    2034:	d1 09       	sbc	r29, r1
    2036:	0f b6       	in	r0, 0x3f	; 63
    2038:	f8 94       	cli
    203a:	de bf       	out	0x3e, r29	; 62
    203c:	0f be       	out	0x3f, r0	; 63
    203e:	cd bf       	out	0x3d, r28	; 61
    2040:	8c 01       	movw	r16, r24
    2042:	7b 01       	movw	r14, r22
    2044:	0e 94 e0 0e 	call	0x1dc0	; 0x1dc0 <_ZN11Interpreter4termEv>
    2048:	67 01       	movw	r12, r14
    204a:	8d eb       	ldi	r24, 0xBD	; 189
    204c:	c8 1a       	sub	r12, r24
    204e:	8e ef       	ldi	r24, 0xFE	; 254
    2050:	d8 0a       	sbc	r13, r24
    2052:	f6 01       	movw	r30, r12
    2054:	80 81       	ld	r24, Z
    2056:	83 30       	cpi	r24, 0x03	; 3
    2058:	e1 f0       	breq	.+56     	; 0x2092 <_ZN11Interpreter4exprEv+0x74>
    205a:	81 30       	cpi	r24, 0x01	; 1
    205c:	61 f1       	breq	.+88     	; 0x20b6 <_ZN11Interpreter4exprEv+0x98>
    205e:	89 31       	cpi	r24, 0x19	; 25
    2060:	e1 f1       	breq	.+120    	; 0x20da <_ZN11Interpreter4exprEv+0xbc>
    2062:	85 30       	cpi	r24, 0x05	; 5
    2064:	09 f4       	brne	.+2      	; 0x2068 <_ZN11Interpreter4exprEv+0x4a>
    2066:	4b c0       	rjmp	.+150    	; 0x20fe <_ZN11Interpreter4exprEv+0xe0>
    2068:	86 30       	cpi	r24, 0x06	; 6
    206a:	09 f0       	breq	.+2      	; 0x206e <_ZN11Interpreter4exprEv+0x50>
    206c:	62 c0       	rjmp	.+196    	; 0x2132 <_ZN11Interpreter4exprEv+0x114>
    206e:	66 e0       	ldi	r22, 0x06	; 6
    2070:	c7 01       	movw	r24, r14
    2072:	0e 94 56 09 	call	0x12ac	; 0x12ac <_ZN11Interpreter3eatE9TokenType>
    2076:	b7 01       	movw	r22, r14
    2078:	ce 01       	movw	r24, r28
    207a:	01 96       	adiw	r24, 0x01	; 1
    207c:	0e 94 e0 0e 	call	0x1dc0	; 0x1dc0 <_ZN11Interpreter4termEv>
    2080:	ae 01       	movw	r20, r28
    2082:	4f 5f       	subi	r20, 0xFF	; 255
    2084:	5f 4f       	sbci	r21, 0xFF	; 255
    2086:	b8 01       	movw	r22, r16
    2088:	ce 01       	movw	r24, r28
    208a:	89 96       	adiw	r24, 0x29	; 41
    208c:	0e 94 66 1b 	call	0x36cc	; 0x36cc <_ZrsRK5ValueS1_>
    2090:	47 c0       	rjmp	.+142    	; 0x2120 <_ZN11Interpreter4exprEv+0x102>
    2092:	63 e0       	ldi	r22, 0x03	; 3
    2094:	c7 01       	movw	r24, r14
    2096:	0e 94 56 09 	call	0x12ac	; 0x12ac <_ZN11Interpreter3eatE9TokenType>
    209a:	b7 01       	movw	r22, r14
    209c:	ce 01       	movw	r24, r28
    209e:	01 96       	adiw	r24, 0x01	; 1
    20a0:	0e 94 e0 0e 	call	0x1dc0	; 0x1dc0 <_ZN11Interpreter4termEv>
    20a4:	ae 01       	movw	r20, r28
    20a6:	4f 5f       	subi	r20, 0xFF	; 255
    20a8:	5f 4f       	sbci	r21, 0xFF	; 255
    20aa:	b8 01       	movw	r22, r16
    20ac:	ce 01       	movw	r24, r28
    20ae:	89 96       	adiw	r24, 0x29	; 41
    20b0:	0e 94 6c 17 	call	0x2ed8	; 0x2ed8 <_ZplRK5ValueS1_>
    20b4:	35 c0       	rjmp	.+106    	; 0x2120 <_ZN11Interpreter4exprEv+0x102>
    20b6:	61 e0       	ldi	r22, 0x01	; 1
    20b8:	c7 01       	movw	r24, r14
    20ba:	0e 94 56 09 	call	0x12ac	; 0x12ac <_ZN11Interpreter3eatE9TokenType>
    20be:	b7 01       	movw	r22, r14
    20c0:	ce 01       	movw	r24, r28
    20c2:	01 96       	adiw	r24, 0x01	; 1
    20c4:	0e 94 e0 0e 	call	0x1dc0	; 0x1dc0 <_ZN11Interpreter4termEv>
    20c8:	ae 01       	movw	r20, r28
    20ca:	4f 5f       	subi	r20, 0xFF	; 255
    20cc:	5f 4f       	sbci	r21, 0xFF	; 255
    20ce:	b8 01       	movw	r22, r16
    20d0:	ce 01       	movw	r24, r28
    20d2:	89 96       	adiw	r24, 0x29	; 41
    20d4:	0e 94 c5 18 	call	0x318a	; 0x318a <_ZmiRK5ValueS1_>
    20d8:	23 c0       	rjmp	.+70     	; 0x2120 <_ZN11Interpreter4exprEv+0x102>
    20da:	69 e1       	ldi	r22, 0x19	; 25
    20dc:	c7 01       	movw	r24, r14
    20de:	0e 94 56 09 	call	0x12ac	; 0x12ac <_ZN11Interpreter3eatE9TokenType>
    20e2:	b7 01       	movw	r22, r14
    20e4:	ce 01       	movw	r24, r28
    20e6:	01 96       	adiw	r24, 0x01	; 1
    20e8:	0e 94 e0 0e 	call	0x1dc0	; 0x1dc0 <_ZN11Interpreter4termEv>
    20ec:	ae 01       	movw	r20, r28
    20ee:	4f 5f       	subi	r20, 0xFF	; 255
    20f0:	5f 4f       	sbci	r21, 0xFF	; 255
    20f2:	b8 01       	movw	r22, r16
    20f4:	ce 01       	movw	r24, r28
    20f6:	89 96       	adiw	r24, 0x29	; 41
    20f8:	0e 94 e6 1b 	call	0x37cc	; 0x37cc <_ZanRK5ValueS1_>
    20fc:	11 c0       	rjmp	.+34     	; 0x2120 <_ZN11Interpreter4exprEv+0x102>
    20fe:	65 e0       	ldi	r22, 0x05	; 5
    2100:	c7 01       	movw	r24, r14
    2102:	0e 94 56 09 	call	0x12ac	; 0x12ac <_ZN11Interpreter3eatE9TokenType>
    2106:	b7 01       	movw	r22, r14
    2108:	ce 01       	movw	r24, r28
    210a:	01 96       	adiw	r24, 0x01	; 1
    210c:	0e 94 e0 0e 	call	0x1dc0	; 0x1dc0 <_ZN11Interpreter4termEv>
    2110:	ae 01       	movw	r20, r28
    2112:	4f 5f       	subi	r20, 0xFF	; 255
    2114:	5f 4f       	sbci	r21, 0xFF	; 255
    2116:	b8 01       	movw	r22, r16
    2118:	ce 01       	movw	r24, r28
    211a:	89 96       	adiw	r24, 0x29	; 41
    211c:	0e 94 e6 1a 	call	0x35cc	; 0x35cc <_ZlsRK5ValueS1_>
    2120:	88 e2       	ldi	r24, 0x28	; 40
    2122:	fe 01       	movw	r30, r28
    2124:	b9 96       	adiw	r30, 0x29	; 41
    2126:	d8 01       	movw	r26, r16
    2128:	01 90       	ld	r0, Z+
    212a:	0d 92       	st	X+, r0
    212c:	8a 95       	dec	r24
    212e:	e1 f7       	brne	.-8      	; 0x2128 <_ZN11Interpreter4exprEv+0x10a>
    2130:	90 cf       	rjmp	.-224    	; 0x2052 <_ZN11Interpreter4exprEv+0x34>
    2132:	c8 01       	movw	r24, r16
    2134:	c0 5b       	subi	r28, 0xB0	; 176
    2136:	df 4f       	sbci	r29, 0xFF	; 255
    2138:	0f b6       	in	r0, 0x3f	; 63
    213a:	f8 94       	cli
    213c:	de bf       	out	0x3e, r29	; 62
    213e:	0f be       	out	0x3f, r0	; 63
    2140:	cd bf       	out	0x3d, r28	; 61
    2142:	df 91       	pop	r29
    2144:	cf 91       	pop	r28
    2146:	1f 91       	pop	r17
    2148:	0f 91       	pop	r16
    214a:	ff 90       	pop	r15
    214c:	ef 90       	pop	r14
    214e:	df 90       	pop	r13
    2150:	cf 90       	pop	r12
    2152:	08 95       	ret

00002154 <_ZN11Interpreter20assignment_statementEv>:
    2154:	bf 92       	push	r11
    2156:	cf 92       	push	r12
    2158:	df 92       	push	r13
    215a:	ef 92       	push	r14
    215c:	ff 92       	push	r15
    215e:	0f 93       	push	r16
    2160:	1f 93       	push	r17
    2162:	cf 93       	push	r28
    2164:	df 93       	push	r29
    2166:	cd b7       	in	r28, 0x3d	; 61
    2168:	de b7       	in	r29, 0x3e	; 62
    216a:	cd 58       	subi	r28, 0x8D	; 141
    216c:	d1 09       	sbc	r29, r1
    216e:	0f b6       	in	r0, 0x3f	; 63
    2170:	f8 94       	cli
    2172:	de bf       	out	0x3e, r29	; 62
    2174:	0f be       	out	0x3f, r0	; 63
    2176:	cd bf       	out	0x3d, r28	; 61
    2178:	8c 01       	movw	r16, r24
    217a:	7c 01       	movw	r14, r24
    217c:	8d eb       	ldi	r24, 0xBD	; 189
    217e:	e8 1a       	sub	r14, r24
    2180:	8e ef       	ldi	r24, 0xFE	; 254
    2182:	f8 0a       	sbc	r15, r24
    2184:	f7 01       	movw	r30, r14
    2186:	80 81       	ld	r24, Z
    2188:	89 32       	cpi	r24, 0x29	; 41
    218a:	39 f4       	brne	.+14     	; 0x219a <_ZN11Interpreter20assignment_statementEv+0x46>
    218c:	69 e2       	ldi	r22, 0x29	; 41
    218e:	c8 01       	movw	r24, r16
    2190:	0e 94 56 09 	call	0x12ac	; 0x12ac <_ZN11Interpreter3eatE9TokenType>
    2194:	bb 24       	eor	r11, r11
    2196:	b3 94       	inc	r11
    2198:	01 c0       	rjmp	.+2      	; 0x219c <_ZN11Interpreter20assignment_statementEv+0x48>
    219a:	b1 2c       	mov	r11, r1
    219c:	68 01       	movw	r12, r16
    219e:	fc eb       	ldi	r31, 0xBC	; 188
    21a0:	cf 1a       	sub	r12, r31
    21a2:	fe ef       	ldi	r31, 0xFE	; 254
    21a4:	df 0a       	sbc	r13, r31
    21a6:	c6 01       	movw	r24, r12
    21a8:	0e 94 cd 22 	call	0x459a	; 0x459a <_ZN5Value8ToStringEv>
    21ac:	bc 01       	movw	r22, r24
    21ae:	ce 01       	movw	r24, r28
    21b0:	8f 5a       	subi	r24, 0xAF	; 175
    21b2:	9f 4f       	sbci	r25, 0xFF	; 255
    21b4:	0e 94 06 2d 	call	0x5a0c	; 0x5a0c <strcpy>
    21b8:	6d e0       	ldi	r22, 0x0D	; 13
    21ba:	c8 01       	movw	r24, r16
    21bc:	0e 94 56 09 	call	0x12ac	; 0x12ac <_ZN11Interpreter3eatE9TokenType>
    21c0:	b1 10       	cpse	r11, r1
    21c2:	97 c0       	rjmp	.+302    	; 0x22f2 <_ZN11Interpreter20assignment_statementEv+0x19e>
    21c4:	f7 01       	movw	r30, r14
    21c6:	80 81       	ld	r24, Z
    21c8:	80 32       	cpi	r24, 0x20	; 32
    21ca:	c1 f5       	brne	.+112    	; 0x223c <_ZN11Interpreter20assignment_statementEv+0xe8>
    21cc:	60 e2       	ldi	r22, 0x20	; 32
    21ce:	c8 01       	movw	r24, r16
    21d0:	0e 94 56 09 	call	0x12ac	; 0x12ac <_ZN11Interpreter3eatE9TokenType>
    21d4:	b8 01       	movw	r22, r16
    21d6:	ce 01       	movw	r24, r28
    21d8:	01 96       	adiw	r24, 0x01	; 1
    21da:	0e 94 0f 10 	call	0x201e	; 0x201e <_ZN11Interpreter4exprEv>
    21de:	ed 80       	ldd	r14, Y+5	; 0x05
    21e0:	fe 80       	ldd	r15, Y+6	; 0x06
    21e2:	61 e2       	ldi	r22, 0x21	; 33
    21e4:	c8 01       	movw	r24, r16
    21e6:	0e 94 56 09 	call	0x12ac	; 0x12ac <_ZN11Interpreter3eatE9TokenType>
    21ea:	63 e1       	ldi	r22, 0x13	; 19
    21ec:	c8 01       	movw	r24, r16
    21ee:	0e 94 56 09 	call	0x12ac	; 0x12ac <_ZN11Interpreter3eatE9TokenType>
    21f2:	ae 01       	movw	r20, r28
    21f4:	4f 5a       	subi	r20, 0xAF	; 175
    21f6:	5f 4f       	sbci	r21, 0xFF	; 255
    21f8:	b8 01       	movw	r22, r16
    21fa:	ce 01       	movw	r24, r28
    21fc:	89 96       	adiw	r24, 0x29	; 41
    21fe:	0e 94 8f 09 	call	0x131e	; 0x131e <_ZN11Interpreter10lookup_varEPKc>
    2202:	b8 01       	movw	r22, r16
    2204:	ce 01       	movw	r24, r28
    2206:	01 96       	adiw	r24, 0x01	; 1
    2208:	0e 94 0f 10 	call	0x201e	; 0x201e <_ZN11Interpreter4exprEv>
    220c:	8f a1       	ldd	r24, Y+39	; 0x27
    220e:	81 11       	cpse	r24, r1
    2210:	08 c0       	rjmp	.+16     	; 0x2222 <_ZN11Interpreter20assignment_statementEv+0xce>
    2212:	4d 81       	ldd	r20, Y+5	; 0x05
    2214:	5e 81       	ldd	r21, Y+6	; 0x06
    2216:	b7 01       	movw	r22, r14
    2218:	ce 01       	movw	r24, r28
    221a:	89 96       	adiw	r24, 0x29	; 41
    221c:	0e 94 46 23 	call	0x468c	; 0x468c <_ZN5Value12update_arrayEii>
    2220:	b4 c0       	rjmp	.+360    	; 0x238a <_ZN11Interpreter20assignment_statementEv+0x236>
    2222:	83 30       	cpi	r24, 0x03	; 3
    2224:	09 f0       	breq	.+2      	; 0x2228 <_ZN11Interpreter20assignment_statementEv+0xd4>
    2226:	b1 c0       	rjmp	.+354    	; 0x238a <_ZN11Interpreter20assignment_statementEv+0x236>
    2228:	2f 81       	ldd	r18, Y+7	; 0x07
    222a:	38 85       	ldd	r19, Y+8	; 0x08
    222c:	49 85       	ldd	r20, Y+9	; 0x09
    222e:	5a 85       	ldd	r21, Y+10	; 0x0a
    2230:	b7 01       	movw	r22, r14
    2232:	ce 01       	movw	r24, r28
    2234:	89 96       	adiw	r24, 0x29	; 41
    2236:	0e 94 55 23 	call	0x46aa	; 0x46aa <_ZN5Value12update_arrayEid>
    223a:	a7 c0       	rjmp	.+334    	; 0x238a <_ZN11Interpreter20assignment_statementEv+0x236>
    223c:	83 31       	cpi	r24, 0x13	; 19
    223e:	39 f5       	brne	.+78     	; 0x228e <_ZN11Interpreter20assignment_statementEv+0x13a>
    2240:	63 e1       	ldi	r22, 0x13	; 19
    2242:	c8 01       	movw	r24, r16
    2244:	0e 94 56 09 	call	0x12ac	; 0x12ac <_ZN11Interpreter3eatE9TokenType>
    2248:	b8 01       	movw	r22, r16
    224a:	ce 01       	movw	r24, r28
    224c:	01 96       	adiw	r24, 0x01	; 1
    224e:	0e 94 0f 10 	call	0x201e	; 0x201e <_ZN11Interpreter4exprEv>
    2252:	8d b7       	in	r24, 0x3d	; 61
    2254:	9e b7       	in	r25, 0x3e	; 62
    2256:	88 97       	sbiw	r24, 0x28	; 40
    2258:	0f b6       	in	r0, 0x3f	; 63
    225a:	f8 94       	cli
    225c:	9e bf       	out	0x3e, r25	; 62
    225e:	0f be       	out	0x3f, r0	; 63
    2260:	8d bf       	out	0x3d, r24	; 61
    2262:	ad b7       	in	r26, 0x3d	; 61
    2264:	be b7       	in	r27, 0x3e	; 62
    2266:	11 96       	adiw	r26, 0x01	; 1
    2268:	88 e2       	ldi	r24, 0x28	; 40
    226a:	fe 01       	movw	r30, r28
    226c:	31 96       	adiw	r30, 0x01	; 1
    226e:	01 90       	ld	r0, Z+
    2270:	0d 92       	st	X+, r0
    2272:	8a 95       	dec	r24
    2274:	e1 f7       	brne	.-8      	; 0x226e <_ZN11Interpreter20assignment_statementEv+0x11a>
    2276:	be 01       	movw	r22, r28
    2278:	6f 5a       	subi	r22, 0xAF	; 175
    227a:	7f 4f       	sbci	r23, 0xFF	; 255
    227c:	c8 01       	movw	r24, r16
    227e:	0e 94 f5 09 	call	0x13ea	; 0x13ea <_ZN11Interpreter9store_varEPKc5Value>
    2282:	0f b6       	in	r0, 0x3f	; 63
    2284:	f8 94       	cli
    2286:	de bf       	out	0x3e, r29	; 62
    2288:	0f be       	out	0x3f, r0	; 63
    228a:	cd bf       	out	0x3d, r28	; 61
    228c:	7e c0       	rjmp	.+252    	; 0x238a <_ZN11Interpreter20assignment_statementEv+0x236>
    228e:	f8 01       	movw	r30, r16
    2290:	e2 5c       	subi	r30, 0xC2	; 194
    2292:	fe 4f       	sbci	r31, 0xFE	; 254
    2294:	11 82       	std	Z+1, r1	; 0x01
    2296:	10 82       	st	Z, r1
    2298:	60 e0       	ldi	r22, 0x00	; 0
    229a:	70 e0       	ldi	r23, 0x00	; 0
    229c:	c8 01       	movw	r24, r16
    229e:	0e 94 02 02 	call	0x404	; 0x404 <_ZN11Interpreter17get_next_pgm_byteEi>
    22a2:	f8 01       	movw	r30, r16
    22a4:	ee 5b       	subi	r30, 0xBE	; 190
    22a6:	fe 4f       	sbci	r31, 0xFE	; 254
    22a8:	80 83       	st	Z, r24
    22aa:	b8 01       	movw	r22, r16
    22ac:	ce 01       	movw	r24, r28
    22ae:	8b 59       	subi	r24, 0x9B	; 155
    22b0:	9f 4f       	sbci	r25, 0xFF	; 255
    22b2:	0e 94 b8 07 	call	0xf70	; 0xf70 <_ZN11Interpreter14get_next_tokenEv>
    22b6:	89 e2       	ldi	r24, 0x29	; 41
    22b8:	fe 01       	movw	r30, r28
    22ba:	eb 59       	subi	r30, 0x9B	; 155
    22bc:	ff 4f       	sbci	r31, 0xFF	; 255
    22be:	d7 01       	movw	r26, r14
    22c0:	01 90       	ld	r0, Z+
    22c2:	0d 92       	st	X+, r0
    22c4:	8a 95       	dec	r24
    22c6:	e1 f7       	brne	.-8      	; 0x22c0 <_ZN11Interpreter20assignment_statementEv+0x16c>
    22c8:	b8 01       	movw	r22, r16
    22ca:	ce 01       	movw	r24, r28
    22cc:	01 96       	adiw	r24, 0x01	; 1
    22ce:	0e 94 0f 10 	call	0x201e	; 0x201e <_ZN11Interpreter4exprEv>
    22d2:	f8 01       	movw	r30, r16
    22d4:	80 81       	ld	r24, Z
    22d6:	88 23       	and	r24, r24
    22d8:	09 f4       	brne	.+2      	; 0x22dc <_ZN11Interpreter20assignment_statementEv+0x188>
    22da:	57 c0       	rjmp	.+174    	; 0x238a <_ZN11Interpreter20assignment_statementEv+0x236>
    22dc:	ce 01       	movw	r24, r28
    22de:	01 96       	adiw	r24, 0x01	; 1
    22e0:	0e 94 cd 22 	call	0x459a	; 0x459a <_ZN5Value8ToStringEv>
    22e4:	0e 94 33 16 	call	0x2c66	; 0x2c66 <_Z11send_stringPc>
    22e8:	8d ee       	ldi	r24, 0xED	; 237
    22ea:	91 e0       	ldi	r25, 0x01	; 1
    22ec:	0e 94 33 16 	call	0x2c66	; 0x2c66 <_Z11send_stringPc>
    22f0:	4c c0       	rjmp	.+152    	; 0x238a <_ZN11Interpreter20assignment_statementEv+0x236>
    22f2:	60 e2       	ldi	r22, 0x20	; 32
    22f4:	c8 01       	movw	r24, r16
    22f6:	0e 94 56 09 	call	0x12ac	; 0x12ac <_ZN11Interpreter3eatE9TokenType>
    22fa:	b8 01       	movw	r22, r16
    22fc:	ce 01       	movw	r24, r28
    22fe:	01 96       	adiw	r24, 0x01	; 1
    2300:	0e 94 0f 10 	call	0x201e	; 0x201e <_ZN11Interpreter4exprEv>
    2304:	ed 80       	ldd	r14, Y+5	; 0x05
    2306:	fe 80       	ldd	r15, Y+6	; 0x06
    2308:	61 e2       	ldi	r22, 0x21	; 33
    230a:	c8 01       	movw	r24, r16
    230c:	0e 94 56 09 	call	0x12ac	; 0x12ac <_ZN11Interpreter3eatE9TokenType>
    2310:	6c e2       	ldi	r22, 0x2C	; 44
    2312:	c8 01       	movw	r24, r16
    2314:	0e 94 56 09 	call	0x12ac	; 0x12ac <_ZN11Interpreter3eatE9TokenType>
    2318:	c6 01       	movw	r24, r12
    231a:	0e 94 cd 22 	call	0x459a	; 0x459a <_ZN5Value8ToStringEv>
    231e:	bc 01       	movw	r22, r24
    2320:	ce 01       	movw	r24, r28
    2322:	89 96       	adiw	r24, 0x29	; 41
    2324:	0e 94 06 2d 	call	0x5a0c	; 0x5a0c <strcpy>
    2328:	6f ef       	ldi	r22, 0xFF	; 255
    232a:	71 e0       	ldi	r23, 0x01	; 1
    232c:	ce 01       	movw	r24, r28
    232e:	89 96       	adiw	r24, 0x29	; 41
    2330:	0e 94 2a 04 	call	0x854	; 0x854 <_Z10nocase_cmpPcPKc>
    2334:	a7 01       	movw	r20, r14
    2336:	89 2b       	or	r24, r25
    2338:	11 f4       	brne	.+4      	; 0x233e <_ZN11Interpreter20assignment_statementEv+0x1ea>
    233a:	60 e0       	ldi	r22, 0x00	; 0
    233c:	01 c0       	rjmp	.+2      	; 0x2340 <_ZN11Interpreter20assignment_statementEv+0x1ec>
    233e:	63 e0       	ldi	r22, 0x03	; 3
    2340:	ce 01       	movw	r24, r28
    2342:	01 96       	adiw	r24, 0x01	; 1
    2344:	0e 94 34 17 	call	0x2e68	; 0x2e68 <_ZN5ValueC1E4TYPEi>
    2348:	8d b7       	in	r24, 0x3d	; 61
    234a:	9e b7       	in	r25, 0x3e	; 62
    234c:	88 97       	sbiw	r24, 0x28	; 40
    234e:	0f b6       	in	r0, 0x3f	; 63
    2350:	f8 94       	cli
    2352:	9e bf       	out	0x3e, r25	; 62
    2354:	0f be       	out	0x3f, r0	; 63
    2356:	8d bf       	out	0x3d, r24	; 61
    2358:	ad b7       	in	r26, 0x3d	; 61
    235a:	be b7       	in	r27, 0x3e	; 62
    235c:	11 96       	adiw	r26, 0x01	; 1
    235e:	88 e2       	ldi	r24, 0x28	; 40
    2360:	fe 01       	movw	r30, r28
    2362:	31 96       	adiw	r30, 0x01	; 1
    2364:	01 90       	ld	r0, Z+
    2366:	0d 92       	st	X+, r0
    2368:	8a 95       	dec	r24
    236a:	e1 f7       	brne	.-8      	; 0x2364 <_ZN11Interpreter20assignment_statementEv+0x210>
    236c:	be 01       	movw	r22, r28
    236e:	6f 5a       	subi	r22, 0xAF	; 175
    2370:	7f 4f       	sbci	r23, 0xFF	; 255
    2372:	c8 01       	movw	r24, r16
    2374:	0e 94 f5 09 	call	0x13ea	; 0x13ea <_ZN11Interpreter9store_varEPKc5Value>
    2378:	0f b6       	in	r0, 0x3f	; 63
    237a:	f8 94       	cli
    237c:	de bf       	out	0x3e, r29	; 62
    237e:	0f be       	out	0x3f, r0	; 63
    2380:	cd bf       	out	0x3d, r28	; 61
    2382:	6d e0       	ldi	r22, 0x0D	; 13
    2384:	c8 01       	movw	r24, r16
    2386:	0e 94 56 09 	call	0x12ac	; 0x12ac <_ZN11Interpreter3eatE9TokenType>
    238a:	c3 57       	subi	r28, 0x73	; 115
    238c:	df 4f       	sbci	r29, 0xFF	; 255
    238e:	0f b6       	in	r0, 0x3f	; 63
    2390:	f8 94       	cli
    2392:	de bf       	out	0x3e, r29	; 62
    2394:	0f be       	out	0x3f, r0	; 63
    2396:	cd bf       	out	0x3d, r28	; 61
    2398:	df 91       	pop	r29
    239a:	cf 91       	pop	r28
    239c:	1f 91       	pop	r17
    239e:	0f 91       	pop	r16
    23a0:	ff 90       	pop	r15
    23a2:	ef 90       	pop	r14
    23a4:	df 90       	pop	r13
    23a6:	cf 90       	pop	r12
    23a8:	bf 90       	pop	r11
    23aa:	08 95       	ret

000023ac <_ZN11Interpreter9statementEv>:
    23ac:	0f 93       	push	r16
    23ae:	1f 93       	push	r17
    23b0:	cf 93       	push	r28
    23b2:	df 93       	push	r29
    23b4:	cd b7       	in	r28, 0x3d	; 61
    23b6:	de b7       	in	r29, 0x3e	; 62
    23b8:	a8 97       	sbiw	r28, 0x28	; 40
    23ba:	0f b6       	in	r0, 0x3f	; 63
    23bc:	f8 94       	cli
    23be:	de bf       	out	0x3e, r29	; 62
    23c0:	0f be       	out	0x3f, r0	; 63
    23c2:	cd bf       	out	0x3d, r28	; 61
    23c4:	8c 01       	movw	r16, r24
    23c6:	fc 01       	movw	r30, r24
    23c8:	ed 5b       	subi	r30, 0xBD	; 189
    23ca:	fe 4f       	sbci	r31, 0xFE	; 254
    23cc:	80 81       	ld	r24, Z
    23ce:	8d 30       	cpi	r24, 0x0D	; 13
    23d0:	11 f0       	breq	.+4      	; 0x23d6 <_ZN11Interpreter9statementEv+0x2a>
    23d2:	89 32       	cpi	r24, 0x29	; 41
    23d4:	21 f4       	brne	.+8      	; 0x23de <_ZN11Interpreter9statementEv+0x32>
    23d6:	c8 01       	movw	r24, r16
    23d8:	0e 94 aa 10 	call	0x2154	; 0x2154 <_ZN11Interpreter20assignment_statementEv>
    23dc:	35 c0       	rjmp	.+106    	; 0x2448 <_ZN11Interpreter9statementEv+0x9c>
    23de:	8d 32       	cpi	r24, 0x2D	; 45
    23e0:	31 f4       	brne	.+12     	; 0x23ee <_ZN11Interpreter9statementEv+0x42>
    23e2:	b8 01       	movw	r22, r16
    23e4:	ce 01       	movw	r24, r28
    23e6:	01 96       	adiw	r24, 0x01	; 1
    23e8:	0e 94 02 0b 	call	0x1604	; 0x1604 <_ZN11Interpreter13function_callEv>
    23ec:	2d c0       	rjmp	.+90     	; 0x2448 <_ZN11Interpreter9statementEv+0x9c>
    23ee:	87 32       	cpi	r24, 0x27	; 39
    23f0:	21 f4       	brne	.+8      	; 0x23fa <_ZN11Interpreter9statementEv+0x4e>
    23f2:	c8 01       	movw	r24, r16
    23f4:	0e 94 c1 14 	call	0x2982	; 0x2982 <_ZN11Interpreter15while_statementEv>
    23f8:	27 c0       	rjmp	.+78     	; 0x2448 <_ZN11Interpreter9statementEv+0x9c>
    23fa:	8e 32       	cpi	r24, 0x2E	; 46
    23fc:	21 f4       	brne	.+8      	; 0x2406 <_ZN11Interpreter9statementEv+0x5a>
    23fe:	c8 01       	movw	r24, r16
    2400:	0e 94 2f 12 	call	0x245e	; 0x245e <_ZN11Interpreter13for_statementEv>
    2404:	21 c0       	rjmp	.+66     	; 0x2448 <_ZN11Interpreter9statementEv+0x9c>
    2406:	8a 30       	cpi	r24, 0x0A	; 10
    2408:	21 f4       	brne	.+8      	; 0x2412 <_ZN11Interpreter9statementEv+0x66>
    240a:	c8 01       	movw	r24, r16
    240c:	0e 94 30 14 	call	0x2860	; 0x2860 <_ZN11Interpreter12if_statementEv>
    2410:	1b c0       	rjmp	.+54     	; 0x2448 <_ZN11Interpreter9statementEv+0x9c>
    2412:	82 33       	cpi	r24, 0x32	; 50
    2414:	21 f4       	brne	.+8      	; 0x241e <_ZN11Interpreter9statementEv+0x72>
    2416:	c8 01       	movw	r24, r16
    2418:	0e 94 a0 13 	call	0x2740	; 0x2740 <_ZN11Interpreter15gosub_statementEv>
    241c:	15 c0       	rjmp	.+42     	; 0x2448 <_ZN11Interpreter9statementEv+0x9c>
    241e:	83 32       	cpi	r24, 0x23	; 35
    2420:	99 f4       	brne	.+38     	; 0x2448 <_ZN11Interpreter9statementEv+0x9c>
    2422:	b8 01       	movw	r22, r16
    2424:	ce 01       	movw	r24, r28
    2426:	01 96       	adiw	r24, 0x01	; 1
    2428:	0e 94 0f 10 	call	0x201e	; 0x201e <_ZN11Interpreter4exprEv>
    242c:	f8 01       	movw	r30, r16
    242e:	80 81       	ld	r24, Z
    2430:	88 23       	and	r24, r24
    2432:	51 f0       	breq	.+20     	; 0x2448 <_ZN11Interpreter9statementEv+0x9c>
    2434:	ce 01       	movw	r24, r28
    2436:	01 96       	adiw	r24, 0x01	; 1
    2438:	0e 94 cd 22 	call	0x459a	; 0x459a <_ZN5Value8ToStringEv>
    243c:	0e 94 33 16 	call	0x2c66	; 0x2c66 <_Z11send_stringPc>
    2440:	8d ee       	ldi	r24, 0xED	; 237
    2442:	91 e0       	ldi	r25, 0x01	; 1
    2444:	0e 94 33 16 	call	0x2c66	; 0x2c66 <_Z11send_stringPc>
    2448:	a8 96       	adiw	r28, 0x28	; 40
    244a:	0f b6       	in	r0, 0x3f	; 63
    244c:	f8 94       	cli
    244e:	de bf       	out	0x3e, r29	; 62
    2450:	0f be       	out	0x3f, r0	; 63
    2452:	cd bf       	out	0x3d, r28	; 61
    2454:	df 91       	pop	r29
    2456:	cf 91       	pop	r28
    2458:	1f 91       	pop	r17
    245a:	0f 91       	pop	r16
    245c:	08 95       	ret

0000245e <_ZN11Interpreter13for_statementEv>:
    245e:	6f 92       	push	r6
    2460:	7f 92       	push	r7
    2462:	8f 92       	push	r8
    2464:	9f 92       	push	r9
    2466:	af 92       	push	r10
    2468:	bf 92       	push	r11
    246a:	cf 92       	push	r12
    246c:	df 92       	push	r13
    246e:	ef 92       	push	r14
    2470:	ff 92       	push	r15
    2472:	0f 93       	push	r16
    2474:	1f 93       	push	r17
    2476:	cf 93       	push	r28
    2478:	df 93       	push	r29
    247a:	cd b7       	in	r28, 0x3d	; 61
    247c:	de b7       	in	r29, 0x3e	; 62
    247e:	cd 58       	subi	r28, 0x8D	; 141
    2480:	d1 09       	sbc	r29, r1
    2482:	0f b6       	in	r0, 0x3f	; 63
    2484:	f8 94       	cli
    2486:	de bf       	out	0x3e, r29	; 62
    2488:	0f be       	out	0x3f, r0	; 63
    248a:	cd bf       	out	0x3d, r28	; 61
    248c:	8c 01       	movw	r16, r24
    248e:	5c 01       	movw	r10, r24
    2490:	82 ec       	ldi	r24, 0xC2	; 194
    2492:	a8 1a       	sub	r10, r24
    2494:	8e ef       	ldi	r24, 0xFE	; 254
    2496:	b8 0a       	sbc	r11, r24
    2498:	f5 01       	movw	r30, r10
    249a:	c0 80       	ld	r12, Z
    249c:	d1 80       	ldd	r13, Z+1	; 0x01
    249e:	f3 e0       	ldi	r31, 0x03	; 3
    24a0:	cf 0e       	add	r12, r31
    24a2:	d1 1c       	adc	r13, r1
    24a4:	6e e2       	ldi	r22, 0x2E	; 46
    24a6:	c8 01       	movw	r24, r16
    24a8:	0e 94 56 09 	call	0x12ac	; 0x12ac <_ZN11Interpreter3eatE9TokenType>
    24ac:	c8 01       	movw	r24, r16
    24ae:	8c 5b       	subi	r24, 0xBC	; 188
    24b0:	9e 4f       	sbci	r25, 0xFE	; 254
    24b2:	0e 94 cd 22 	call	0x459a	; 0x459a <_ZN5Value8ToStringEv>
    24b6:	bc 01       	movw	r22, r24
    24b8:	ce 01       	movw	r24, r28
    24ba:	8f 5a       	subi	r24, 0xAF	; 175
    24bc:	9f 4f       	sbci	r25, 0xFF	; 255
    24be:	0e 94 06 2d 	call	0x5a0c	; 0x5a0c <strcpy>
    24c2:	c8 01       	movw	r24, r16
    24c4:	0e 94 aa 10 	call	0x2154	; 0x2154 <_ZN11Interpreter20assignment_statementEv>
    24c8:	6f e2       	ldi	r22, 0x2F	; 47
    24ca:	c8 01       	movw	r24, r16
    24cc:	0e 94 56 09 	call	0x12ac	; 0x12ac <_ZN11Interpreter3eatE9TokenType>
    24d0:	c8 01       	movw	r24, r16
    24d2:	8d 5b       	subi	r24, 0xBD	; 189
    24d4:	9e 4f       	sbci	r25, 0xFE	; 254
    24d6:	7c 01       	movw	r14, r24
    24d8:	38 01       	movw	r6, r16
    24da:	9e eb       	ldi	r25, 0xBE	; 190
    24dc:	69 1a       	sub	r6, r25
    24de:	9e ef       	ldi	r25, 0xFE	; 254
    24e0:	79 0a       	sbc	r7, r25
    24e2:	ae 01       	movw	r20, r28
    24e4:	4f 5a       	subi	r20, 0xAF	; 175
    24e6:	5f 4f       	sbci	r21, 0xFF	; 255
    24e8:	b8 01       	movw	r22, r16
    24ea:	ce 01       	movw	r24, r28
    24ec:	89 96       	adiw	r24, 0x29	; 41
    24ee:	0e 94 8f 09 	call	0x131e	; 0x131e <_ZN11Interpreter10lookup_varEPKc>
    24f2:	8d a4       	ldd	r8, Y+45	; 0x2d
    24f4:	9e a4       	ldd	r9, Y+46	; 0x2e
    24f6:	b8 01       	movw	r22, r16
    24f8:	ce 01       	movw	r24, r28
    24fa:	01 96       	adiw	r24, 0x01	; 1
    24fc:	0e 94 0f 10 	call	0x201e	; 0x201e <_ZN11Interpreter4exprEv>
    2500:	8d 81       	ldd	r24, Y+5	; 0x05
    2502:	9e 81       	ldd	r25, Y+6	; 0x06
    2504:	88 15       	cp	r24, r8
    2506:	99 05       	cpc	r25, r9
    2508:	24 f4       	brge	.+8      	; 0x2512 <_ZN11Interpreter13for_statementEv+0xb4>
    250a:	cc 24       	eor	r12, r12
    250c:	c3 94       	inc	r12
    250e:	d1 2c       	mov	r13, r1
    2510:	6f c0       	rjmp	.+222    	; 0x25f0 <_ZN11Interpreter13for_statementEv+0x192>
    2512:	f7 01       	movw	r30, r14
    2514:	80 81       	ld	r24, Z
    2516:	80 33       	cpi	r24, 0x30	; 48
    2518:	61 f4       	brne	.+24     	; 0x2532 <_ZN11Interpreter13for_statementEv+0xd4>
    251a:	60 e3       	ldi	r22, 0x30	; 48
    251c:	c8 01       	movw	r24, r16
    251e:	0e 94 56 09 	call	0x12ac	; 0x12ac <_ZN11Interpreter3eatE9TokenType>
    2522:	b8 01       	movw	r22, r16
    2524:	ce 01       	movw	r24, r28
    2526:	01 96       	adiw	r24, 0x01	; 1
    2528:	0e 94 0f 10 	call	0x201e	; 0x201e <_ZN11Interpreter4exprEv>
    252c:	8d 80       	ldd	r8, Y+5	; 0x05
    252e:	9e 80       	ldd	r9, Y+6	; 0x06
    2530:	03 c0       	rjmp	.+6      	; 0x2538 <_ZN11Interpreter13for_statementEv+0xda>
    2532:	88 24       	eor	r8, r8
    2534:	83 94       	inc	r8
    2536:	91 2c       	mov	r9, r1
    2538:	f7 01       	movw	r30, r14
    253a:	80 81       	ld	r24, Z
    253c:	81 33       	cpi	r24, 0x31	; 49
    253e:	41 f0       	breq	.+16     	; 0x2550 <_ZN11Interpreter13for_statementEv+0xf2>
    2540:	c8 01       	movw	r24, r16
    2542:	0e 94 d6 11 	call	0x23ac	; 0x23ac <_ZN11Interpreter9statementEv>
    2546:	67 e1       	ldi	r22, 0x17	; 23
    2548:	c8 01       	movw	r24, r16
    254a:	0e 94 56 09 	call	0x12ac	; 0x12ac <_ZN11Interpreter3eatE9TokenType>
    254e:	f4 cf       	rjmp	.-24     	; 0x2538 <_ZN11Interpreter13for_statementEv+0xda>
    2550:	ae 01       	movw	r20, r28
    2552:	4f 5a       	subi	r20, 0xAF	; 175
    2554:	5f 4f       	sbci	r21, 0xFF	; 255
    2556:	b8 01       	movw	r22, r16
    2558:	ce 01       	movw	r24, r28
    255a:	89 96       	adiw	r24, 0x29	; 41
    255c:	0e 94 8f 09 	call	0x131e	; 0x131e <_ZN11Interpreter10lookup_varEPKc>
    2560:	6d a5       	ldd	r22, Y+45	; 0x2d
    2562:	7e a5       	ldd	r23, Y+46	; 0x2e
    2564:	68 0d       	add	r22, r8
    2566:	79 1d       	adc	r23, r9
    2568:	ce 01       	movw	r24, r28
    256a:	01 96       	adiw	r24, 0x01	; 1
    256c:	0e 94 e4 16 	call	0x2dc8	; 0x2dc8 <_ZN5ValueC1Ei>
    2570:	8d b7       	in	r24, 0x3d	; 61
    2572:	9e b7       	in	r25, 0x3e	; 62
    2574:	88 97       	sbiw	r24, 0x28	; 40
    2576:	0f b6       	in	r0, 0x3f	; 63
    2578:	f8 94       	cli
    257a:	9e bf       	out	0x3e, r25	; 62
    257c:	0f be       	out	0x3f, r0	; 63
    257e:	8d bf       	out	0x3d, r24	; 61
    2580:	ad b7       	in	r26, 0x3d	; 61
    2582:	be b7       	in	r27, 0x3e	; 62
    2584:	11 96       	adiw	r26, 0x01	; 1
    2586:	88 e2       	ldi	r24, 0x28	; 40
    2588:	fe 01       	movw	r30, r28
    258a:	31 96       	adiw	r30, 0x01	; 1
    258c:	01 90       	ld	r0, Z+
    258e:	0d 92       	st	X+, r0
    2590:	8a 95       	dec	r24
    2592:	e1 f7       	brne	.-8      	; 0x258c <_ZN11Interpreter13for_statementEv+0x12e>
    2594:	be 01       	movw	r22, r28
    2596:	6f 5a       	subi	r22, 0xAF	; 175
    2598:	7f 4f       	sbci	r23, 0xFF	; 255
    259a:	c8 01       	movw	r24, r16
    259c:	0e 94 f5 09 	call	0x13ea	; 0x13ea <_ZN11Interpreter9store_varEPKc5Value>
    25a0:	f5 01       	movw	r30, r10
    25a2:	d1 82       	std	Z+1, r13	; 0x01
    25a4:	c0 82       	st	Z, r12
    25a6:	0f b6       	in	r0, 0x3f	; 63
    25a8:	f8 94       	cli
    25aa:	de bf       	out	0x3e, r29	; 62
    25ac:	0f be       	out	0x3f, r0	; 63
    25ae:	cd bf       	out	0x3d, r28	; 61
    25b0:	b6 01       	movw	r22, r12
    25b2:	c8 01       	movw	r24, r16
    25b4:	0e 94 02 02 	call	0x404	; 0x404 <_ZN11Interpreter17get_next_pgm_byteEi>
    25b8:	f3 01       	movw	r30, r6
    25ba:	80 83       	st	Z, r24
    25bc:	b8 01       	movw	r22, r16
    25be:	ce 01       	movw	r24, r28
    25c0:	8b 59       	subi	r24, 0x9B	; 155
    25c2:	9f 4f       	sbci	r25, 0xFF	; 255
    25c4:	0e 94 b8 07 	call	0xf70	; 0xf70 <_ZN11Interpreter14get_next_tokenEv>
    25c8:	89 e2       	ldi	r24, 0x29	; 41
    25ca:	fe 01       	movw	r30, r28
    25cc:	eb 59       	subi	r30, 0x9B	; 155
    25ce:	ff 4f       	sbci	r31, 0xFF	; 255
    25d0:	d7 01       	movw	r26, r14
    25d2:	01 90       	ld	r0, Z+
    25d4:	0d 92       	st	X+, r0
    25d6:	8a 95       	dec	r24
    25d8:	e1 f7       	brne	.-8      	; 0x25d2 <_ZN11Interpreter13for_statementEv+0x174>
    25da:	f7 01       	movw	r30, r14
    25dc:	80 81       	ld	r24, Z
    25de:	8f 32       	cpi	r24, 0x2F	; 47
    25e0:	69 f7       	brne	.-38     	; 0x25bc <_ZN11Interpreter13for_statementEv+0x15e>
    25e2:	6f e2       	ldi	r22, 0x2F	; 47
    25e4:	c8 01       	movw	r24, r16
    25e6:	0e 94 56 09 	call	0x12ac	; 0x12ac <_ZN11Interpreter3eatE9TokenType>
    25ea:	7b cf       	rjmp	.-266    	; 0x24e2 <_ZN11Interpreter13for_statementEv+0x84>
    25ec:	81 33       	cpi	r24, 0x31	; 49
    25ee:	b9 f0       	breq	.+46     	; 0x261e <_ZN11Interpreter13for_statementEv+0x1c0>
    25f0:	b8 01       	movw	r22, r16
    25f2:	ce 01       	movw	r24, r28
    25f4:	8b 59       	subi	r24, 0x9B	; 155
    25f6:	9f 4f       	sbci	r25, 0xFF	; 255
    25f8:	0e 94 b8 07 	call	0xf70	; 0xf70 <_ZN11Interpreter14get_next_tokenEv>
    25fc:	89 e2       	ldi	r24, 0x29	; 41
    25fe:	fe 01       	movw	r30, r28
    2600:	eb 59       	subi	r30, 0x9B	; 155
    2602:	ff 4f       	sbci	r31, 0xFF	; 255
    2604:	d7 01       	movw	r26, r14
    2606:	01 90       	ld	r0, Z+
    2608:	0d 92       	st	X+, r0
    260a:	8a 95       	dec	r24
    260c:	e1 f7       	brne	.-8      	; 0x2606 <_ZN11Interpreter13for_statementEv+0x1a8>
    260e:	f7 01       	movw	r30, r14
    2610:	80 81       	ld	r24, Z
    2612:	8e 32       	cpi	r24, 0x2E	; 46
    2614:	59 f7       	brne	.-42     	; 0x25ec <_ZN11Interpreter13for_statementEv+0x18e>
    2616:	ff ef       	ldi	r31, 0xFF	; 255
    2618:	cf 1a       	sub	r12, r31
    261a:	df 0a       	sbc	r13, r31
    261c:	e9 cf       	rjmp	.-46     	; 0x25f0 <_ZN11Interpreter13for_statementEv+0x192>
    261e:	81 e0       	ldi	r24, 0x01	; 1
    2620:	c8 1a       	sub	r12, r24
    2622:	d1 08       	sbc	r13, r1
    2624:	29 f7       	brne	.-54     	; 0x25f0 <_ZN11Interpreter13for_statementEv+0x192>
    2626:	61 e3       	ldi	r22, 0x31	; 49
    2628:	c8 01       	movw	r24, r16
    262a:	0e 94 56 09 	call	0x12ac	; 0x12ac <_ZN11Interpreter3eatE9TokenType>
    262e:	f7 01       	movw	r30, r14
    2630:	80 81       	ld	r24, Z
    2632:	8d 30       	cpi	r24, 0x0D	; 13
    2634:	21 f4       	brne	.+8      	; 0x263e <_ZN11Interpreter13for_statementEv+0x1e0>
    2636:	6d e0       	ldi	r22, 0x0D	; 13
    2638:	c8 01       	movw	r24, r16
    263a:	0e 94 56 09 	call	0x12ac	; 0x12ac <_ZN11Interpreter3eatE9TokenType>
    263e:	c3 57       	subi	r28, 0x73	; 115
    2640:	df 4f       	sbci	r29, 0xFF	; 255
    2642:	0f b6       	in	r0, 0x3f	; 63
    2644:	f8 94       	cli
    2646:	de bf       	out	0x3e, r29	; 62
    2648:	0f be       	out	0x3f, r0	; 63
    264a:	cd bf       	out	0x3d, r28	; 61
    264c:	df 91       	pop	r29
    264e:	cf 91       	pop	r28
    2650:	1f 91       	pop	r17
    2652:	0f 91       	pop	r16
    2654:	ff 90       	pop	r15
    2656:	ef 90       	pop	r14
    2658:	df 90       	pop	r13
    265a:	cf 90       	pop	r12
    265c:	bf 90       	pop	r11
    265e:	af 90       	pop	r10
    2660:	9f 90       	pop	r9
    2662:	8f 90       	pop	r8
    2664:	7f 90       	pop	r7
    2666:	6f 90       	pop	r6
    2668:	08 95       	ret

0000266a <_ZN11Interpreter17execute_statementEPc>:
    266a:	ef 92       	push	r14
    266c:	ff 92       	push	r15
    266e:	0f 93       	push	r16
    2670:	1f 93       	push	r17
    2672:	cf 93       	push	r28
    2674:	df 93       	push	r29
    2676:	cd b7       	in	r28, 0x3d	; 61
    2678:	de b7       	in	r29, 0x3e	; 62
    267a:	a9 97       	sbiw	r28, 0x29	; 41
    267c:	0f b6       	in	r0, 0x3f	; 63
    267e:	f8 94       	cli
    2680:	de bf       	out	0x3e, r29	; 62
    2682:	0f be       	out	0x3f, r0	; 63
    2684:	cd bf       	out	0x3d, r28	; 61
    2686:	8c 01       	movw	r16, r24
    2688:	fc 01       	movw	r30, r24
    268a:	e4 5c       	subi	r30, 0xC4	; 196
    268c:	fe 4f       	sbci	r31, 0xFE	; 254
    268e:	71 83       	std	Z+1, r23	; 0x01
    2690:	60 83       	st	Z, r22
    2692:	32 96       	adiw	r30, 0x02	; 2
    2694:	11 82       	std	Z+1, r1	; 0x01
    2696:	10 82       	st	Z, r1
    2698:	fb 01       	movw	r30, r22
    269a:	01 90       	ld	r0, Z+
    269c:	00 20       	and	r0, r0
    269e:	e9 f7       	brne	.-6      	; 0x269a <_ZN11Interpreter17execute_statementEPc+0x30>
    26a0:	31 97       	sbiw	r30, 0x01	; 1
    26a2:	e6 1b       	sub	r30, r22
    26a4:	f7 0b       	sbc	r31, r23
    26a6:	dc 01       	movw	r26, r24
    26a8:	a0 5c       	subi	r26, 0xC0	; 192
    26aa:	be 4f       	sbci	r27, 0xFE	; 254
    26ac:	ed 93       	st	X+, r30
    26ae:	fc 93       	st	X, r31
    26b0:	60 e0       	ldi	r22, 0x00	; 0
    26b2:	70 e0       	ldi	r23, 0x00	; 0
    26b4:	0e 94 02 02 	call	0x404	; 0x404 <_ZN11Interpreter17get_next_pgm_byteEi>
    26b8:	f8 01       	movw	r30, r16
    26ba:	ee 5b       	subi	r30, 0xBE	; 190
    26bc:	fe 4f       	sbci	r31, 0xFE	; 254
    26be:	80 83       	st	Z, r24
    26c0:	78 01       	movw	r14, r16
    26c2:	8d eb       	ldi	r24, 0xBD	; 189
    26c4:	e8 1a       	sub	r14, r24
    26c6:	8e ef       	ldi	r24, 0xFE	; 254
    26c8:	f8 0a       	sbc	r15, r24
    26ca:	b8 01       	movw	r22, r16
    26cc:	ce 01       	movw	r24, r28
    26ce:	01 96       	adiw	r24, 0x01	; 1
    26d0:	0e 94 b8 07 	call	0xf70	; 0xf70 <_ZN11Interpreter14get_next_tokenEv>
    26d4:	89 e2       	ldi	r24, 0x29	; 41
    26d6:	fe 01       	movw	r30, r28
    26d8:	31 96       	adiw	r30, 0x01	; 1
    26da:	d7 01       	movw	r26, r14
    26dc:	01 90       	ld	r0, Z+
    26de:	0d 92       	st	X+, r0
    26e0:	8a 95       	dec	r24
    26e2:	e1 f7       	brne	.-8      	; 0x26dc <_ZN11Interpreter17execute_statementEPc+0x72>
    26e4:	c8 01       	movw	r24, r16
    26e6:	a9 96       	adiw	r28, 0x29	; 41
    26e8:	0f b6       	in	r0, 0x3f	; 63
    26ea:	f8 94       	cli
    26ec:	de bf       	out	0x3e, r29	; 62
    26ee:	0f be       	out	0x3f, r0	; 63
    26f0:	cd bf       	out	0x3d, r28	; 61
    26f2:	df 91       	pop	r29
    26f4:	cf 91       	pop	r28
    26f6:	1f 91       	pop	r17
    26f8:	0f 91       	pop	r16
    26fa:	ff 90       	pop	r15
    26fc:	ef 90       	pop	r14
    26fe:	0c 94 d6 11 	jmp	0x23ac	; 0x23ac <_ZN11Interpreter9statementEv>

00002702 <_ZN11Interpreter14statement_listEv>:
    2702:	0f 93       	push	r16
    2704:	1f 93       	push	r17
    2706:	cf 93       	push	r28
    2708:	df 93       	push	r29
    270a:	ec 01       	movw	r28, r24
    270c:	0e 94 d6 11 	call	0x23ac	; 0x23ac <_ZN11Interpreter9statementEv>
    2710:	8e 01       	movw	r16, r28
    2712:	0d 5b       	subi	r16, 0xBD	; 189
    2714:	1e 4f       	sbci	r17, 0xFE	; 254
    2716:	f8 01       	movw	r30, r16
    2718:	80 81       	ld	r24, Z
    271a:	82 32       	cpi	r24, 0x22	; 34
    271c:	51 f0       	breq	.+20     	; 0x2732 <_ZN11Interpreter14statement_listEv+0x30>
    271e:	87 31       	cpi	r24, 0x17	; 23
    2720:	21 f4       	brne	.+8      	; 0x272a <_ZN11Interpreter14statement_listEv+0x28>
    2722:	67 e1       	ldi	r22, 0x17	; 23
    2724:	ce 01       	movw	r24, r28
    2726:	0e 94 56 09 	call	0x12ac	; 0x12ac <_ZN11Interpreter3eatE9TokenType>
    272a:	ce 01       	movw	r24, r28
    272c:	0e 94 d6 11 	call	0x23ac	; 0x23ac <_ZN11Interpreter9statementEv>
    2730:	f2 cf       	rjmp	.-28     	; 0x2716 <_ZN11Interpreter14statement_listEv+0x14>
    2732:	df 91       	pop	r29
    2734:	cf 91       	pop	r28
    2736:	1f 91       	pop	r17
    2738:	0f 91       	pop	r16
    273a:	08 95       	ret

0000273c <_ZN11Interpreter3runEv>:
    273c:	0c 94 81 13 	jmp	0x2702	; 0x2702 <_ZN11Interpreter14statement_listEv>

00002740 <_ZN11Interpreter15gosub_statementEv>:
    2740:	8f 92       	push	r8
    2742:	9f 92       	push	r9
    2744:	af 92       	push	r10
    2746:	bf 92       	push	r11
    2748:	cf 92       	push	r12
    274a:	df 92       	push	r13
    274c:	ef 92       	push	r14
    274e:	ff 92       	push	r15
    2750:	0f 93       	push	r16
    2752:	1f 93       	push	r17
    2754:	cf 93       	push	r28
    2756:	df 93       	push	r29
    2758:	cd b7       	in	r28, 0x3d	; 61
    275a:	de b7       	in	r29, 0x3e	; 62
    275c:	ed 97       	sbiw	r28, 0x3d	; 61
    275e:	0f b6       	in	r0, 0x3f	; 63
    2760:	f8 94       	cli
    2762:	de bf       	out	0x3e, r29	; 62
    2764:	0f be       	out	0x3f, r0	; 63
    2766:	cd bf       	out	0x3d, r28	; 61
    2768:	8c 01       	movw	r16, r24
    276a:	62 e3       	ldi	r22, 0x32	; 50
    276c:	0e 94 56 09 	call	0x12ac	; 0x12ac <_ZN11Interpreter3eatE9TokenType>
    2770:	48 01       	movw	r8, r16
    2772:	8c eb       	ldi	r24, 0xBC	; 188
    2774:	88 1a       	sub	r8, r24
    2776:	8e ef       	ldi	r24, 0xFE	; 254
    2778:	98 0a       	sbc	r9, r24
    277a:	c4 01       	movw	r24, r8
    277c:	0e 94 cd 22 	call	0x459a	; 0x459a <_ZN5Value8ToStringEv>
    2780:	bc 01       	movw	r22, r24
    2782:	ce 01       	movw	r24, r28
    2784:	01 96       	adiw	r24, 0x01	; 1
    2786:	0e 94 06 2d 	call	0x5a0c	; 0x5a0c <strcpy>
    278a:	68 01       	movw	r12, r16
    278c:	e2 ec       	ldi	r30, 0xC2	; 194
    278e:	ce 1a       	sub	r12, r30
    2790:	ee ef       	ldi	r30, 0xFE	; 254
    2792:	de 0a       	sbc	r13, r30
    2794:	f6 01       	movw	r30, r12
    2796:	a0 80       	ld	r10, Z
    2798:	b1 80       	ldd	r11, Z+1	; 0x01
    279a:	6d e0       	ldi	r22, 0x0D	; 13
    279c:	c8 01       	movw	r24, r16
    279e:	0e 94 56 09 	call	0x12ac	; 0x12ac <_ZN11Interpreter3eatE9TokenType>
    27a2:	f6 01       	movw	r30, r12
    27a4:	11 82       	std	Z+1, r1	; 0x01
    27a6:	10 82       	st	Z, r1
    27a8:	78 01       	movw	r14, r16
    27aa:	fd eb       	ldi	r31, 0xBD	; 189
    27ac:	ef 1a       	sub	r14, r31
    27ae:	fe ef       	ldi	r31, 0xFE	; 254
    27b0:	ff 0a       	sbc	r15, r31
    27b2:	b8 01       	movw	r22, r16
    27b4:	ce 01       	movw	r24, r28
    27b6:	45 96       	adiw	r24, 0x15	; 21
    27b8:	0e 94 b8 07 	call	0xf70	; 0xf70 <_ZN11Interpreter14get_next_tokenEv>
    27bc:	89 e2       	ldi	r24, 0x29	; 41
    27be:	fe 01       	movw	r30, r28
    27c0:	75 96       	adiw	r30, 0x15	; 21
    27c2:	d7 01       	movw	r26, r14
    27c4:	01 90       	ld	r0, Z+
    27c6:	0d 92       	st	X+, r0
    27c8:	8a 95       	dec	r24
    27ca:	e1 f7       	brne	.-8      	; 0x27c4 <_ZN11Interpreter15gosub_statementEv+0x84>
    27cc:	f7 01       	movw	r30, r14
    27ce:	80 81       	ld	r24, Z
    27d0:	83 33       	cpi	r24, 0x33	; 51
    27d2:	79 f7       	brne	.-34     	; 0x27b2 <_ZN11Interpreter15gosub_statementEv+0x72>
    27d4:	c4 01       	movw	r24, r8
    27d6:	0e 94 cd 22 	call	0x459a	; 0x459a <_ZN5Value8ToStringEv>
    27da:	bc 01       	movw	r22, r24
    27dc:	ce 01       	movw	r24, r28
    27de:	01 96       	adiw	r24, 0x01	; 1
    27e0:	0e 94 fd 2c 	call	0x59fa	; 0x59fa <strcmp>
    27e4:	89 2b       	or	r24, r25
    27e6:	29 f7       	brne	.-54     	; 0x27b2 <_ZN11Interpreter15gosub_statementEv+0x72>
    27e8:	63 e3       	ldi	r22, 0x33	; 51
    27ea:	c8 01       	movw	r24, r16
    27ec:	0e 94 56 09 	call	0x12ac	; 0x12ac <_ZN11Interpreter3eatE9TokenType>
    27f0:	f7 01       	movw	r30, r14
    27f2:	80 81       	ld	r24, Z
    27f4:	88 31       	cpi	r24, 0x18	; 24
    27f6:	29 f0       	breq	.+10     	; 0x2802 <_ZN11Interpreter15gosub_statementEv+0xc2>
    27f8:	c8 01       	movw	r24, r16
    27fa:	0e 94 d6 11 	call	0x23ac	; 0x23ac <_ZN11Interpreter9statementEv>
    27fe:	67 e1       	ldi	r22, 0x17	; 23
    2800:	f4 cf       	rjmp	.-24     	; 0x27ea <_ZN11Interpreter15gosub_statementEv+0xaa>
    2802:	68 e1       	ldi	r22, 0x18	; 24
    2804:	c8 01       	movw	r24, r16
    2806:	0e 94 56 09 	call	0x12ac	; 0x12ac <_ZN11Interpreter3eatE9TokenType>
    280a:	f6 01       	movw	r30, r12
    280c:	b1 82       	std	Z+1, r11	; 0x01
    280e:	a0 82       	st	Z, r10
    2810:	b5 01       	movw	r22, r10
    2812:	c8 01       	movw	r24, r16
    2814:	0e 94 02 02 	call	0x404	; 0x404 <_ZN11Interpreter17get_next_pgm_byteEi>
    2818:	f8 01       	movw	r30, r16
    281a:	ee 5b       	subi	r30, 0xBE	; 190
    281c:	fe 4f       	sbci	r31, 0xFE	; 254
    281e:	80 83       	st	Z, r24
    2820:	b8 01       	movw	r22, r16
    2822:	ce 01       	movw	r24, r28
    2824:	45 96       	adiw	r24, 0x15	; 21
    2826:	0e 94 b8 07 	call	0xf70	; 0xf70 <_ZN11Interpreter14get_next_tokenEv>
    282a:	89 e2       	ldi	r24, 0x29	; 41
    282c:	fe 01       	movw	r30, r28
    282e:	75 96       	adiw	r30, 0x15	; 21
    2830:	d7 01       	movw	r26, r14
    2832:	01 90       	ld	r0, Z+
    2834:	0d 92       	st	X+, r0
    2836:	8a 95       	dec	r24
    2838:	e1 f7       	brne	.-8      	; 0x2832 <_ZN11Interpreter15gosub_statementEv+0xf2>
    283a:	ed 96       	adiw	r28, 0x3d	; 61
    283c:	0f b6       	in	r0, 0x3f	; 63
    283e:	f8 94       	cli
    2840:	de bf       	out	0x3e, r29	; 62
    2842:	0f be       	out	0x3f, r0	; 63
    2844:	cd bf       	out	0x3d, r28	; 61
    2846:	df 91       	pop	r29
    2848:	cf 91       	pop	r28
    284a:	1f 91       	pop	r17
    284c:	0f 91       	pop	r16
    284e:	ff 90       	pop	r15
    2850:	ef 90       	pop	r14
    2852:	df 90       	pop	r13
    2854:	cf 90       	pop	r12
    2856:	bf 90       	pop	r11
    2858:	af 90       	pop	r10
    285a:	9f 90       	pop	r9
    285c:	8f 90       	pop	r8
    285e:	08 95       	ret

00002860 <_ZN11Interpreter12if_statementEv>:
    2860:	ef 92       	push	r14
    2862:	ff 92       	push	r15
    2864:	0f 93       	push	r16
    2866:	1f 93       	push	r17
    2868:	cf 93       	push	r28
    286a:	df 93       	push	r29
    286c:	cd b7       	in	r28, 0x3d	; 61
    286e:	de b7       	in	r29, 0x3e	; 62
    2870:	c1 55       	subi	r28, 0x51	; 81
    2872:	d1 09       	sbc	r29, r1
    2874:	0f b6       	in	r0, 0x3f	; 63
    2876:	f8 94       	cli
    2878:	de bf       	out	0x3e, r29	; 62
    287a:	0f be       	out	0x3f, r0	; 63
    287c:	cd bf       	out	0x3d, r28	; 61
    287e:	8c 01       	movw	r16, r24
    2880:	6a e0       	ldi	r22, 0x0A	; 10
    2882:	0e 94 56 09 	call	0x12ac	; 0x12ac <_ZN11Interpreter3eatE9TokenType>
    2886:	b8 01       	movw	r22, r16
    2888:	ce 01       	movw	r24, r28
    288a:	01 96       	adiw	r24, 0x01	; 1
    288c:	0e 94 0f 10 	call	0x201e	; 0x201e <_ZN11Interpreter4exprEv>
    2890:	ce 01       	movw	r24, r28
    2892:	01 96       	adiw	r24, 0x01	; 1
    2894:	0e 94 ab 22 	call	0x4556	; 0x4556 <_ZN5Value9ToBooleanEv>
    2898:	98 01       	movw	r18, r16
    289a:	2d 5b       	subi	r18, 0xBD	; 189
    289c:	3e 4f       	sbci	r19, 0xFE	; 254
    289e:	79 01       	movw	r14, r18
    28a0:	6c e0       	ldi	r22, 0x0C	; 12
    28a2:	88 23       	and	r24, r24
    28a4:	29 f1       	breq	.+74     	; 0x28f0 <_ZN11Interpreter12if_statementEv+0x90>
    28a6:	c8 01       	movw	r24, r16
    28a8:	0e 94 56 09 	call	0x12ac	; 0x12ac <_ZN11Interpreter3eatE9TokenType>
    28ac:	c8 01       	movw	r24, r16
    28ae:	0e 94 d6 11 	call	0x23ac	; 0x23ac <_ZN11Interpreter9statementEv>
    28b2:	67 e1       	ldi	r22, 0x17	; 23
    28b4:	c8 01       	movw	r24, r16
    28b6:	0e 94 56 09 	call	0x12ac	; 0x12ac <_ZN11Interpreter3eatE9TokenType>
    28ba:	f7 01       	movw	r30, r14
    28bc:	80 81       	ld	r24, Z
    28be:	8b 30       	cpi	r24, 0x0B	; 11
    28c0:	09 f0       	breq	.+2      	; 0x28c4 <_ZN11Interpreter12if_statementEv+0x64>
    28c2:	51 c0       	rjmp	.+162    	; 0x2966 <_ZN11Interpreter12if_statementEv+0x106>
    28c4:	6b e0       	ldi	r22, 0x0B	; 11
    28c6:	c8 01       	movw	r24, r16
    28c8:	0e 94 56 09 	call	0x12ac	; 0x12ac <_ZN11Interpreter3eatE9TokenType>
    28cc:	f7 01       	movw	r30, r14
    28ce:	80 81       	ld	r24, Z
    28d0:	87 31       	cpi	r24, 0x17	; 23
    28d2:	91 f1       	breq	.+100    	; 0x2938 <_ZN11Interpreter12if_statementEv+0xd8>
    28d4:	b8 01       	movw	r22, r16
    28d6:	ce 01       	movw	r24, r28
    28d8:	89 96       	adiw	r24, 0x29	; 41
    28da:	0e 94 b8 07 	call	0xf70	; 0xf70 <_ZN11Interpreter14get_next_tokenEv>
    28de:	89 e2       	ldi	r24, 0x29	; 41
    28e0:	fe 01       	movw	r30, r28
    28e2:	b9 96       	adiw	r30, 0x29	; 41
    28e4:	d7 01       	movw	r26, r14
    28e6:	01 90       	ld	r0, Z+
    28e8:	0d 92       	st	X+, r0
    28ea:	8a 95       	dec	r24
    28ec:	e1 f7       	brne	.-8      	; 0x28e6 <_ZN11Interpreter12if_statementEv+0x86>
    28ee:	ee cf       	rjmp	.-36     	; 0x28cc <_ZN11Interpreter12if_statementEv+0x6c>
    28f0:	c8 01       	movw	r24, r16
    28f2:	0e 94 56 09 	call	0x12ac	; 0x12ac <_ZN11Interpreter3eatE9TokenType>
    28f6:	f7 01       	movw	r30, r14
    28f8:	80 81       	ld	r24, Z
    28fa:	87 31       	cpi	r24, 0x17	; 23
    28fc:	71 f0       	breq	.+28     	; 0x291a <_ZN11Interpreter12if_statementEv+0xba>
    28fe:	b8 01       	movw	r22, r16
    2900:	ce 01       	movw	r24, r28
    2902:	89 96       	adiw	r24, 0x29	; 41
    2904:	0e 94 b8 07 	call	0xf70	; 0xf70 <_ZN11Interpreter14get_next_tokenEv>
    2908:	89 e2       	ldi	r24, 0x29	; 41
    290a:	fe 01       	movw	r30, r28
    290c:	b9 96       	adiw	r30, 0x29	; 41
    290e:	d7 01       	movw	r26, r14
    2910:	01 90       	ld	r0, Z+
    2912:	0d 92       	st	X+, r0
    2914:	8a 95       	dec	r24
    2916:	e1 f7       	brne	.-8      	; 0x2910 <_ZN11Interpreter12if_statementEv+0xb0>
    2918:	ee cf       	rjmp	.-36     	; 0x28f6 <_ZN11Interpreter12if_statementEv+0x96>
    291a:	67 e1       	ldi	r22, 0x17	; 23
    291c:	c8 01       	movw	r24, r16
    291e:	0e 94 56 09 	call	0x12ac	; 0x12ac <_ZN11Interpreter3eatE9TokenType>
    2922:	f7 01       	movw	r30, r14
    2924:	80 81       	ld	r24, Z
    2926:	8b 30       	cpi	r24, 0x0B	; 11
    2928:	61 f4       	brne	.+24     	; 0x2942 <_ZN11Interpreter12if_statementEv+0xe2>
    292a:	6b e0       	ldi	r22, 0x0B	; 11
    292c:	c8 01       	movw	r24, r16
    292e:	0e 94 56 09 	call	0x12ac	; 0x12ac <_ZN11Interpreter3eatE9TokenType>
    2932:	c8 01       	movw	r24, r16
    2934:	0e 94 d6 11 	call	0x23ac	; 0x23ac <_ZN11Interpreter9statementEv>
    2938:	67 e1       	ldi	r22, 0x17	; 23
    293a:	c8 01       	movw	r24, r16
    293c:	0e 94 56 09 	call	0x12ac	; 0x12ac <_ZN11Interpreter3eatE9TokenType>
    2940:	12 c0       	rjmp	.+36     	; 0x2966 <_ZN11Interpreter12if_statementEv+0x106>
    2942:	f7 01       	movw	r30, r14
    2944:	80 81       	ld	r24, Z
    2946:	87 31       	cpi	r24, 0x17	; 23
    2948:	b9 f3       	breq	.-18     	; 0x2938 <_ZN11Interpreter12if_statementEv+0xd8>
    294a:	b8 01       	movw	r22, r16
    294c:	ce 01       	movw	r24, r28
    294e:	89 96       	adiw	r24, 0x29	; 41
    2950:	0e 94 b8 07 	call	0xf70	; 0xf70 <_ZN11Interpreter14get_next_tokenEv>
    2954:	89 e2       	ldi	r24, 0x29	; 41
    2956:	fe 01       	movw	r30, r28
    2958:	b9 96       	adiw	r30, 0x29	; 41
    295a:	d7 01       	movw	r26, r14
    295c:	01 90       	ld	r0, Z+
    295e:	0d 92       	st	X+, r0
    2960:	8a 95       	dec	r24
    2962:	e1 f7       	brne	.-8      	; 0x295c <_ZN11Interpreter12if_statementEv+0xfc>
    2964:	ee cf       	rjmp	.-36     	; 0x2942 <_ZN11Interpreter12if_statementEv+0xe2>
    2966:	cf 5a       	subi	r28, 0xAF	; 175
    2968:	df 4f       	sbci	r29, 0xFF	; 255
    296a:	0f b6       	in	r0, 0x3f	; 63
    296c:	f8 94       	cli
    296e:	de bf       	out	0x3e, r29	; 62
    2970:	0f be       	out	0x3f, r0	; 63
    2972:	cd bf       	out	0x3d, r28	; 61
    2974:	df 91       	pop	r29
    2976:	cf 91       	pop	r28
    2978:	1f 91       	pop	r17
    297a:	0f 91       	pop	r16
    297c:	ff 90       	pop	r15
    297e:	ef 90       	pop	r14
    2980:	08 95       	ret

00002982 <_ZN11Interpreter15while_statementEv>:
    2982:	8f 92       	push	r8
    2984:	9f 92       	push	r9
    2986:	af 92       	push	r10
    2988:	bf 92       	push	r11
    298a:	cf 92       	push	r12
    298c:	df 92       	push	r13
    298e:	ef 92       	push	r14
    2990:	ff 92       	push	r15
    2992:	0f 93       	push	r16
    2994:	1f 93       	push	r17
    2996:	cf 93       	push	r28
    2998:	df 93       	push	r29
    299a:	cd b7       	in	r28, 0x3d	; 61
    299c:	de b7       	in	r29, 0x3e	; 62
    299e:	c1 55       	subi	r28, 0x51	; 81
    29a0:	d1 09       	sbc	r29, r1
    29a2:	0f b6       	in	r0, 0x3f	; 63
    29a4:	f8 94       	cli
    29a6:	de bf       	out	0x3e, r29	; 62
    29a8:	0f be       	out	0x3f, r0	; 63
    29aa:	cd bf       	out	0x3d, r28	; 61
    29ac:	8c 01       	movw	r16, r24
    29ae:	67 e2       	ldi	r22, 0x27	; 39
    29b0:	0e 94 56 09 	call	0x12ac	; 0x12ac <_ZN11Interpreter3eatE9TokenType>
    29b4:	58 01       	movw	r10, r16
    29b6:	82 ec       	ldi	r24, 0xC2	; 194
    29b8:	a8 1a       	sub	r10, r24
    29ba:	8e ef       	ldi	r24, 0xFE	; 254
    29bc:	b8 0a       	sbc	r11, r24
    29be:	f5 01       	movw	r30, r10
    29c0:	e0 80       	ld	r14, Z
    29c2:	f1 80       	ldd	r15, Z+1	; 0x01
    29c4:	f1 e0       	ldi	r31, 0x01	; 1
    29c6:	ef 1a       	sub	r14, r31
    29c8:	f1 08       	sbc	r15, r1
    29ca:	60 e2       	ldi	r22, 0x20	; 32
    29cc:	c8 01       	movw	r24, r16
    29ce:	0e 94 56 09 	call	0x12ac	; 0x12ac <_ZN11Interpreter3eatE9TokenType>
    29d2:	c8 01       	movw	r24, r16
    29d4:	8d 5b       	subi	r24, 0xBD	; 189
    29d6:	9e 4f       	sbci	r25, 0xFE	; 254
    29d8:	6c 01       	movw	r12, r24
    29da:	48 01       	movw	r8, r16
    29dc:	9e eb       	ldi	r25, 0xBE	; 190
    29de:	89 1a       	sub	r8, r25
    29e0:	9e ef       	ldi	r25, 0xFE	; 254
    29e2:	99 0a       	sbc	r9, r25
    29e4:	b8 01       	movw	r22, r16
    29e6:	ce 01       	movw	r24, r28
    29e8:	01 96       	adiw	r24, 0x01	; 1
    29ea:	0e 94 0f 10 	call	0x201e	; 0x201e <_ZN11Interpreter4exprEv>
    29ee:	ce 01       	movw	r24, r28
    29f0:	01 96       	adiw	r24, 0x01	; 1
    29f2:	0e 94 ab 22 	call	0x4556	; 0x4556 <_ZN5Value9ToBooleanEv>
    29f6:	88 23       	and	r24, r24
    29f8:	59 f1       	breq	.+86     	; 0x2a50 <_ZN11Interpreter15while_statementEv+0xce>
    29fa:	61 e2       	ldi	r22, 0x21	; 33
    29fc:	c8 01       	movw	r24, r16
    29fe:	0e 94 56 09 	call	0x12ac	; 0x12ac <_ZN11Interpreter3eatE9TokenType>
    2a02:	67 e1       	ldi	r22, 0x17	; 23
    2a04:	c8 01       	movw	r24, r16
    2a06:	0e 94 56 09 	call	0x12ac	; 0x12ac <_ZN11Interpreter3eatE9TokenType>
    2a0a:	f6 01       	movw	r30, r12
    2a0c:	80 81       	ld	r24, Z
    2a0e:	88 32       	cpi	r24, 0x28	; 40
    2a10:	21 f0       	breq	.+8      	; 0x2a1a <_ZN11Interpreter15while_statementEv+0x98>
    2a12:	c8 01       	movw	r24, r16
    2a14:	0e 94 d6 11 	call	0x23ac	; 0x23ac <_ZN11Interpreter9statementEv>
    2a18:	f4 cf       	rjmp	.-24     	; 0x2a02 <_ZN11Interpreter15while_statementEv+0x80>
    2a1a:	f5 01       	movw	r30, r10
    2a1c:	f1 82       	std	Z+1, r15	; 0x01
    2a1e:	e0 82       	st	Z, r14
    2a20:	b7 01       	movw	r22, r14
    2a22:	c8 01       	movw	r24, r16
    2a24:	0e 94 02 02 	call	0x404	; 0x404 <_ZN11Interpreter17get_next_pgm_byteEi>
    2a28:	f4 01       	movw	r30, r8
    2a2a:	80 83       	st	Z, r24
    2a2c:	b8 01       	movw	r22, r16
    2a2e:	ce 01       	movw	r24, r28
    2a30:	89 96       	adiw	r24, 0x29	; 41
    2a32:	0e 94 b8 07 	call	0xf70	; 0xf70 <_ZN11Interpreter14get_next_tokenEv>
    2a36:	89 e2       	ldi	r24, 0x29	; 41
    2a38:	fe 01       	movw	r30, r28
    2a3a:	b9 96       	adiw	r30, 0x29	; 41
    2a3c:	d6 01       	movw	r26, r12
    2a3e:	01 90       	ld	r0, Z+
    2a40:	0d 92       	st	X+, r0
    2a42:	8a 95       	dec	r24
    2a44:	e1 f7       	brne	.-8      	; 0x2a3e <_ZN11Interpreter15while_statementEv+0xbc>
    2a46:	60 e2       	ldi	r22, 0x20	; 32
    2a48:	c8 01       	movw	r24, r16
    2a4a:	0e 94 56 09 	call	0x12ac	; 0x12ac <_ZN11Interpreter3eatE9TokenType>
    2a4e:	ca cf       	rjmp	.-108    	; 0x29e4 <_ZN11Interpreter15while_statementEv+0x62>
    2a50:	f6 01       	movw	r30, r12
    2a52:	80 81       	ld	r24, Z
    2a54:	81 32       	cpi	r24, 0x21	; 33
    2a56:	31 f5       	brne	.+76     	; 0x2aa4 <_ZN11Interpreter15while_statementEv+0x122>
    2a58:	61 e2       	ldi	r22, 0x21	; 33
    2a5a:	c8 01       	movw	r24, r16
    2a5c:	0e 94 56 09 	call	0x12ac	; 0x12ac <_ZN11Interpreter3eatE9TokenType>
    2a60:	ee 24       	eor	r14, r14
    2a62:	e3 94       	inc	r14
    2a64:	f1 2c       	mov	r15, r1
    2a66:	b8 01       	movw	r22, r16
    2a68:	ce 01       	movw	r24, r28
    2a6a:	89 96       	adiw	r24, 0x29	; 41
    2a6c:	0e 94 b8 07 	call	0xf70	; 0xf70 <_ZN11Interpreter14get_next_tokenEv>
    2a70:	89 e2       	ldi	r24, 0x29	; 41
    2a72:	fe 01       	movw	r30, r28
    2a74:	b9 96       	adiw	r30, 0x29	; 41
    2a76:	d6 01       	movw	r26, r12
    2a78:	01 90       	ld	r0, Z+
    2a7a:	0d 92       	st	X+, r0
    2a7c:	8a 95       	dec	r24
    2a7e:	e1 f7       	brne	.-8      	; 0x2a78 <_ZN11Interpreter15while_statementEv+0xf6>
    2a80:	f6 01       	movw	r30, r12
    2a82:	80 81       	ld	r24, Z
    2a84:	87 32       	cpi	r24, 0x27	; 39
    2a86:	21 f4       	brne	.+8      	; 0x2a90 <_ZN11Interpreter15while_statementEv+0x10e>
    2a88:	ff ef       	ldi	r31, 0xFF	; 255
    2a8a:	ef 1a       	sub	r14, r31
    2a8c:	ff 0a       	sbc	r15, r31
    2a8e:	eb cf       	rjmp	.-42     	; 0x2a66 <_ZN11Interpreter15while_statementEv+0xe4>
    2a90:	88 32       	cpi	r24, 0x28	; 40
    2a92:	49 f7       	brne	.-46     	; 0x2a66 <_ZN11Interpreter15while_statementEv+0xe4>
    2a94:	81 e0       	ldi	r24, 0x01	; 1
    2a96:	e8 1a       	sub	r14, r24
    2a98:	f1 08       	sbc	r15, r1
    2a9a:	29 f7       	brne	.-54     	; 0x2a66 <_ZN11Interpreter15while_statementEv+0xe4>
    2a9c:	68 e2       	ldi	r22, 0x28	; 40
    2a9e:	c8 01       	movw	r24, r16
    2aa0:	0e 94 56 09 	call	0x12ac	; 0x12ac <_ZN11Interpreter3eatE9TokenType>
    2aa4:	cf 5a       	subi	r28, 0xAF	; 175
    2aa6:	df 4f       	sbci	r29, 0xFF	; 255
    2aa8:	0f b6       	in	r0, 0x3f	; 63
    2aaa:	f8 94       	cli
    2aac:	de bf       	out	0x3e, r29	; 62
    2aae:	0f be       	out	0x3f, r0	; 63
    2ab0:	cd bf       	out	0x3d, r28	; 61
    2ab2:	df 91       	pop	r29
    2ab4:	cf 91       	pop	r28
    2ab6:	1f 91       	pop	r17
    2ab8:	0f 91       	pop	r16
    2aba:	ff 90       	pop	r15
    2abc:	ef 90       	pop	r14
    2abe:	df 90       	pop	r13
    2ac0:	cf 90       	pop	r12
    2ac2:	bf 90       	pop	r11
    2ac4:	af 90       	pop	r10
    2ac6:	9f 90       	pop	r9
    2ac8:	8f 90       	pop	r8
    2aca:	08 95       	ret

00002acc <main>:
    2acc:	cf 93       	push	r28
    2ace:	df 93       	push	r29
    2ad0:	cd b7       	in	r28, 0x3d	; 61
    2ad2:	de b7       	in	r29, 0x3e	; 62
    2ad4:	c5 58       	subi	r28, 0x85	; 133
    2ad6:	d1 40       	sbci	r29, 0x01	; 1
    2ad8:	0f b6       	in	r0, 0x3f	; 63
    2ada:	f8 94       	cli
    2adc:	de bf       	out	0x3e, r29	; 62
    2ade:	0f be       	out	0x3f, r0	; 63
    2ae0:	cd bf       	out	0x3d, r28	; 61
    2ae2:	0f b6       	in	r0, 0x3f	; 63
    2ae4:	f8 94       	cli
    2ae6:	a8 95       	wdr
    2ae8:	81 b5       	in	r24, 0x21	; 33
    2aea:	88 61       	ori	r24, 0x18	; 24
    2aec:	81 bd       	out	0x21, r24	; 33
    2aee:	11 bc       	out	0x21, r1	; 33
    2af0:	0f be       	out	0x3f, r0	; 63
    2af2:	88 e1       	ldi	r24, 0x18	; 24
    2af4:	8a b9       	out	0x0a, r24	; 10
    2af6:	87 e0       	ldi	r24, 0x07	; 7
    2af8:	89 b9       	out	0x09, r24	; 9
    2afa:	8f ef       	ldi	r24, 0xFF	; 255
    2afc:	84 bb       	out	0x14, r24	; 20
    2afe:	15 ba       	out	0x15, r1	; 21
    2b00:	80 91 16 02 	lds	r24, 0x0216	; 0x800216 <waitPeriod>
    2b04:	90 91 17 02 	lds	r25, 0x0217	; 0x800217 <waitPeriod+0x1>
    2b08:	9c 01       	movw	r18, r24
    2b0a:	2f 5f       	subi	r18, 0xFF	; 255
    2b0c:	3f 4f       	sbci	r19, 0xFF	; 255
    2b0e:	30 93 17 02 	sts	0x0217, r19	; 0x800217 <waitPeriod+0x1>
    2b12:	20 93 16 02 	sts	0x0216, r18	; 0x800216 <waitPeriod>
    2b16:	44 97       	sbiw	r24, 0x14	; 20
    2b18:	2c f5       	brge	.+74     	; 0x2b64 <main+0x98>
    2b1a:	0e 94 55 16 	call	0x2caa	; 0x2caa <_Z8get_bytev>
    2b1e:	80 93 12 02 	sts	0x0212, r24	; 0x800212 <__data_end>
    2b22:	88 23       	and	r24, r24
    2b24:	69 f3       	breq	.-38     	; 0x2b00 <main+0x34>
    2b26:	91 e0       	ldi	r25, 0x01	; 1
    2b28:	90 93 13 02 	sts	0x0213, r25	; 0x800213 <charRx>
    2b2c:	8a 33       	cpi	r24, 0x3A	; 58
    2b2e:	d1 f4       	brne	.+52     	; 0x2b64 <main+0x98>
    2b30:	ce 01       	movw	r24, r28
    2b32:	01 96       	adiw	r24, 0x01	; 1
    2b34:	0e 94 d9 01 	call	0x3b2	; 0x3b2 <_ZN11InterpreterC1Ev>
    2b38:	80 e0       	ldi	r24, 0x00	; 0
    2b3a:	0e 94 95 01 	call	0x32a	; 0x32a <_Z7InitLCDb>
    2b3e:	87 e0       	ldi	r24, 0x07	; 7
    2b40:	92 e0       	ldi	r25, 0x02	; 2
    2b42:	0e 94 33 16 	call	0x2c66	; 0x2c66 <_Z11send_stringPc>
    2b46:	69 e1       	ldi	r22, 0x19	; 25
    2b48:	70 e0       	ldi	r23, 0x00	; 0
    2b4a:	ce 01       	movw	r24, r28
    2b4c:	83 59       	subi	r24, 0x93	; 147
    2b4e:	9e 4f       	sbci	r25, 0xFE	; 254
    2b50:	0e 94 3c 16 	call	0x2c78	; 0x2c78 <_Z10get_stringPcj>
    2b54:	be 01       	movw	r22, r28
    2b56:	63 59       	subi	r22, 0x93	; 147
    2b58:	7e 4f       	sbci	r23, 0xFE	; 254
    2b5a:	ce 01       	movw	r24, r28
    2b5c:	01 96       	adiw	r24, 0x01	; 1
    2b5e:	0e 94 35 13 	call	0x266a	; 0x266a <_ZN11Interpreter17execute_statementEPc>
    2b62:	ed cf       	rjmp	.-38     	; 0x2b3e <main+0x72>
    2b64:	80 91 13 02 	lds	r24, 0x0213	; 0x800213 <charRx>
    2b68:	88 23       	and	r24, r24
    2b6a:	69 f1       	breq	.+90     	; 0x2bc6 <main+0xfa>
    2b6c:	10 e4       	ldi	r17, 0x40	; 64
    2b6e:	80 91 12 02 	lds	r24, 0x0212	; 0x800212 <__data_end>
    2b72:	88 23       	and	r24, r24
    2b74:	f9 f0       	breq	.+62     	; 0x2bb4 <main+0xe8>
    2b76:	e1 9b       	sbis	0x1c, 1	; 28
    2b78:	02 c0       	rjmp	.+4      	; 0x2b7e <main+0xb2>
    2b7a:	15 bb       	out	0x15, r17	; 21
    2b7c:	fc cf       	rjmp	.-8      	; 0x2b76 <main+0xaa>
    2b7e:	80 91 14 02 	lds	r24, 0x0214	; 0x800214 <eePtr>
    2b82:	90 91 15 02 	lds	r25, 0x0215	; 0x800215 <eePtr+0x1>
    2b86:	60 91 12 02 	lds	r22, 0x0212	; 0x800212 <__data_end>
    2b8a:	80 50       	subi	r24, 0x00	; 0
    2b8c:	90 40       	sbci	r25, 0x00	; 0
    2b8e:	0e 94 4a 2f 	call	0x5e94	; 0x5e94 <eeprom_write_byte>
    2b92:	80 91 14 02 	lds	r24, 0x0214	; 0x800214 <eePtr>
    2b96:	90 91 15 02 	lds	r25, 0x0215	; 0x800215 <eePtr+0x1>
    2b9a:	01 96       	adiw	r24, 0x01	; 1
    2b9c:	90 93 15 02 	sts	0x0215, r25	; 0x800215 <eePtr+0x1>
    2ba0:	80 93 14 02 	sts	0x0214, r24	; 0x800214 <eePtr>
    2ba4:	8a e0       	ldi	r24, 0x0A	; 10
    2ba6:	0e 94 6a 16 	call	0x2cd4	; 0x2cd4 <_Z9send_bytec>
    2baa:	0e 94 55 16 	call	0x2caa	; 0x2caa <_Z8get_bytev>
    2bae:	80 93 12 02 	sts	0x0212, r24	; 0x800212 <__data_end>
    2bb2:	dd cf       	rjmp	.-70     	; 0x2b6e <main+0xa2>
    2bb4:	80 91 14 02 	lds	r24, 0x0214	; 0x800214 <eePtr>
    2bb8:	90 91 15 02 	lds	r25, 0x0215	; 0x800215 <eePtr+0x1>
    2bbc:	60 e0       	ldi	r22, 0x00	; 0
    2bbe:	80 50       	subi	r24, 0x00	; 0
    2bc0:	90 40       	sbci	r25, 0x00	; 0
    2bc2:	0e 94 4a 2f 	call	0x5e94	; 0x5e94 <eeprom_write_byte>
    2bc6:	60 e0       	ldi	r22, 0x00	; 0
    2bc8:	70 e0       	ldi	r23, 0x00	; 0
    2bca:	ce 01       	movw	r24, r28
    2bcc:	01 96       	adiw	r24, 0x01	; 1
    2bce:	0e 94 7b 0a 	call	0x14f6	; 0x14f6 <_ZN11InterpreterC1EPc>
    2bd2:	ce 01       	movw	r24, r28
    2bd4:	01 96       	adiw	r24, 0x01	; 1
    2bd6:	0e 94 9e 13 	call	0x273c	; 0x273c <_ZN11Interpreter3runEv>
    2bda:	9d ef       	ldi	r25, 0xFD	; 253
    2bdc:	8e ef       	ldi	r24, 0xFE	; 254
    2bde:	2f ef       	ldi	r18, 0xFF	; 255
    2be0:	3f e7       	ldi	r19, 0x7F	; 127
    2be2:	46 e1       	ldi	r20, 0x16	; 22
    2be4:	21 50       	subi	r18, 0x01	; 1
    2be6:	30 40       	sbci	r19, 0x00	; 0
    2be8:	40 40       	sbci	r20, 0x00	; 0
    2bea:	e1 f7       	brne	.-8      	; 0x2be4 <main+0x118>
    2bec:	00 c0       	rjmp	.+0      	; 0x2bee <main+0x122>
    2bee:	00 00       	nop
    2bf0:	95 bb       	out	0x15, r25	; 21
    2bf2:	2f ef       	ldi	r18, 0xFF	; 255
    2bf4:	3f e7       	ldi	r19, 0x7F	; 127
    2bf6:	46 e1       	ldi	r20, 0x16	; 22
    2bf8:	21 50       	subi	r18, 0x01	; 1
    2bfa:	30 40       	sbci	r19, 0x00	; 0
    2bfc:	40 40       	sbci	r20, 0x00	; 0
    2bfe:	e1 f7       	brne	.-8      	; 0x2bf8 <main+0x12c>
    2c00:	00 c0       	rjmp	.+0      	; 0x2c02 <main+0x136>
    2c02:	00 00       	nop
    2c04:	85 bb       	out	0x15, r24	; 21
    2c06:	eb cf       	rjmp	.-42     	; 0x2bde <main+0x112>

00002c08 <__vector_13>:
    2c08:	1f 92       	push	r1
    2c0a:	0f 92       	push	r0
    2c0c:	0f b6       	in	r0, 0x3f	; 63
    2c0e:	0f 92       	push	r0
    2c10:	11 24       	eor	r1, r1
    2c12:	2f 93       	push	r18
    2c14:	3f 93       	push	r19
    2c16:	4f 93       	push	r20
    2c18:	8f 93       	push	r24
    2c1a:	9f 93       	push	r25
    2c1c:	ef 93       	push	r30
    2c1e:	ff 93       	push	r31
    2c20:	80 91 1c 02 	lds	r24, 0x021C	; 0x80021c <head>
    2c24:	90 91 1d 02 	lds	r25, 0x021D	; 0x80021d <head+0x1>
    2c28:	9c 01       	movw	r18, r24
    2c2a:	2f 5f       	subi	r18, 0xFF	; 255
    2c2c:	3f 4f       	sbci	r19, 0xFF	; 255
    2c2e:	30 93 1d 02 	sts	0x021D, r19	; 0x80021d <head+0x1>
    2c32:	20 93 1c 02 	sts	0x021C, r18	; 0x80021c <head>
    2c36:	4c b1       	in	r20, 0x0c	; 12
    2c38:	fc 01       	movw	r30, r24
    2c3a:	e2 5e       	subi	r30, 0xE2	; 226
    2c3c:	fd 4f       	sbci	r31, 0xFD	; 253
    2c3e:	40 83       	st	Z, r20
    2c40:	24 36       	cpi	r18, 0x64	; 100
    2c42:	31 05       	cpc	r19, r1
    2c44:	24 f0       	brlt	.+8      	; 0x2c4e <__vector_13+0x46>
    2c46:	10 92 1d 02 	sts	0x021D, r1	; 0x80021d <head+0x1>
    2c4a:	10 92 1c 02 	sts	0x021C, r1	; 0x80021c <head>
    2c4e:	ff 91       	pop	r31
    2c50:	ef 91       	pop	r30
    2c52:	9f 91       	pop	r25
    2c54:	8f 91       	pop	r24
    2c56:	4f 91       	pop	r20
    2c58:	3f 91       	pop	r19
    2c5a:	2f 91       	pop	r18
    2c5c:	0f 90       	pop	r0
    2c5e:	0f be       	out	0x3f, r0	; 63
    2c60:	0f 90       	pop	r0
    2c62:	1f 90       	pop	r1
    2c64:	18 95       	reti

00002c66 <_Z11send_stringPc>:
    2c66:	fc 01       	movw	r30, r24
    2c68:	5d 9b       	sbis	0x0b, 5	; 11
    2c6a:	fe cf       	rjmp	.-4      	; 0x2c68 <_Z11send_stringPc+0x2>
    2c6c:	81 91       	ld	r24, Z+
    2c6e:	8c b9       	out	0x0c, r24	; 12
    2c70:	80 81       	ld	r24, Z
    2c72:	81 11       	cpse	r24, r1
    2c74:	f9 cf       	rjmp	.-14     	; 0x2c68 <_Z11send_stringPc+0x2>
    2c76:	08 95       	ret

00002c78 <_Z10get_stringPcj>:
    2c78:	fc 01       	movw	r30, r24
    2c7a:	20 e0       	ldi	r18, 0x00	; 0
    2c7c:	30 e0       	ldi	r19, 0x00	; 0
    2c7e:	5f 9b       	sbis	0x0b, 7	; 11
    2c80:	fe cf       	rjmp	.-4      	; 0x2c7e <_Z10get_stringPcj+0x6>
    2c82:	4c b1       	in	r20, 0x0c	; 12
    2c84:	41 93       	st	Z+, r20
    2c86:	4a 30       	cpi	r20, 0x0A	; 10
    2c88:	39 f0       	breq	.+14     	; 0x2c98 <_Z10get_stringPcj+0x20>
    2c8a:	4d 30       	cpi	r20, 0x0D	; 13
    2c8c:	29 f0       	breq	.+10     	; 0x2c98 <_Z10get_stringPcj+0x20>
    2c8e:	2f 5f       	subi	r18, 0xFF	; 255
    2c90:	3f 4f       	sbci	r19, 0xFF	; 255
    2c92:	26 17       	cp	r18, r22
    2c94:	37 07       	cpc	r19, r23
    2c96:	98 f3       	brcs	.-26     	; 0x2c7e <_Z10get_stringPcj+0x6>
    2c98:	fc 01       	movw	r30, r24
    2c9a:	e2 0f       	add	r30, r18
    2c9c:	f3 1f       	adc	r31, r19
    2c9e:	26 17       	cp	r18, r22
    2ca0:	37 07       	cpc	r19, r23
    2ca2:	09 f4       	brne	.+2      	; 0x2ca6 <_Z10get_stringPcj+0x2e>
    2ca4:	31 97       	sbiw	r30, 0x01	; 1
    2ca6:	10 82       	st	Z, r1
    2ca8:	08 95       	ret

00002caa <_Z8get_bytev>:
    2caa:	80 e0       	ldi	r24, 0x00	; 0
    2cac:	90 e0       	ldi	r25, 0x00	; 0
    2cae:	5f 99       	sbic	0x0b, 7	; 11
    2cb0:	0c c0       	rjmp	.+24     	; 0x2cca <_Z8get_bytev+0x20>
    2cb2:	01 96       	adiw	r24, 0x01	; 1
    2cb4:	85 36       	cpi	r24, 0x65	; 101
    2cb6:	91 05       	cpc	r25, r1
    2cb8:	11 f4       	brne	.+4      	; 0x2cbe <_Z8get_bytev+0x14>
    2cba:	80 e0       	ldi	r24, 0x00	; 0
    2cbc:	08 95       	ret
    2cbe:	e6 e6       	ldi	r30, 0x66	; 102
    2cc0:	fe e0       	ldi	r31, 0x0E	; 14
    2cc2:	31 97       	sbiw	r30, 0x01	; 1
    2cc4:	f1 f7       	brne	.-4      	; 0x2cc2 <_Z8get_bytev+0x18>
    2cc6:	00 00       	nop
    2cc8:	f2 cf       	rjmp	.-28     	; 0x2cae <_Z8get_bytev+0x4>
    2cca:	84 36       	cpi	r24, 0x64	; 100
    2ccc:	91 05       	cpc	r25, r1
    2cce:	a9 f3       	breq	.-22     	; 0x2cba <_Z8get_bytev+0x10>
    2cd0:	8c b1       	in	r24, 0x0c	; 12
    2cd2:	08 95       	ret

00002cd4 <_Z9send_bytec>:
    2cd4:	5d 9b       	sbis	0x0b, 5	; 11
    2cd6:	fe cf       	rjmp	.-4      	; 0x2cd4 <_Z9send_bytec>
    2cd8:	8c b9       	out	0x0c, r24	; 12
    2cda:	08 95       	ret

00002cdc <_Z10readRxlinev>:
    2cdc:	0f 93       	push	r16
    2cde:	1f 93       	push	r17
    2ce0:	cf 93       	push	r28
    2ce2:	df 93       	push	r29
    2ce4:	00 91 1a 02 	lds	r16, 0x021A	; 0x80021a <tail>
    2ce8:	10 91 1b 02 	lds	r17, 0x021B	; 0x80021b <tail+0x1>
    2cec:	c8 01       	movw	r24, r16
    2cee:	fc 01       	movw	r30, r24
    2cf0:	e2 5e       	subi	r30, 0xE2	; 226
    2cf2:	fd 4f       	sbci	r31, 0xFD	; 253
    2cf4:	40 81       	ld	r20, Z
    2cf6:	9c 01       	movw	r18, r24
    2cf8:	2f 5f       	subi	r18, 0xFF	; 255
    2cfa:	3f 4f       	sbci	r19, 0xFF	; 255
    2cfc:	4a 30       	cpi	r20, 0x0A	; 10
    2cfe:	71 f0       	breq	.+28     	; 0x2d1c <_Z10readRxlinev+0x40>
    2d00:	4d 30       	cpi	r20, 0x0D	; 13
    2d02:	61 f0       	breq	.+24     	; 0x2d1c <_Z10readRxlinev+0x40>
    2d04:	c9 01       	movw	r24, r18
    2d06:	24 36       	cpi	r18, 0x64	; 100
    2d08:	31 05       	cpc	r19, r1
    2d0a:	14 f0       	brlt	.+4      	; 0x2d10 <_Z10readRxlinev+0x34>
    2d0c:	80 e0       	ldi	r24, 0x00	; 0
    2d0e:	90 e0       	ldi	r25, 0x00	; 0
    2d10:	08 17       	cp	r16, r24
    2d12:	19 07       	cpc	r17, r25
    2d14:	61 f7       	brne	.-40     	; 0x2cee <_Z10readRxlinev+0x12>
    2d16:	80 e0       	ldi	r24, 0x00	; 0
    2d18:	90 e0       	ldi	r25, 0x00	; 0
    2d1a:	50 c0       	rjmp	.+160    	; 0x2dbc <_Z10readRxlinev+0xe0>
    2d1c:	80 17       	cp	r24, r16
    2d1e:	91 07       	cpc	r25, r17
    2d20:	34 f4       	brge	.+12     	; 0x2d2e <_Z10readRxlinev+0x52>
    2d22:	80 1b       	sub	r24, r16
    2d24:	91 0b       	sbc	r25, r17
    2d26:	ec 01       	movw	r28, r24
    2d28:	cc 59       	subi	r28, 0x9C	; 156
    2d2a:	df 4f       	sbci	r29, 0xFF	; 255
    2d2c:	03 c0       	rjmp	.+6      	; 0x2d34 <_Z10readRxlinev+0x58>
    2d2e:	ec 01       	movw	r28, r24
    2d30:	c0 1b       	sub	r28, r16
    2d32:	d1 0b       	sbc	r29, r17
    2d34:	25 36       	cpi	r18, 0x65	; 101
    2d36:	31 05       	cpc	r19, r1
    2d38:	2c f4       	brge	.+10     	; 0x2d44 <_Z10readRxlinev+0x68>
    2d3a:	30 93 1b 02 	sts	0x021B, r19	; 0x80021b <tail+0x1>
    2d3e:	20 93 1a 02 	sts	0x021A, r18	; 0x80021a <tail>
    2d42:	04 c0       	rjmp	.+8      	; 0x2d4c <_Z10readRxlinev+0x70>
    2d44:	10 92 1b 02 	sts	0x021B, r1	; 0x80021b <tail+0x1>
    2d48:	10 92 1a 02 	sts	0x021A, r1	; 0x80021a <tail>
    2d4c:	80 91 18 02 	lds	r24, 0x0218	; 0x800218 <msg>
    2d50:	90 91 19 02 	lds	r25, 0x0219	; 0x800219 <msg+0x1>
    2d54:	00 97       	sbiw	r24, 0x00	; 0
    2d56:	11 f0       	breq	.+4      	; 0x2d5c <_Z10readRxlinev+0x80>
    2d58:	0e 94 1c 2a 	call	0x5438	; 0x5438 <free>
    2d5c:	ce 01       	movw	r24, r28
    2d5e:	01 96       	adiw	r24, 0x01	; 1
    2d60:	0e 94 84 29 	call	0x5308	; 0x5308 <malloc>
    2d64:	90 93 19 02 	sts	0x0219, r25	; 0x800219 <msg+0x1>
    2d68:	80 93 18 02 	sts	0x0218, r24	; 0x800218 <msg>
    2d6c:	80 e0       	ldi	r24, 0x00	; 0
    2d6e:	90 e0       	ldi	r25, 0x00	; 0
    2d70:	20 91 18 02 	lds	r18, 0x0218	; 0x800218 <msg>
    2d74:	30 91 19 02 	lds	r19, 0x0219	; 0x800219 <msg+0x1>
    2d78:	8c 17       	cp	r24, r28
    2d7a:	9d 07       	cpc	r25, r29
    2d7c:	94 f4       	brge	.+36     	; 0x2da2 <_Z10readRxlinev+0xc6>
    2d7e:	f8 01       	movw	r30, r16
    2d80:	e2 5e       	subi	r30, 0xE2	; 226
    2d82:	fd 4f       	sbci	r31, 0xFD	; 253
    2d84:	40 81       	ld	r20, Z
    2d86:	d9 01       	movw	r26, r18
    2d88:	a8 0f       	add	r26, r24
    2d8a:	b9 1f       	adc	r27, r25
    2d8c:	4c 93       	st	X, r20
    2d8e:	0f 5f       	subi	r16, 0xFF	; 255
    2d90:	1f 4f       	sbci	r17, 0xFF	; 255
    2d92:	10 82       	st	Z, r1
    2d94:	04 36       	cpi	r16, 0x64	; 100
    2d96:	11 05       	cpc	r17, r1
    2d98:	14 f0       	brlt	.+4      	; 0x2d9e <_Z10readRxlinev+0xc2>
    2d9a:	00 e0       	ldi	r16, 0x00	; 0
    2d9c:	10 e0       	ldi	r17, 0x00	; 0
    2d9e:	01 96       	adiw	r24, 0x01	; 1
    2da0:	e7 cf       	rjmp	.-50     	; 0x2d70 <_Z10readRxlinev+0x94>
    2da2:	ce 01       	movw	r24, r28
    2da4:	d7 ff       	sbrs	r29, 7
    2da6:	02 c0       	rjmp	.+4      	; 0x2dac <_Z10readRxlinev+0xd0>
    2da8:	80 e0       	ldi	r24, 0x00	; 0
    2daa:	90 e0       	ldi	r25, 0x00	; 0
    2dac:	e9 01       	movw	r28, r18
    2dae:	c8 0f       	add	r28, r24
    2db0:	d9 1f       	adc	r29, r25
    2db2:	18 82       	st	Y, r1
    2db4:	80 91 18 02 	lds	r24, 0x0218	; 0x800218 <msg>
    2db8:	90 91 19 02 	lds	r25, 0x0219	; 0x800219 <msg+0x1>
    2dbc:	df 91       	pop	r29
    2dbe:	cf 91       	pop	r28
    2dc0:	1f 91       	pop	r17
    2dc2:	0f 91       	pop	r16
    2dc4:	08 95       	ret

00002dc6 <_ZN5ValueC1Ev>:
    2dc6:	08 95       	ret

00002dc8 <_ZN5ValueC1Ei>:
    2dc8:	cf 93       	push	r28
    2dca:	df 93       	push	r29
    2dcc:	ec 01       	movw	r28, r24
    2dce:	6c 83       	std	Y+4, r22	; 0x04
    2dd0:	7d 83       	std	Y+5, r23	; 0x05
    2dd2:	7f 93       	push	r23
    2dd4:	6f 93       	push	r22
    2dd6:	8b e0       	ldi	r24, 0x0B	; 11
    2dd8:	92 e0       	ldi	r25, 0x02	; 2
    2dda:	9f 93       	push	r25
    2ddc:	8f 93       	push	r24
    2dde:	ce 01       	movw	r24, r28
    2de0:	0a 96       	adiw	r24, 0x0a	; 10
    2de2:	9f 93       	push	r25
    2de4:	8f 93       	push	r24
    2de6:	0e 94 5c 2d 	call	0x5ab8	; 0x5ab8 <sprintf>
    2dea:	1e a2       	std	Y+38, r1	; 0x26
    2dec:	0f 90       	pop	r0
    2dee:	0f 90       	pop	r0
    2df0:	0f 90       	pop	r0
    2df2:	0f 90       	pop	r0
    2df4:	0f 90       	pop	r0
    2df6:	0f 90       	pop	r0
    2df8:	df 91       	pop	r29
    2dfa:	cf 91       	pop	r28
    2dfc:	08 95       	ret

00002dfe <_ZN5ValueC1Ec>:
    2dfe:	cf 93       	push	r28
    2e00:	df 93       	push	r29
    2e02:	ec 01       	movw	r28, r24
    2e04:	86 2f       	mov	r24, r22
    2e06:	90 e0       	ldi	r25, 0x00	; 0
    2e08:	9d 83       	std	Y+5, r25	; 0x05
    2e0a:	8c 83       	std	Y+4, r24	; 0x04
    2e0c:	1f 92       	push	r1
    2e0e:	6f 93       	push	r22
    2e10:	8b e0       	ldi	r24, 0x0B	; 11
    2e12:	92 e0       	ldi	r25, 0x02	; 2
    2e14:	9f 93       	push	r25
    2e16:	8f 93       	push	r24
    2e18:	ce 01       	movw	r24, r28
    2e1a:	0a 96       	adiw	r24, 0x0a	; 10
    2e1c:	9f 93       	push	r25
    2e1e:	8f 93       	push	r24
    2e20:	0e 94 5c 2d 	call	0x5ab8	; 0x5ab8 <sprintf>
    2e24:	1e a2       	std	Y+38, r1	; 0x26
    2e26:	0f 90       	pop	r0
    2e28:	0f 90       	pop	r0
    2e2a:	0f 90       	pop	r0
    2e2c:	0f 90       	pop	r0
    2e2e:	0f 90       	pop	r0
    2e30:	0f 90       	pop	r0
    2e32:	df 91       	pop	r29
    2e34:	cf 91       	pop	r28
    2e36:	08 95       	ret

00002e38 <_ZN5ValueC1EPKc>:
    2e38:	cf 93       	push	r28
    2e3a:	df 93       	push	r29
    2e3c:	ec 01       	movw	r28, r24
    2e3e:	0a 96       	adiw	r24, 0x0a	; 10
    2e40:	0e 94 06 2d 	call	0x5a0c	; 0x5a0c <strcpy>
    2e44:	81 e0       	ldi	r24, 0x01	; 1
    2e46:	8e a3       	std	Y+38, r24	; 0x26
    2e48:	df 91       	pop	r29
    2e4a:	cf 91       	pop	r28
    2e4c:	08 95       	ret

00002e4e <_ZN5ValueC1Eb>:
    2e4e:	fc 01       	movw	r30, r24
    2e50:	67 a3       	std	Z+39, r22	; 0x27
    2e52:	22 e0       	ldi	r18, 0x02	; 2
    2e54:	26 a3       	std	Z+38, r18	; 0x26
    2e56:	08 95       	ret

00002e58 <_ZN5ValueC1Ed>:
    2e58:	fc 01       	movw	r30, r24
    2e5a:	46 83       	std	Z+6, r20	; 0x06
    2e5c:	57 83       	std	Z+7, r21	; 0x07
    2e5e:	60 87       	std	Z+8, r22	; 0x08
    2e60:	71 87       	std	Z+9, r23	; 0x09
    2e62:	23 e0       	ldi	r18, 0x03	; 3
    2e64:	26 a3       	std	Z+38, r18	; 0x26
    2e66:	08 95       	ret

00002e68 <_ZN5ValueC1E4TYPEi>:
    2e68:	0f 93       	push	r16
    2e6a:	1f 93       	push	r17
    2e6c:	cf 93       	push	r28
    2e6e:	df 93       	push	r29
    2e70:	ec 01       	movw	r28, r24
    2e72:	8a 01       	movw	r16, r20
    2e74:	6e a3       	std	Y+38, r22	; 0x26
    2e76:	81 e0       	ldi	r24, 0x01	; 1
    2e78:	8b a3       	std	Y+35, r24	; 0x23
    2e7a:	61 11       	cpse	r22, r1
    2e7c:	11 c0       	rjmp	.+34     	; 0x2ea0 <_ZN5ValueC1E4TYPEi+0x38>
    2e7e:	ca 01       	movw	r24, r20
    2e80:	88 0f       	add	r24, r24
    2e82:	99 1f       	adc	r25, r25
    2e84:	0e 94 84 29 	call	0x5308	; 0x5308 <malloc>
    2e88:	88 83       	st	Y, r24
    2e8a:	99 83       	std	Y+1, r25	; 0x01
    2e8c:	fc 01       	movw	r30, r24
    2e8e:	80 e0       	ldi	r24, 0x00	; 0
    2e90:	90 e0       	ldi	r25, 0x00	; 0
    2e92:	80 17       	cp	r24, r16
    2e94:	91 07       	cpc	r25, r17
    2e96:	dc f4       	brge	.+54     	; 0x2ece <_ZN5ValueC1E4TYPEi+0x66>
    2e98:	11 92       	st	Z+, r1
    2e9a:	11 92       	st	Z+, r1
    2e9c:	01 96       	adiw	r24, 0x01	; 1
    2e9e:	f9 cf       	rjmp	.-14     	; 0x2e92 <_ZN5ValueC1E4TYPEi+0x2a>
    2ea0:	63 30       	cpi	r22, 0x03	; 3
    2ea2:	a9 f4       	brne	.+42     	; 0x2ece <_ZN5ValueC1E4TYPEi+0x66>
    2ea4:	ca 01       	movw	r24, r20
    2ea6:	88 0f       	add	r24, r24
    2ea8:	99 1f       	adc	r25, r25
    2eaa:	88 0f       	add	r24, r24
    2eac:	99 1f       	adc	r25, r25
    2eae:	0e 94 84 29 	call	0x5308	; 0x5308 <malloc>
    2eb2:	8a 83       	std	Y+2, r24	; 0x02
    2eb4:	9b 83       	std	Y+3, r25	; 0x03
    2eb6:	fc 01       	movw	r30, r24
    2eb8:	80 e0       	ldi	r24, 0x00	; 0
    2eba:	90 e0       	ldi	r25, 0x00	; 0
    2ebc:	80 17       	cp	r24, r16
    2ebe:	91 07       	cpc	r25, r17
    2ec0:	34 f4       	brge	.+12     	; 0x2ece <_ZN5ValueC1E4TYPEi+0x66>
    2ec2:	11 92       	st	Z+, r1
    2ec4:	11 92       	st	Z+, r1
    2ec6:	11 92       	st	Z+, r1
    2ec8:	11 92       	st	Z+, r1
    2eca:	01 96       	adiw	r24, 0x01	; 1
    2ecc:	f7 cf       	rjmp	.-18     	; 0x2ebc <_ZN5ValueC1E4TYPEi+0x54>
    2ece:	df 91       	pop	r29
    2ed0:	cf 91       	pop	r28
    2ed2:	1f 91       	pop	r17
    2ed4:	0f 91       	pop	r16
    2ed6:	08 95       	ret

00002ed8 <_ZplRK5ValueS1_>:
    2ed8:	5f 92       	push	r5
    2eda:	6f 92       	push	r6
    2edc:	7f 92       	push	r7
    2ede:	8f 92       	push	r8
    2ee0:	9f 92       	push	r9
    2ee2:	af 92       	push	r10
    2ee4:	bf 92       	push	r11
    2ee6:	cf 92       	push	r12
    2ee8:	df 92       	push	r13
    2eea:	ef 92       	push	r14
    2eec:	ff 92       	push	r15
    2eee:	0f 93       	push	r16
    2ef0:	1f 93       	push	r17
    2ef2:	cf 93       	push	r28
    2ef4:	df 93       	push	r29
    2ef6:	cd b7       	in	r28, 0x3d	; 61
    2ef8:	de b7       	in	r29, 0x3e	; 62
    2efa:	ca 55       	subi	r28, 0x5A	; 90
    2efc:	d1 09       	sbc	r29, r1
    2efe:	0f b6       	in	r0, 0x3f	; 63
    2f00:	f8 94       	cli
    2f02:	de bf       	out	0x3e, r29	; 62
    2f04:	0f be       	out	0x3f, r0	; 63
    2f06:	cd bf       	out	0x3d, r28	; 61
    2f08:	6c 01       	movw	r12, r24
    2f0a:	8b 01       	movw	r16, r22
    2f0c:	7a 01       	movw	r14, r20
    2f0e:	fb 01       	movw	r30, r22
    2f10:	56 a0       	ldd	r5, Z+38	; 0x26
    2f12:	fa 01       	movw	r30, r20
    2f14:	b6 a0       	ldd	r11, Z+38	; 0x26
    2f16:	f1 e0       	ldi	r31, 0x01	; 1
    2f18:	5f 16       	cp	r5, r31
    2f1a:	29 f1       	breq	.+74     	; 0x2f66 <_ZplRK5ValueS1_+0x8e>
    2f1c:	bf 12       	cpse	r11, r31
    2f1e:	aa c0       	rjmp	.+340    	; 0x3074 <_ZplRK5ValueS1_+0x19c>
    2f20:	ce 01       	movw	r24, r28
    2f22:	8e 5b       	subi	r24, 0xBE	; 190
    2f24:	9f 4f       	sbci	r25, 0xFF	; 255
    2f26:	5c 01       	movw	r10, r24
    2f28:	fb 01       	movw	r30, r22
    2f2a:	3a 96       	adiw	r30, 0x0a	; 10
    2f2c:	3f 01       	movw	r6, r30
    2f2e:	ca 01       	movw	r24, r20
    2f30:	0a 96       	adiw	r24, 0x0a	; 10
    2f32:	4c 01       	movw	r8, r24
    2f34:	51 10       	cpse	r5, r1
    2f36:	f3 c0       	rjmp	.+486    	; 0x311e <_ZplRK5ValueS1_+0x246>
    2f38:	fb 01       	movw	r30, r22
    2f3a:	85 81       	ldd	r24, Z+5	; 0x05
    2f3c:	8f 93       	push	r24
    2f3e:	84 81       	ldd	r24, Z+4	; 0x04
    2f40:	8f 93       	push	r24
    2f42:	8b e0       	ldi	r24, 0x0B	; 11
    2f44:	92 e0       	ldi	r25, 0x02	; 2
    2f46:	9f 93       	push	r25
    2f48:	8f 93       	push	r24
    2f4a:	bf 92       	push	r11
    2f4c:	af 92       	push	r10
    2f4e:	0e 94 5c 2d 	call	0x5ab8	; 0x5ab8 <sprintf>
    2f52:	b3 01       	movw	r22, r6
    2f54:	c5 01       	movw	r24, r10
    2f56:	0e 94 06 2d 	call	0x5a0c	; 0x5a0c <strcpy>
    2f5a:	b4 01       	movw	r22, r8
    2f5c:	c5 01       	movw	r24, r10
    2f5e:	0e 94 f2 2c 	call	0x59e4	; 0x59e4 <strcat>
    2f62:	b5 01       	movw	r22, r10
    2f64:	24 c0       	rjmp	.+72     	; 0x2fae <_ZplRK5ValueS1_+0xd6>
    2f66:	fb 01       	movw	r30, r22
    2f68:	3a 96       	adiw	r30, 0x0a	; 10
    2f6a:	4f 01       	movw	r8, r30
    2f6c:	b1 10       	cpse	r11, r1
    2f6e:	32 c0       	rjmp	.+100    	; 0x2fd4 <_ZplRK5ValueS1_+0xfc>
    2f70:	fa 01       	movw	r30, r20
    2f72:	85 81       	ldd	r24, Z+5	; 0x05
    2f74:	8f 93       	push	r24
    2f76:	84 81       	ldd	r24, Z+4	; 0x04
    2f78:	8f 93       	push	r24
    2f7a:	8b e0       	ldi	r24, 0x0B	; 11
    2f7c:	92 e0       	ldi	r25, 0x02	; 2
    2f7e:	9f 93       	push	r25
    2f80:	8f 93       	push	r24
    2f82:	8e 01       	movw	r16, r28
    2f84:	07 5d       	subi	r16, 0xD7	; 215
    2f86:	1f 4f       	sbci	r17, 0xFF	; 255
    2f88:	1f 93       	push	r17
    2f8a:	0f 93       	push	r16
    2f8c:	0e 94 5c 2d 	call	0x5ab8	; 0x5ab8 <sprintf>
    2f90:	b4 01       	movw	r22, r8
    2f92:	ce 01       	movw	r24, r28
    2f94:	8e 5b       	subi	r24, 0xBE	; 190
    2f96:	9f 4f       	sbci	r25, 0xFF	; 255
    2f98:	0e 94 06 2d 	call	0x5a0c	; 0x5a0c <strcpy>
    2f9c:	b8 01       	movw	r22, r16
    2f9e:	ce 01       	movw	r24, r28
    2fa0:	8e 5b       	subi	r24, 0xBE	; 190
    2fa2:	9f 4f       	sbci	r25, 0xFF	; 255
    2fa4:	0e 94 f2 2c 	call	0x59e4	; 0x59e4 <strcat>
    2fa8:	be 01       	movw	r22, r28
    2faa:	6e 5b       	subi	r22, 0xBE	; 190
    2fac:	7f 4f       	sbci	r23, 0xFF	; 255
    2fae:	ce 01       	movw	r24, r28
    2fb0:	01 96       	adiw	r24, 0x01	; 1
    2fb2:	0e 94 1c 17 	call	0x2e38	; 0x2e38 <_ZN5ValueC1EPKc>
    2fb6:	88 e2       	ldi	r24, 0x28	; 40
    2fb8:	fe 01       	movw	r30, r28
    2fba:	31 96       	adiw	r30, 0x01	; 1
    2fbc:	d6 01       	movw	r26, r12
    2fbe:	01 90       	ld	r0, Z+
    2fc0:	0d 92       	st	X+, r0
    2fc2:	8a 95       	dec	r24
    2fc4:	e1 f7       	brne	.-8      	; 0x2fbe <_ZplRK5ValueS1_+0xe6>
    2fc6:	0f 90       	pop	r0
    2fc8:	0f 90       	pop	r0
    2fca:	0f 90       	pop	r0
    2fcc:	0f 90       	pop	r0
    2fce:	0f 90       	pop	r0
    2fd0:	0f 90       	pop	r0
    2fd2:	c3 c0       	rjmp	.+390    	; 0x315a <_ZplRK5ValueS1_+0x282>
    2fd4:	f3 e0       	ldi	r31, 0x03	; 3
    2fd6:	bf 12       	cpse	r11, r31
    2fd8:	35 c0       	rjmp	.+106    	; 0x3044 <_ZplRK5ValueS1_+0x16c>
    2fda:	fa 01       	movw	r30, r20
    2fdc:	81 85       	ldd	r24, Z+9	; 0x09
    2fde:	8f 93       	push	r24
    2fe0:	80 85       	ldd	r24, Z+8	; 0x08
    2fe2:	8f 93       	push	r24
    2fe4:	87 81       	ldd	r24, Z+7	; 0x07
    2fe6:	8f 93       	push	r24
    2fe8:	86 81       	ldd	r24, Z+6	; 0x06
    2fea:	8f 93       	push	r24
    2fec:	8e e0       	ldi	r24, 0x0E	; 14
    2fee:	92 e0       	ldi	r25, 0x02	; 2
    2ff0:	9f 93       	push	r25
    2ff2:	8f 93       	push	r24
    2ff4:	8e 01       	movw	r16, r28
    2ff6:	07 5d       	subi	r16, 0xD7	; 215
    2ff8:	1f 4f       	sbci	r17, 0xFF	; 255
    2ffa:	1f 93       	push	r17
    2ffc:	0f 93       	push	r16
    2ffe:	0e 94 5c 2d 	call	0x5ab8	; 0x5ab8 <sprintf>
    3002:	b4 01       	movw	r22, r8
    3004:	ce 01       	movw	r24, r28
    3006:	8e 5b       	subi	r24, 0xBE	; 190
    3008:	9f 4f       	sbci	r25, 0xFF	; 255
    300a:	0e 94 06 2d 	call	0x5a0c	; 0x5a0c <strcpy>
    300e:	b8 01       	movw	r22, r16
    3010:	ce 01       	movw	r24, r28
    3012:	8e 5b       	subi	r24, 0xBE	; 190
    3014:	9f 4f       	sbci	r25, 0xFF	; 255
    3016:	0e 94 f2 2c 	call	0x59e4	; 0x59e4 <strcat>
    301a:	be 01       	movw	r22, r28
    301c:	6e 5b       	subi	r22, 0xBE	; 190
    301e:	7f 4f       	sbci	r23, 0xFF	; 255
    3020:	ce 01       	movw	r24, r28
    3022:	01 96       	adiw	r24, 0x01	; 1
    3024:	0e 94 1c 17 	call	0x2e38	; 0x2e38 <_ZN5ValueC1EPKc>
    3028:	88 e2       	ldi	r24, 0x28	; 40
    302a:	fe 01       	movw	r30, r28
    302c:	31 96       	adiw	r30, 0x01	; 1
    302e:	d6 01       	movw	r26, r12
    3030:	01 90       	ld	r0, Z+
    3032:	0d 92       	st	X+, r0
    3034:	8a 95       	dec	r24
    3036:	e1 f7       	brne	.-8      	; 0x3030 <_ZplRK5ValueS1_+0x158>
    3038:	0f b6       	in	r0, 0x3f	; 63
    303a:	f8 94       	cli
    303c:	de bf       	out	0x3e, r29	; 62
    303e:	0f be       	out	0x3f, r0	; 63
    3040:	cd bf       	out	0x3d, r28	; 61
    3042:	8b c0       	rjmp	.+278    	; 0x315a <_ZplRK5ValueS1_+0x282>
    3044:	b8 01       	movw	r22, r16
    3046:	66 5f       	subi	r22, 0xF6	; 246
    3048:	7f 4f       	sbci	r23, 0xFF	; 255
    304a:	ce 01       	movw	r24, r28
    304c:	8e 5b       	subi	r24, 0xBE	; 190
    304e:	9f 4f       	sbci	r25, 0xFF	; 255
    3050:	0e 94 06 2d 	call	0x5a0c	; 0x5a0c <strcpy>
    3054:	b7 01       	movw	r22, r14
    3056:	66 5f       	subi	r22, 0xF6	; 246
    3058:	7f 4f       	sbci	r23, 0xFF	; 255
    305a:	ce 01       	movw	r24, r28
    305c:	8e 5b       	subi	r24, 0xBE	; 190
    305e:	9f 4f       	sbci	r25, 0xFF	; 255
    3060:	0e 94 f2 2c 	call	0x59e4	; 0x59e4 <strcat>
    3064:	be 01       	movw	r22, r28
    3066:	6e 5b       	subi	r22, 0xBE	; 190
    3068:	7f 4f       	sbci	r23, 0xFF	; 255
    306a:	ce 01       	movw	r24, r28
    306c:	01 96       	adiw	r24, 0x01	; 1
    306e:	0e 94 1c 17 	call	0x2e38	; 0x2e38 <_ZN5ValueC1EPKc>
    3072:	4c c0       	rjmp	.+152    	; 0x310c <_ZplRK5ValueS1_+0x234>
    3074:	93 e0       	ldi	r25, 0x03	; 3
    3076:	59 12       	cpse	r5, r25
    3078:	0d c0       	rjmp	.+26     	; 0x3094 <_ZplRK5ValueS1_+0x1bc>
    307a:	fa 01       	movw	r30, r20
    307c:	b9 12       	cpse	r11, r25
    307e:	1c c0       	rjmp	.+56     	; 0x30b8 <_ZplRK5ValueS1_+0x1e0>
    3080:	26 81       	ldd	r18, Z+6	; 0x06
    3082:	37 81       	ldd	r19, Z+7	; 0x07
    3084:	40 85       	ldd	r20, Z+8	; 0x08
    3086:	51 85       	ldd	r21, Z+9	; 0x09
    3088:	fb 01       	movw	r30, r22
    308a:	66 81       	ldd	r22, Z+6	; 0x06
    308c:	77 81       	ldd	r23, Z+7	; 0x07
    308e:	80 85       	ldd	r24, Z+8	; 0x08
    3090:	91 85       	ldd	r25, Z+9	; 0x09
    3092:	2a c0       	rjmp	.+84     	; 0x30e8 <_ZplRK5ValueS1_+0x210>
    3094:	fb 01       	movw	r30, r22
    3096:	64 81       	ldd	r22, Z+4	; 0x04
    3098:	75 81       	ldd	r23, Z+5	; 0x05
    309a:	f3 e0       	ldi	r31, 0x03	; 3
    309c:	bf 12       	cpse	r11, r31
    309e:	2d c0       	rjmp	.+90     	; 0x30fa <_ZplRK5ValueS1_+0x222>
    30a0:	07 2e       	mov	r0, r23
    30a2:	00 0c       	add	r0, r0
    30a4:	88 0b       	sbc	r24, r24
    30a6:	99 0b       	sbc	r25, r25
    30a8:	0e 94 86 24 	call	0x490c	; 0x490c <__floatsisf>
    30ac:	f7 01       	movw	r30, r14
    30ae:	26 81       	ldd	r18, Z+6	; 0x06
    30b0:	37 81       	ldd	r19, Z+7	; 0x07
    30b2:	40 85       	ldd	r20, Z+8	; 0x08
    30b4:	51 85       	ldd	r21, Z+9	; 0x09
    30b6:	18 c0       	rjmp	.+48     	; 0x30e8 <_ZplRK5ValueS1_+0x210>
    30b8:	64 81       	ldd	r22, Z+4	; 0x04
    30ba:	75 81       	ldd	r23, Z+5	; 0x05
    30bc:	07 2e       	mov	r0, r23
    30be:	00 0c       	add	r0, r0
    30c0:	88 0b       	sbc	r24, r24
    30c2:	99 0b       	sbc	r25, r25
    30c4:	0e 94 86 24 	call	0x490c	; 0x490c <__floatsisf>
    30c8:	9b 01       	movw	r18, r22
    30ca:	ac 01       	movw	r20, r24
    30cc:	f8 01       	movw	r30, r16
    30ce:	66 81       	ldd	r22, Z+6	; 0x06
    30d0:	77 81       	ldd	r23, Z+7	; 0x07
    30d2:	80 85       	ldd	r24, Z+8	; 0x08
    30d4:	91 85       	ldd	r25, Z+9	; 0x09
    30d6:	0e 94 6b 23 	call	0x46d6	; 0x46d6 <__addsf3>
    30da:	f6 01       	movw	r30, r12
    30dc:	66 83       	std	Z+6, r22	; 0x06
    30de:	77 83       	std	Z+7, r23	; 0x07
    30e0:	80 87       	std	Z+8, r24	; 0x08
    30e2:	91 87       	std	Z+9, r25	; 0x09
    30e4:	56 a2       	std	Z+38, r5	; 0x26
    30e6:	39 c0       	rjmp	.+114    	; 0x315a <_ZplRK5ValueS1_+0x282>
    30e8:	0e 94 6b 23 	call	0x46d6	; 0x46d6 <__addsf3>
    30ec:	f6 01       	movw	r30, r12
    30ee:	66 83       	std	Z+6, r22	; 0x06
    30f0:	77 83       	std	Z+7, r23	; 0x07
    30f2:	80 87       	std	Z+8, r24	; 0x08
    30f4:	91 87       	std	Z+9, r25	; 0x09
    30f6:	b6 a2       	std	Z+38, r11	; 0x26
    30f8:	30 c0       	rjmp	.+96     	; 0x315a <_ZplRK5ValueS1_+0x282>
    30fa:	fa 01       	movw	r30, r20
    30fc:	84 81       	ldd	r24, Z+4	; 0x04
    30fe:	95 81       	ldd	r25, Z+5	; 0x05
    3100:	68 0f       	add	r22, r24
    3102:	79 1f       	adc	r23, r25
    3104:	ce 01       	movw	r24, r28
    3106:	01 96       	adiw	r24, 0x01	; 1
    3108:	0e 94 e4 16 	call	0x2dc8	; 0x2dc8 <_ZN5ValueC1Ei>
    310c:	88 e2       	ldi	r24, 0x28	; 40
    310e:	fe 01       	movw	r30, r28
    3110:	31 96       	adiw	r30, 0x01	; 1
    3112:	d6 01       	movw	r26, r12
    3114:	01 90       	ld	r0, Z+
    3116:	0d 92       	st	X+, r0
    3118:	8a 95       	dec	r24
    311a:	e1 f7       	brne	.-8      	; 0x3114 <_ZplRK5ValueS1_+0x23c>
    311c:	1e c0       	rjmp	.+60     	; 0x315a <_ZplRK5ValueS1_+0x282>
    311e:	f3 e0       	ldi	r31, 0x03	; 3
    3120:	5f 12       	cpse	r5, r31
    3122:	90 cf       	rjmp	.-224    	; 0x3044 <_ZplRK5ValueS1_+0x16c>
    3124:	f8 01       	movw	r30, r16
    3126:	81 85       	ldd	r24, Z+9	; 0x09
    3128:	8f 93       	push	r24
    312a:	80 85       	ldd	r24, Z+8	; 0x08
    312c:	8f 93       	push	r24
    312e:	87 81       	ldd	r24, Z+7	; 0x07
    3130:	8f 93       	push	r24
    3132:	86 81       	ldd	r24, Z+6	; 0x06
    3134:	8f 93       	push	r24
    3136:	8e e0       	ldi	r24, 0x0E	; 14
    3138:	92 e0       	ldi	r25, 0x02	; 2
    313a:	9f 93       	push	r25
    313c:	8f 93       	push	r24
    313e:	bf 92       	push	r11
    3140:	af 92       	push	r10
    3142:	0e 94 5c 2d 	call	0x5ab8	; 0x5ab8 <sprintf>
    3146:	b3 01       	movw	r22, r6
    3148:	c5 01       	movw	r24, r10
    314a:	0e 94 06 2d 	call	0x5a0c	; 0x5a0c <strcpy>
    314e:	b4 01       	movw	r22, r8
    3150:	c5 01       	movw	r24, r10
    3152:	0e 94 f2 2c 	call	0x59e4	; 0x59e4 <strcat>
    3156:	b5 01       	movw	r22, r10
    3158:	63 cf       	rjmp	.-314    	; 0x3020 <_ZplRK5ValueS1_+0x148>
    315a:	c6 01       	movw	r24, r12
    315c:	c6 5a       	subi	r28, 0xA6	; 166
    315e:	df 4f       	sbci	r29, 0xFF	; 255
    3160:	0f b6       	in	r0, 0x3f	; 63
    3162:	f8 94       	cli
    3164:	de bf       	out	0x3e, r29	; 62
    3166:	0f be       	out	0x3f, r0	; 63
    3168:	cd bf       	out	0x3d, r28	; 61
    316a:	df 91       	pop	r29
    316c:	cf 91       	pop	r28
    316e:	1f 91       	pop	r17
    3170:	0f 91       	pop	r16
    3172:	ff 90       	pop	r15
    3174:	ef 90       	pop	r14
    3176:	df 90       	pop	r13
    3178:	cf 90       	pop	r12
    317a:	bf 90       	pop	r11
    317c:	af 90       	pop	r10
    317e:	9f 90       	pop	r9
    3180:	8f 90       	pop	r8
    3182:	7f 90       	pop	r7
    3184:	6f 90       	pop	r6
    3186:	5f 90       	pop	r5
    3188:	08 95       	ret

0000318a <_ZmiRK5ValueS1_>:
    318a:	af 92       	push	r10
    318c:	bf 92       	push	r11
    318e:	cf 92       	push	r12
    3190:	df 92       	push	r13
    3192:	ef 92       	push	r14
    3194:	ff 92       	push	r15
    3196:	0f 93       	push	r16
    3198:	1f 93       	push	r17
    319a:	cf 93       	push	r28
    319c:	df 93       	push	r29
    319e:	cd b7       	in	r28, 0x3d	; 61
    31a0:	de b7       	in	r29, 0x3e	; 62
    31a2:	a8 97       	sbiw	r28, 0x28	; 40
    31a4:	0f b6       	in	r0, 0x3f	; 63
    31a6:	f8 94       	cli
    31a8:	de bf       	out	0x3e, r29	; 62
    31aa:	0f be       	out	0x3f, r0	; 63
    31ac:	cd bf       	out	0x3d, r28	; 61
    31ae:	8c 01       	movw	r16, r24
    31b0:	7b 01       	movw	r14, r22
    31b2:	6a 01       	movw	r12, r20
    31b4:	fb 01       	movw	r30, r22
    31b6:	a6 a0       	ldd	r10, Z+38	; 0x26
    31b8:	f1 e0       	ldi	r31, 0x01	; 1
    31ba:	af 16       	cp	r10, r31
    31bc:	29 f0       	breq	.+10     	; 0x31c8 <_ZmiRK5ValueS1_+0x3e>
    31be:	fa 01       	movw	r30, r20
    31c0:	b6 a0       	ldd	r11, Z+38	; 0x26
    31c2:	f1 e0       	ldi	r31, 0x01	; 1
    31c4:	bf 12       	cpse	r11, r31
    31c6:	08 c0       	rjmp	.+16     	; 0x31d8 <_ZmiRK5ValueS1_+0x4e>
    31c8:	b7 01       	movw	r22, r14
    31ca:	66 5f       	subi	r22, 0xF6	; 246
    31cc:	7f 4f       	sbci	r23, 0xFF	; 255
    31ce:	ce 01       	movw	r24, r28
    31d0:	01 96       	adiw	r24, 0x01	; 1
    31d2:	0e 94 1c 17 	call	0x2e38	; 0x2e38 <_ZN5ValueC1EPKc>
    31d6:	4c c0       	rjmp	.+152    	; 0x3270 <_ZmiRK5ValueS1_+0xe6>
    31d8:	83 e0       	ldi	r24, 0x03	; 3
    31da:	a8 12       	cpse	r10, r24
    31dc:	0d c0       	rjmp	.+26     	; 0x31f8 <_ZmiRK5ValueS1_+0x6e>
    31de:	fa 01       	movw	r30, r20
    31e0:	b8 12       	cpse	r11, r24
    31e2:	1c c0       	rjmp	.+56     	; 0x321c <_ZmiRK5ValueS1_+0x92>
    31e4:	26 81       	ldd	r18, Z+6	; 0x06
    31e6:	37 81       	ldd	r19, Z+7	; 0x07
    31e8:	40 85       	ldd	r20, Z+8	; 0x08
    31ea:	51 85       	ldd	r21, Z+9	; 0x09
    31ec:	fb 01       	movw	r30, r22
    31ee:	66 81       	ldd	r22, Z+6	; 0x06
    31f0:	77 81       	ldd	r23, Z+7	; 0x07
    31f2:	80 85       	ldd	r24, Z+8	; 0x08
    31f4:	91 85       	ldd	r25, Z+9	; 0x09
    31f6:	2a c0       	rjmp	.+84     	; 0x324c <_ZmiRK5ValueS1_+0xc2>
    31f8:	fb 01       	movw	r30, r22
    31fa:	64 81       	ldd	r22, Z+4	; 0x04
    31fc:	75 81       	ldd	r23, Z+5	; 0x05
    31fe:	f3 e0       	ldi	r31, 0x03	; 3
    3200:	bf 12       	cpse	r11, r31
    3202:	2d c0       	rjmp	.+90     	; 0x325e <_ZmiRK5ValueS1_+0xd4>
    3204:	07 2e       	mov	r0, r23
    3206:	00 0c       	add	r0, r0
    3208:	88 0b       	sbc	r24, r24
    320a:	99 0b       	sbc	r25, r25
    320c:	0e 94 86 24 	call	0x490c	; 0x490c <__floatsisf>
    3210:	f6 01       	movw	r30, r12
    3212:	26 81       	ldd	r18, Z+6	; 0x06
    3214:	37 81       	ldd	r19, Z+7	; 0x07
    3216:	40 85       	ldd	r20, Z+8	; 0x08
    3218:	51 85       	ldd	r21, Z+9	; 0x09
    321a:	18 c0       	rjmp	.+48     	; 0x324c <_ZmiRK5ValueS1_+0xc2>
    321c:	64 81       	ldd	r22, Z+4	; 0x04
    321e:	75 81       	ldd	r23, Z+5	; 0x05
    3220:	07 2e       	mov	r0, r23
    3222:	00 0c       	add	r0, r0
    3224:	88 0b       	sbc	r24, r24
    3226:	99 0b       	sbc	r25, r25
    3228:	0e 94 86 24 	call	0x490c	; 0x490c <__floatsisf>
    322c:	9b 01       	movw	r18, r22
    322e:	ac 01       	movw	r20, r24
    3230:	f7 01       	movw	r30, r14
    3232:	66 81       	ldd	r22, Z+6	; 0x06
    3234:	77 81       	ldd	r23, Z+7	; 0x07
    3236:	80 85       	ldd	r24, Z+8	; 0x08
    3238:	91 85       	ldd	r25, Z+9	; 0x09
    323a:	0e 94 6a 23 	call	0x46d4	; 0x46d4 <__subsf3>
    323e:	f8 01       	movw	r30, r16
    3240:	66 83       	std	Z+6, r22	; 0x06
    3242:	77 83       	std	Z+7, r23	; 0x07
    3244:	80 87       	std	Z+8, r24	; 0x08
    3246:	91 87       	std	Z+9, r25	; 0x09
    3248:	a6 a2       	std	Z+38, r10	; 0x26
    324a:	1a c0       	rjmp	.+52     	; 0x3280 <_ZmiRK5ValueS1_+0xf6>
    324c:	0e 94 6a 23 	call	0x46d4	; 0x46d4 <__subsf3>
    3250:	f8 01       	movw	r30, r16
    3252:	66 83       	std	Z+6, r22	; 0x06
    3254:	77 83       	std	Z+7, r23	; 0x07
    3256:	80 87       	std	Z+8, r24	; 0x08
    3258:	91 87       	std	Z+9, r25	; 0x09
    325a:	b6 a2       	std	Z+38, r11	; 0x26
    325c:	11 c0       	rjmp	.+34     	; 0x3280 <_ZmiRK5ValueS1_+0xf6>
    325e:	fa 01       	movw	r30, r20
    3260:	84 81       	ldd	r24, Z+4	; 0x04
    3262:	95 81       	ldd	r25, Z+5	; 0x05
    3264:	68 1b       	sub	r22, r24
    3266:	79 0b       	sbc	r23, r25
    3268:	ce 01       	movw	r24, r28
    326a:	01 96       	adiw	r24, 0x01	; 1
    326c:	0e 94 e4 16 	call	0x2dc8	; 0x2dc8 <_ZN5ValueC1Ei>
    3270:	88 e2       	ldi	r24, 0x28	; 40
    3272:	fe 01       	movw	r30, r28
    3274:	31 96       	adiw	r30, 0x01	; 1
    3276:	d8 01       	movw	r26, r16
    3278:	01 90       	ld	r0, Z+
    327a:	0d 92       	st	X+, r0
    327c:	8a 95       	dec	r24
    327e:	e1 f7       	brne	.-8      	; 0x3278 <_ZmiRK5ValueS1_+0xee>
    3280:	c8 01       	movw	r24, r16
    3282:	a8 96       	adiw	r28, 0x28	; 40
    3284:	0f b6       	in	r0, 0x3f	; 63
    3286:	f8 94       	cli
    3288:	de bf       	out	0x3e, r29	; 62
    328a:	0f be       	out	0x3f, r0	; 63
    328c:	cd bf       	out	0x3d, r28	; 61
    328e:	df 91       	pop	r29
    3290:	cf 91       	pop	r28
    3292:	1f 91       	pop	r17
    3294:	0f 91       	pop	r16
    3296:	ff 90       	pop	r15
    3298:	ef 90       	pop	r14
    329a:	df 90       	pop	r13
    329c:	cf 90       	pop	r12
    329e:	bf 90       	pop	r11
    32a0:	af 90       	pop	r10
    32a2:	08 95       	ret

000032a4 <_ZmlRK5ValueS1_>:
    32a4:	af 92       	push	r10
    32a6:	bf 92       	push	r11
    32a8:	cf 92       	push	r12
    32aa:	df 92       	push	r13
    32ac:	ef 92       	push	r14
    32ae:	ff 92       	push	r15
    32b0:	0f 93       	push	r16
    32b2:	1f 93       	push	r17
    32b4:	cf 93       	push	r28
    32b6:	df 93       	push	r29
    32b8:	cd b7       	in	r28, 0x3d	; 61
    32ba:	de b7       	in	r29, 0x3e	; 62
    32bc:	a8 97       	sbiw	r28, 0x28	; 40
    32be:	0f b6       	in	r0, 0x3f	; 63
    32c0:	f8 94       	cli
    32c2:	de bf       	out	0x3e, r29	; 62
    32c4:	0f be       	out	0x3f, r0	; 63
    32c6:	cd bf       	out	0x3d, r28	; 61
    32c8:	8c 01       	movw	r16, r24
    32ca:	7b 01       	movw	r14, r22
    32cc:	6a 01       	movw	r12, r20
    32ce:	fb 01       	movw	r30, r22
    32d0:	a6 a0       	ldd	r10, Z+38	; 0x26
    32d2:	f1 e0       	ldi	r31, 0x01	; 1
    32d4:	af 16       	cp	r10, r31
    32d6:	29 f0       	breq	.+10     	; 0x32e2 <_ZmlRK5ValueS1_+0x3e>
    32d8:	fa 01       	movw	r30, r20
    32da:	b6 a0       	ldd	r11, Z+38	; 0x26
    32dc:	f1 e0       	ldi	r31, 0x01	; 1
    32de:	bf 12       	cpse	r11, r31
    32e0:	08 c0       	rjmp	.+16     	; 0x32f2 <_ZmlRK5ValueS1_+0x4e>
    32e2:	b7 01       	movw	r22, r14
    32e4:	66 5f       	subi	r22, 0xF6	; 246
    32e6:	7f 4f       	sbci	r23, 0xFF	; 255
    32e8:	ce 01       	movw	r24, r28
    32ea:	01 96       	adiw	r24, 0x01	; 1
    32ec:	0e 94 1c 17 	call	0x2e38	; 0x2e38 <_ZN5ValueC1EPKc>
    32f0:	52 c0       	rjmp	.+164    	; 0x3396 <_ZmlRK5ValueS1_+0xf2>
    32f2:	83 e0       	ldi	r24, 0x03	; 3
    32f4:	a8 12       	cpse	r10, r24
    32f6:	0d c0       	rjmp	.+26     	; 0x3312 <_ZmlRK5ValueS1_+0x6e>
    32f8:	fa 01       	movw	r30, r20
    32fa:	b8 12       	cpse	r11, r24
    32fc:	1c c0       	rjmp	.+56     	; 0x3336 <_ZmlRK5ValueS1_+0x92>
    32fe:	26 81       	ldd	r18, Z+6	; 0x06
    3300:	37 81       	ldd	r19, Z+7	; 0x07
    3302:	40 85       	ldd	r20, Z+8	; 0x08
    3304:	51 85       	ldd	r21, Z+9	; 0x09
    3306:	fb 01       	movw	r30, r22
    3308:	66 81       	ldd	r22, Z+6	; 0x06
    330a:	77 81       	ldd	r23, Z+7	; 0x07
    330c:	80 85       	ldd	r24, Z+8	; 0x08
    330e:	91 85       	ldd	r25, Z+9	; 0x09
    3310:	2a c0       	rjmp	.+84     	; 0x3366 <_ZmlRK5ValueS1_+0xc2>
    3312:	fb 01       	movw	r30, r22
    3314:	64 81       	ldd	r22, Z+4	; 0x04
    3316:	75 81       	ldd	r23, Z+5	; 0x05
    3318:	f3 e0       	ldi	r31, 0x03	; 3
    331a:	bf 12       	cpse	r11, r31
    331c:	2d c0       	rjmp	.+90     	; 0x3378 <_ZmlRK5ValueS1_+0xd4>
    331e:	07 2e       	mov	r0, r23
    3320:	00 0c       	add	r0, r0
    3322:	88 0b       	sbc	r24, r24
    3324:	99 0b       	sbc	r25, r25
    3326:	0e 94 86 24 	call	0x490c	; 0x490c <__floatsisf>
    332a:	f6 01       	movw	r30, r12
    332c:	26 81       	ldd	r18, Z+6	; 0x06
    332e:	37 81       	ldd	r19, Z+7	; 0x07
    3330:	40 85       	ldd	r20, Z+8	; 0x08
    3332:	51 85       	ldd	r21, Z+9	; 0x09
    3334:	18 c0       	rjmp	.+48     	; 0x3366 <_ZmlRK5ValueS1_+0xc2>
    3336:	64 81       	ldd	r22, Z+4	; 0x04
    3338:	75 81       	ldd	r23, Z+5	; 0x05
    333a:	07 2e       	mov	r0, r23
    333c:	00 0c       	add	r0, r0
    333e:	88 0b       	sbc	r24, r24
    3340:	99 0b       	sbc	r25, r25
    3342:	0e 94 86 24 	call	0x490c	; 0x490c <__floatsisf>
    3346:	9b 01       	movw	r18, r22
    3348:	ac 01       	movw	r20, r24
    334a:	f7 01       	movw	r30, r14
    334c:	66 81       	ldd	r22, Z+6	; 0x06
    334e:	77 81       	ldd	r23, Z+7	; 0x07
    3350:	80 85       	ldd	r24, Z+8	; 0x08
    3352:	91 85       	ldd	r25, Z+9	; 0x09
    3354:	0e 94 3b 25 	call	0x4a76	; 0x4a76 <__mulsf3>
    3358:	f8 01       	movw	r30, r16
    335a:	66 83       	std	Z+6, r22	; 0x06
    335c:	77 83       	std	Z+7, r23	; 0x07
    335e:	80 87       	std	Z+8, r24	; 0x08
    3360:	91 87       	std	Z+9, r25	; 0x09
    3362:	a6 a2       	std	Z+38, r10	; 0x26
    3364:	20 c0       	rjmp	.+64     	; 0x33a6 <_ZmlRK5ValueS1_+0x102>
    3366:	0e 94 3b 25 	call	0x4a76	; 0x4a76 <__mulsf3>
    336a:	f8 01       	movw	r30, r16
    336c:	66 83       	std	Z+6, r22	; 0x06
    336e:	77 83       	std	Z+7, r23	; 0x07
    3370:	80 87       	std	Z+8, r24	; 0x08
    3372:	91 87       	std	Z+9, r25	; 0x09
    3374:	b6 a2       	std	Z+38, r11	; 0x26
    3376:	17 c0       	rjmp	.+46     	; 0x33a6 <_ZmlRK5ValueS1_+0x102>
    3378:	fa 01       	movw	r30, r20
    337a:	24 81       	ldd	r18, Z+4	; 0x04
    337c:	35 81       	ldd	r19, Z+5	; 0x05
    337e:	62 9f       	mul	r22, r18
    3380:	c0 01       	movw	r24, r0
    3382:	63 9f       	mul	r22, r19
    3384:	90 0d       	add	r25, r0
    3386:	72 9f       	mul	r23, r18
    3388:	90 0d       	add	r25, r0
    338a:	11 24       	eor	r1, r1
    338c:	bc 01       	movw	r22, r24
    338e:	ce 01       	movw	r24, r28
    3390:	01 96       	adiw	r24, 0x01	; 1
    3392:	0e 94 e4 16 	call	0x2dc8	; 0x2dc8 <_ZN5ValueC1Ei>
    3396:	88 e2       	ldi	r24, 0x28	; 40
    3398:	fe 01       	movw	r30, r28
    339a:	31 96       	adiw	r30, 0x01	; 1
    339c:	d8 01       	movw	r26, r16
    339e:	01 90       	ld	r0, Z+
    33a0:	0d 92       	st	X+, r0
    33a2:	8a 95       	dec	r24
    33a4:	e1 f7       	brne	.-8      	; 0x339e <_ZmlRK5ValueS1_+0xfa>
    33a6:	c8 01       	movw	r24, r16
    33a8:	a8 96       	adiw	r28, 0x28	; 40
    33aa:	0f b6       	in	r0, 0x3f	; 63
    33ac:	f8 94       	cli
    33ae:	de bf       	out	0x3e, r29	; 62
    33b0:	0f be       	out	0x3f, r0	; 63
    33b2:	cd bf       	out	0x3d, r28	; 61
    33b4:	df 91       	pop	r29
    33b6:	cf 91       	pop	r28
    33b8:	1f 91       	pop	r17
    33ba:	0f 91       	pop	r16
    33bc:	ff 90       	pop	r15
    33be:	ef 90       	pop	r14
    33c0:	df 90       	pop	r13
    33c2:	cf 90       	pop	r12
    33c4:	bf 90       	pop	r11
    33c6:	af 90       	pop	r10
    33c8:	08 95       	ret

000033ca <_ZdvRK5ValueS1_>:
    33ca:	af 92       	push	r10
    33cc:	bf 92       	push	r11
    33ce:	cf 92       	push	r12
    33d0:	df 92       	push	r13
    33d2:	ef 92       	push	r14
    33d4:	ff 92       	push	r15
    33d6:	0f 93       	push	r16
    33d8:	1f 93       	push	r17
    33da:	cf 93       	push	r28
    33dc:	df 93       	push	r29
    33de:	cd b7       	in	r28, 0x3d	; 61
    33e0:	de b7       	in	r29, 0x3e	; 62
    33e2:	a8 97       	sbiw	r28, 0x28	; 40
    33e4:	0f b6       	in	r0, 0x3f	; 63
    33e6:	f8 94       	cli
    33e8:	de bf       	out	0x3e, r29	; 62
    33ea:	0f be       	out	0x3f, r0	; 63
    33ec:	cd bf       	out	0x3d, r28	; 61
    33ee:	8c 01       	movw	r16, r24
    33f0:	7b 01       	movw	r14, r22
    33f2:	6a 01       	movw	r12, r20
    33f4:	fb 01       	movw	r30, r22
    33f6:	a6 a0       	ldd	r10, Z+38	; 0x26
    33f8:	f1 e0       	ldi	r31, 0x01	; 1
    33fa:	af 16       	cp	r10, r31
    33fc:	29 f0       	breq	.+10     	; 0x3408 <_ZdvRK5ValueS1_+0x3e>
    33fe:	fa 01       	movw	r30, r20
    3400:	b6 a0       	ldd	r11, Z+38	; 0x26
    3402:	f1 e0       	ldi	r31, 0x01	; 1
    3404:	bf 12       	cpse	r11, r31
    3406:	08 c0       	rjmp	.+16     	; 0x3418 <_ZdvRK5ValueS1_+0x4e>
    3408:	b7 01       	movw	r22, r14
    340a:	66 5f       	subi	r22, 0xF6	; 246
    340c:	7f 4f       	sbci	r23, 0xFF	; 255
    340e:	ce 01       	movw	r24, r28
    3410:	01 96       	adiw	r24, 0x01	; 1
    3412:	0e 94 1c 17 	call	0x2e38	; 0x2e38 <_ZN5ValueC1EPKc>
    3416:	4d c0       	rjmp	.+154    	; 0x34b2 <_ZdvRK5ValueS1_+0xe8>
    3418:	23 e0       	ldi	r18, 0x03	; 3
    341a:	a2 12       	cpse	r10, r18
    341c:	0d c0       	rjmp	.+26     	; 0x3438 <_ZdvRK5ValueS1_+0x6e>
    341e:	fa 01       	movw	r30, r20
    3420:	b2 12       	cpse	r11, r18
    3422:	1c c0       	rjmp	.+56     	; 0x345c <_ZdvRK5ValueS1_+0x92>
    3424:	26 81       	ldd	r18, Z+6	; 0x06
    3426:	37 81       	ldd	r19, Z+7	; 0x07
    3428:	40 85       	ldd	r20, Z+8	; 0x08
    342a:	51 85       	ldd	r21, Z+9	; 0x09
    342c:	fb 01       	movw	r30, r22
    342e:	66 81       	ldd	r22, Z+6	; 0x06
    3430:	77 81       	ldd	r23, Z+7	; 0x07
    3432:	80 85       	ldd	r24, Z+8	; 0x08
    3434:	91 85       	ldd	r25, Z+9	; 0x09
    3436:	2a c0       	rjmp	.+84     	; 0x348c <_ZdvRK5ValueS1_+0xc2>
    3438:	fb 01       	movw	r30, r22
    343a:	84 81       	ldd	r24, Z+4	; 0x04
    343c:	95 81       	ldd	r25, Z+5	; 0x05
    343e:	f3 e0       	ldi	r31, 0x03	; 3
    3440:	bf 12       	cpse	r11, r31
    3442:	2d c0       	rjmp	.+90     	; 0x349e <_ZdvRK5ValueS1_+0xd4>
    3444:	bc 01       	movw	r22, r24
    3446:	99 0f       	add	r25, r25
    3448:	88 0b       	sbc	r24, r24
    344a:	99 0b       	sbc	r25, r25
    344c:	0e 94 86 24 	call	0x490c	; 0x490c <__floatsisf>
    3450:	f6 01       	movw	r30, r12
    3452:	26 81       	ldd	r18, Z+6	; 0x06
    3454:	37 81       	ldd	r19, Z+7	; 0x07
    3456:	40 85       	ldd	r20, Z+8	; 0x08
    3458:	51 85       	ldd	r21, Z+9	; 0x09
    345a:	18 c0       	rjmp	.+48     	; 0x348c <_ZdvRK5ValueS1_+0xc2>
    345c:	64 81       	ldd	r22, Z+4	; 0x04
    345e:	75 81       	ldd	r23, Z+5	; 0x05
    3460:	07 2e       	mov	r0, r23
    3462:	00 0c       	add	r0, r0
    3464:	88 0b       	sbc	r24, r24
    3466:	99 0b       	sbc	r25, r25
    3468:	0e 94 86 24 	call	0x490c	; 0x490c <__floatsisf>
    346c:	9b 01       	movw	r18, r22
    346e:	ac 01       	movw	r20, r24
    3470:	f7 01       	movw	r30, r14
    3472:	66 81       	ldd	r22, Z+6	; 0x06
    3474:	77 81       	ldd	r23, Z+7	; 0x07
    3476:	80 85       	ldd	r24, Z+8	; 0x08
    3478:	91 85       	ldd	r25, Z+9	; 0x09
    347a:	0e 94 dc 23 	call	0x47b8	; 0x47b8 <__divsf3>
    347e:	f8 01       	movw	r30, r16
    3480:	66 83       	std	Z+6, r22	; 0x06
    3482:	77 83       	std	Z+7, r23	; 0x07
    3484:	80 87       	std	Z+8, r24	; 0x08
    3486:	91 87       	std	Z+9, r25	; 0x09
    3488:	a6 a2       	std	Z+38, r10	; 0x26
    348a:	1b c0       	rjmp	.+54     	; 0x34c2 <_ZdvRK5ValueS1_+0xf8>
    348c:	0e 94 dc 23 	call	0x47b8	; 0x47b8 <__divsf3>
    3490:	f8 01       	movw	r30, r16
    3492:	66 83       	std	Z+6, r22	; 0x06
    3494:	77 83       	std	Z+7, r23	; 0x07
    3496:	80 87       	std	Z+8, r24	; 0x08
    3498:	91 87       	std	Z+9, r25	; 0x09
    349a:	b6 a2       	std	Z+38, r11	; 0x26
    349c:	12 c0       	rjmp	.+36     	; 0x34c2 <_ZdvRK5ValueS1_+0xf8>
    349e:	fa 01       	movw	r30, r20
    34a0:	24 81       	ldd	r18, Z+4	; 0x04
    34a2:	35 81       	ldd	r19, Z+5	; 0x05
    34a4:	b9 01       	movw	r22, r18
    34a6:	0e 94 25 29 	call	0x524a	; 0x524a <__divmodhi4>
    34aa:	ce 01       	movw	r24, r28
    34ac:	01 96       	adiw	r24, 0x01	; 1
    34ae:	0e 94 e4 16 	call	0x2dc8	; 0x2dc8 <_ZN5ValueC1Ei>
    34b2:	88 e2       	ldi	r24, 0x28	; 40
    34b4:	fe 01       	movw	r30, r28
    34b6:	31 96       	adiw	r30, 0x01	; 1
    34b8:	d8 01       	movw	r26, r16
    34ba:	01 90       	ld	r0, Z+
    34bc:	0d 92       	st	X+, r0
    34be:	8a 95       	dec	r24
    34c0:	e1 f7       	brne	.-8      	; 0x34ba <_ZdvRK5ValueS1_+0xf0>
    34c2:	c8 01       	movw	r24, r16
    34c4:	a8 96       	adiw	r28, 0x28	; 40
    34c6:	0f b6       	in	r0, 0x3f	; 63
    34c8:	f8 94       	cli
    34ca:	de bf       	out	0x3e, r29	; 62
    34cc:	0f be       	out	0x3f, r0	; 63
    34ce:	cd bf       	out	0x3d, r28	; 61
    34d0:	df 91       	pop	r29
    34d2:	cf 91       	pop	r28
    34d4:	1f 91       	pop	r17
    34d6:	0f 91       	pop	r16
    34d8:	ff 90       	pop	r15
    34da:	ef 90       	pop	r14
    34dc:	df 90       	pop	r13
    34de:	cf 90       	pop	r12
    34e0:	bf 90       	pop	r11
    34e2:	af 90       	pop	r10
    34e4:	08 95       	ret

000034e6 <_ZrmRK5ValueS1_>:
    34e6:	cf 92       	push	r12
    34e8:	df 92       	push	r13
    34ea:	ef 92       	push	r14
    34ec:	ff 92       	push	r15
    34ee:	0f 93       	push	r16
    34f0:	1f 93       	push	r17
    34f2:	cf 93       	push	r28
    34f4:	df 93       	push	r29
    34f6:	cd b7       	in	r28, 0x3d	; 61
    34f8:	de b7       	in	r29, 0x3e	; 62
    34fa:	a8 97       	sbiw	r28, 0x28	; 40
    34fc:	0f b6       	in	r0, 0x3f	; 63
    34fe:	f8 94       	cli
    3500:	de bf       	out	0x3e, r29	; 62
    3502:	0f be       	out	0x3f, r0	; 63
    3504:	cd bf       	out	0x3d, r28	; 61
    3506:	8c 01       	movw	r16, r24
    3508:	fb 01       	movw	r30, r22
    350a:	7a 01       	movw	r14, r20
    350c:	96 a1       	ldd	r25, Z+38	; 0x26
    350e:	91 30       	cpi	r25, 0x01	; 1
    3510:	29 f0       	breq	.+10     	; 0x351c <_ZrmRK5ValueS1_+0x36>
    3512:	da 01       	movw	r26, r20
    3514:	96 96       	adiw	r26, 0x26	; 38
    3516:	8c 91       	ld	r24, X
    3518:	81 30       	cpi	r24, 0x01	; 1
    351a:	41 f4       	brne	.+16     	; 0x352c <_ZrmRK5ValueS1_+0x46>
    351c:	bf 01       	movw	r22, r30
    351e:	66 5f       	subi	r22, 0xF6	; 246
    3520:	7f 4f       	sbci	r23, 0xFF	; 255
    3522:	ce 01       	movw	r24, r28
    3524:	01 96       	adiw	r24, 0x01	; 1
    3526:	0e 94 1c 17 	call	0x2e38	; 0x2e38 <_ZN5ValueC1EPKc>
    352a:	38 c0       	rjmp	.+112    	; 0x359c <_ZrmRK5ValueS1_+0xb6>
    352c:	93 30       	cpi	r25, 0x03	; 3
    352e:	51 f4       	brne	.+20     	; 0x3544 <_ZrmRK5ValueS1_+0x5e>
    3530:	83 30       	cpi	r24, 0x03	; 3
    3532:	69 f4       	brne	.+26     	; 0x354e <_ZrmRK5ValueS1_+0x68>
    3534:	66 81       	ldd	r22, Z+6	; 0x06
    3536:	77 81       	ldd	r23, Z+7	; 0x07
    3538:	80 85       	ldd	r24, Z+8	; 0x08
    353a:	91 85       	ldd	r25, Z+9	; 0x09
    353c:	0e 94 4e 24 	call	0x489c	; 0x489c <__fixsfsi>
    3540:	6b 01       	movw	r12, r22
    3542:	13 c0       	rjmp	.+38     	; 0x356a <_ZrmRK5ValueS1_+0x84>
    3544:	c4 80       	ldd	r12, Z+4	; 0x04
    3546:	d5 80       	ldd	r13, Z+5	; 0x05
    3548:	83 30       	cpi	r24, 0x03	; 3
    354a:	d9 f4       	brne	.+54     	; 0x3582 <_ZrmRK5ValueS1_+0x9c>
    354c:	0e c0       	rjmp	.+28     	; 0x356a <_ZrmRK5ValueS1_+0x84>
    354e:	66 81       	ldd	r22, Z+6	; 0x06
    3550:	77 81       	ldd	r23, Z+7	; 0x07
    3552:	80 85       	ldd	r24, Z+8	; 0x08
    3554:	91 85       	ldd	r25, Z+9	; 0x09
    3556:	0e 94 4e 24 	call	0x489c	; 0x489c <__fixsfsi>
    355a:	d7 01       	movw	r26, r14
    355c:	14 96       	adiw	r26, 0x04	; 4
    355e:	2d 91       	ld	r18, X+
    3560:	3c 91       	ld	r19, X
    3562:	15 97       	sbiw	r26, 0x05	; 5
    3564:	cb 01       	movw	r24, r22
    3566:	b9 01       	movw	r22, r18
    3568:	12 c0       	rjmp	.+36     	; 0x358e <_ZrmRK5ValueS1_+0xa8>
    356a:	f7 01       	movw	r30, r14
    356c:	66 81       	ldd	r22, Z+6	; 0x06
    356e:	77 81       	ldd	r23, Z+7	; 0x07
    3570:	80 85       	ldd	r24, Z+8	; 0x08
    3572:	91 85       	ldd	r25, Z+9	; 0x09
    3574:	0e 94 4e 24 	call	0x489c	; 0x489c <__fixsfsi>
    3578:	ab 01       	movw	r20, r22
    357a:	bc 01       	movw	r22, r24
    357c:	c6 01       	movw	r24, r12
    357e:	ba 01       	movw	r22, r20
    3580:	06 c0       	rjmp	.+12     	; 0x358e <_ZrmRK5ValueS1_+0xa8>
    3582:	da 01       	movw	r26, r20
    3584:	14 96       	adiw	r26, 0x04	; 4
    3586:	6d 91       	ld	r22, X+
    3588:	7c 91       	ld	r23, X
    358a:	15 97       	sbiw	r26, 0x05	; 5
    358c:	c6 01       	movw	r24, r12
    358e:	0e 94 25 29 	call	0x524a	; 0x524a <__divmodhi4>
    3592:	bc 01       	movw	r22, r24
    3594:	ce 01       	movw	r24, r28
    3596:	01 96       	adiw	r24, 0x01	; 1
    3598:	0e 94 e4 16 	call	0x2dc8	; 0x2dc8 <_ZN5ValueC1Ei>
    359c:	88 e2       	ldi	r24, 0x28	; 40
    359e:	fe 01       	movw	r30, r28
    35a0:	31 96       	adiw	r30, 0x01	; 1
    35a2:	d8 01       	movw	r26, r16
    35a4:	01 90       	ld	r0, Z+
    35a6:	0d 92       	st	X+, r0
    35a8:	8a 95       	dec	r24
    35aa:	e1 f7       	brne	.-8      	; 0x35a4 <_ZrmRK5ValueS1_+0xbe>
    35ac:	c8 01       	movw	r24, r16
    35ae:	a8 96       	adiw	r28, 0x28	; 40
    35b0:	0f b6       	in	r0, 0x3f	; 63
    35b2:	f8 94       	cli
    35b4:	de bf       	out	0x3e, r29	; 62
    35b6:	0f be       	out	0x3f, r0	; 63
    35b8:	cd bf       	out	0x3d, r28	; 61
    35ba:	df 91       	pop	r29
    35bc:	cf 91       	pop	r28
    35be:	1f 91       	pop	r17
    35c0:	0f 91       	pop	r16
    35c2:	ff 90       	pop	r15
    35c4:	ef 90       	pop	r14
    35c6:	df 90       	pop	r13
    35c8:	cf 90       	pop	r12
    35ca:	08 95       	ret

000035cc <_ZlsRK5ValueS1_>:
    35cc:	8f 92       	push	r8
    35ce:	9f 92       	push	r9
    35d0:	af 92       	push	r10
    35d2:	bf 92       	push	r11
    35d4:	cf 92       	push	r12
    35d6:	df 92       	push	r13
    35d8:	ef 92       	push	r14
    35da:	ff 92       	push	r15
    35dc:	0f 93       	push	r16
    35de:	1f 93       	push	r17
    35e0:	cf 93       	push	r28
    35e2:	df 93       	push	r29
    35e4:	cd b7       	in	r28, 0x3d	; 61
    35e6:	de b7       	in	r29, 0x3e	; 62
    35e8:	a8 97       	sbiw	r28, 0x28	; 40
    35ea:	0f b6       	in	r0, 0x3f	; 63
    35ec:	f8 94       	cli
    35ee:	de bf       	out	0x3e, r29	; 62
    35f0:	0f be       	out	0x3f, r0	; 63
    35f2:	cd bf       	out	0x3d, r28	; 61
    35f4:	8c 01       	movw	r16, r24
    35f6:	fb 01       	movw	r30, r22
    35f8:	6a 01       	movw	r12, r20
    35fa:	96 a1       	ldd	r25, Z+38	; 0x26
    35fc:	91 30       	cpi	r25, 0x01	; 1
    35fe:	29 f0       	breq	.+10     	; 0x360a <_ZlsRK5ValueS1_+0x3e>
    3600:	da 01       	movw	r26, r20
    3602:	96 96       	adiw	r26, 0x26	; 38
    3604:	8c 91       	ld	r24, X
    3606:	81 30       	cpi	r24, 0x01	; 1
    3608:	41 f4       	brne	.+16     	; 0x361a <_ZlsRK5ValueS1_+0x4e>
    360a:	bf 01       	movw	r22, r30
    360c:	66 5f       	subi	r22, 0xF6	; 246
    360e:	7f 4f       	sbci	r23, 0xFF	; 255
    3610:	ce 01       	movw	r24, r28
    3612:	01 96       	adiw	r24, 0x01	; 1
    3614:	0e 94 1c 17 	call	0x2e38	; 0x2e38 <_ZN5ValueC1EPKc>
    3618:	3d c0       	rjmp	.+122    	; 0x3694 <_ZlsRK5ValueS1_+0xc8>
    361a:	93 30       	cpi	r25, 0x03	; 3
    361c:	99 f4       	brne	.+38     	; 0x3644 <_ZlsRK5ValueS1_+0x78>
    361e:	83 30       	cpi	r24, 0x03	; 3
    3620:	f1 f4       	brne	.+60     	; 0x365e <_ZlsRK5ValueS1_+0x92>
    3622:	66 81       	ldd	r22, Z+6	; 0x06
    3624:	77 81       	ldd	r23, Z+7	; 0x07
    3626:	80 85       	ldd	r24, Z+8	; 0x08
    3628:	91 85       	ldd	r25, Z+9	; 0x09
    362a:	0e 94 4e 24 	call	0x489c	; 0x489c <__fixsfsi>
    362e:	4b 01       	movw	r8, r22
    3630:	5c 01       	movw	r10, r24
    3632:	f6 01       	movw	r30, r12
    3634:	66 81       	ldd	r22, Z+6	; 0x06
    3636:	77 81       	ldd	r23, Z+7	; 0x07
    3638:	80 85       	ldd	r24, Z+8	; 0x08
    363a:	91 85       	ldd	r25, Z+9	; 0x09
    363c:	0e 94 4e 24 	call	0x489c	; 0x489c <__fixsfsi>
    3640:	c4 01       	movw	r24, r8
    3642:	14 c0       	rjmp	.+40     	; 0x366c <_ZlsRK5ValueS1_+0xa0>
    3644:	e4 80       	ldd	r14, Z+4	; 0x04
    3646:	f5 80       	ldd	r15, Z+5	; 0x05
    3648:	83 30       	cpi	r24, 0x03	; 3
    364a:	b9 f4       	brne	.+46     	; 0x367a <_ZlsRK5ValueS1_+0xae>
    364c:	fa 01       	movw	r30, r20
    364e:	66 81       	ldd	r22, Z+6	; 0x06
    3650:	77 81       	ldd	r23, Z+7	; 0x07
    3652:	80 85       	ldd	r24, Z+8	; 0x08
    3654:	91 85       	ldd	r25, Z+9	; 0x09
    3656:	0e 94 4e 24 	call	0x489c	; 0x489c <__fixsfsi>
    365a:	c7 01       	movw	r24, r14
    365c:	07 c0       	rjmp	.+14     	; 0x366c <_ZlsRK5ValueS1_+0xa0>
    365e:	66 81       	ldd	r22, Z+6	; 0x06
    3660:	77 81       	ldd	r23, Z+7	; 0x07
    3662:	80 85       	ldd	r24, Z+8	; 0x08
    3664:	91 85       	ldd	r25, Z+9	; 0x09
    3666:	0e 94 4e 24 	call	0x489c	; 0x489c <__fixsfsi>
    366a:	08 c0       	rjmp	.+16     	; 0x367c <_ZlsRK5ValueS1_+0xb0>
    366c:	02 c0       	rjmp	.+4      	; 0x3672 <_ZlsRK5ValueS1_+0xa6>
    366e:	88 0f       	add	r24, r24
    3670:	99 1f       	adc	r25, r25
    3672:	6a 95       	dec	r22
    3674:	e2 f7       	brpl	.-8      	; 0x366e <_ZlsRK5ValueS1_+0xa2>
    3676:	bc 01       	movw	r22, r24
    3678:	09 c0       	rjmp	.+18     	; 0x368c <_ZlsRK5ValueS1_+0xc0>
    367a:	b7 01       	movw	r22, r14
    367c:	d6 01       	movw	r26, r12
    367e:	14 96       	adiw	r26, 0x04	; 4
    3680:	0c 90       	ld	r0, X
    3682:	02 c0       	rjmp	.+4      	; 0x3688 <_ZlsRK5ValueS1_+0xbc>
    3684:	66 0f       	add	r22, r22
    3686:	77 1f       	adc	r23, r23
    3688:	0a 94       	dec	r0
    368a:	e2 f7       	brpl	.-8      	; 0x3684 <_ZlsRK5ValueS1_+0xb8>
    368c:	ce 01       	movw	r24, r28
    368e:	01 96       	adiw	r24, 0x01	; 1
    3690:	0e 94 e4 16 	call	0x2dc8	; 0x2dc8 <_ZN5ValueC1Ei>
    3694:	88 e2       	ldi	r24, 0x28	; 40
    3696:	fe 01       	movw	r30, r28
    3698:	31 96       	adiw	r30, 0x01	; 1
    369a:	d8 01       	movw	r26, r16
    369c:	01 90       	ld	r0, Z+
    369e:	0d 92       	st	X+, r0
    36a0:	8a 95       	dec	r24
    36a2:	e1 f7       	brne	.-8      	; 0x369c <_ZlsRK5ValueS1_+0xd0>
    36a4:	c8 01       	movw	r24, r16
    36a6:	a8 96       	adiw	r28, 0x28	; 40
    36a8:	0f b6       	in	r0, 0x3f	; 63
    36aa:	f8 94       	cli
    36ac:	de bf       	out	0x3e, r29	; 62
    36ae:	0f be       	out	0x3f, r0	; 63
    36b0:	cd bf       	out	0x3d, r28	; 61
    36b2:	df 91       	pop	r29
    36b4:	cf 91       	pop	r28
    36b6:	1f 91       	pop	r17
    36b8:	0f 91       	pop	r16
    36ba:	ff 90       	pop	r15
    36bc:	ef 90       	pop	r14
    36be:	df 90       	pop	r13
    36c0:	cf 90       	pop	r12
    36c2:	bf 90       	pop	r11
    36c4:	af 90       	pop	r10
    36c6:	9f 90       	pop	r9
    36c8:	8f 90       	pop	r8
    36ca:	08 95       	ret

000036cc <_ZrsRK5ValueS1_>:
    36cc:	8f 92       	push	r8
    36ce:	9f 92       	push	r9
    36d0:	af 92       	push	r10
    36d2:	bf 92       	push	r11
    36d4:	cf 92       	push	r12
    36d6:	df 92       	push	r13
    36d8:	ef 92       	push	r14
    36da:	ff 92       	push	r15
    36dc:	0f 93       	push	r16
    36de:	1f 93       	push	r17
    36e0:	cf 93       	push	r28
    36e2:	df 93       	push	r29
    36e4:	cd b7       	in	r28, 0x3d	; 61
    36e6:	de b7       	in	r29, 0x3e	; 62
    36e8:	a8 97       	sbiw	r28, 0x28	; 40
    36ea:	0f b6       	in	r0, 0x3f	; 63
    36ec:	f8 94       	cli
    36ee:	de bf       	out	0x3e, r29	; 62
    36f0:	0f be       	out	0x3f, r0	; 63
    36f2:	cd bf       	out	0x3d, r28	; 61
    36f4:	8c 01       	movw	r16, r24
    36f6:	fb 01       	movw	r30, r22
    36f8:	6a 01       	movw	r12, r20
    36fa:	96 a1       	ldd	r25, Z+38	; 0x26
    36fc:	91 30       	cpi	r25, 0x01	; 1
    36fe:	29 f0       	breq	.+10     	; 0x370a <_ZrsRK5ValueS1_+0x3e>
    3700:	da 01       	movw	r26, r20
    3702:	96 96       	adiw	r26, 0x26	; 38
    3704:	8c 91       	ld	r24, X
    3706:	81 30       	cpi	r24, 0x01	; 1
    3708:	41 f4       	brne	.+16     	; 0x371a <_ZrsRK5ValueS1_+0x4e>
    370a:	bf 01       	movw	r22, r30
    370c:	66 5f       	subi	r22, 0xF6	; 246
    370e:	7f 4f       	sbci	r23, 0xFF	; 255
    3710:	ce 01       	movw	r24, r28
    3712:	01 96       	adiw	r24, 0x01	; 1
    3714:	0e 94 1c 17 	call	0x2e38	; 0x2e38 <_ZN5ValueC1EPKc>
    3718:	3d c0       	rjmp	.+122    	; 0x3794 <_ZrsRK5ValueS1_+0xc8>
    371a:	93 30       	cpi	r25, 0x03	; 3
    371c:	99 f4       	brne	.+38     	; 0x3744 <_ZrsRK5ValueS1_+0x78>
    371e:	83 30       	cpi	r24, 0x03	; 3
    3720:	f1 f4       	brne	.+60     	; 0x375e <_ZrsRK5ValueS1_+0x92>
    3722:	66 81       	ldd	r22, Z+6	; 0x06
    3724:	77 81       	ldd	r23, Z+7	; 0x07
    3726:	80 85       	ldd	r24, Z+8	; 0x08
    3728:	91 85       	ldd	r25, Z+9	; 0x09
    372a:	0e 94 4e 24 	call	0x489c	; 0x489c <__fixsfsi>
    372e:	4b 01       	movw	r8, r22
    3730:	5c 01       	movw	r10, r24
    3732:	f6 01       	movw	r30, r12
    3734:	66 81       	ldd	r22, Z+6	; 0x06
    3736:	77 81       	ldd	r23, Z+7	; 0x07
    3738:	80 85       	ldd	r24, Z+8	; 0x08
    373a:	91 85       	ldd	r25, Z+9	; 0x09
    373c:	0e 94 4e 24 	call	0x489c	; 0x489c <__fixsfsi>
    3740:	c4 01       	movw	r24, r8
    3742:	14 c0       	rjmp	.+40     	; 0x376c <_ZrsRK5ValueS1_+0xa0>
    3744:	e4 80       	ldd	r14, Z+4	; 0x04
    3746:	f5 80       	ldd	r15, Z+5	; 0x05
    3748:	83 30       	cpi	r24, 0x03	; 3
    374a:	b9 f4       	brne	.+46     	; 0x377a <_ZrsRK5ValueS1_+0xae>
    374c:	fa 01       	movw	r30, r20
    374e:	66 81       	ldd	r22, Z+6	; 0x06
    3750:	77 81       	ldd	r23, Z+7	; 0x07
    3752:	80 85       	ldd	r24, Z+8	; 0x08
    3754:	91 85       	ldd	r25, Z+9	; 0x09
    3756:	0e 94 4e 24 	call	0x489c	; 0x489c <__fixsfsi>
    375a:	c7 01       	movw	r24, r14
    375c:	07 c0       	rjmp	.+14     	; 0x376c <_ZrsRK5ValueS1_+0xa0>
    375e:	66 81       	ldd	r22, Z+6	; 0x06
    3760:	77 81       	ldd	r23, Z+7	; 0x07
    3762:	80 85       	ldd	r24, Z+8	; 0x08
    3764:	91 85       	ldd	r25, Z+9	; 0x09
    3766:	0e 94 4e 24 	call	0x489c	; 0x489c <__fixsfsi>
    376a:	08 c0       	rjmp	.+16     	; 0x377c <_ZrsRK5ValueS1_+0xb0>
    376c:	02 c0       	rjmp	.+4      	; 0x3772 <_ZrsRK5ValueS1_+0xa6>
    376e:	95 95       	asr	r25
    3770:	87 95       	ror	r24
    3772:	6a 95       	dec	r22
    3774:	e2 f7       	brpl	.-8      	; 0x376e <_ZrsRK5ValueS1_+0xa2>
    3776:	bc 01       	movw	r22, r24
    3778:	09 c0       	rjmp	.+18     	; 0x378c <_ZrsRK5ValueS1_+0xc0>
    377a:	b7 01       	movw	r22, r14
    377c:	d6 01       	movw	r26, r12
    377e:	14 96       	adiw	r26, 0x04	; 4
    3780:	0c 90       	ld	r0, X
    3782:	02 c0       	rjmp	.+4      	; 0x3788 <_ZrsRK5ValueS1_+0xbc>
    3784:	75 95       	asr	r23
    3786:	67 95       	ror	r22
    3788:	0a 94       	dec	r0
    378a:	e2 f7       	brpl	.-8      	; 0x3784 <_ZrsRK5ValueS1_+0xb8>
    378c:	ce 01       	movw	r24, r28
    378e:	01 96       	adiw	r24, 0x01	; 1
    3790:	0e 94 e4 16 	call	0x2dc8	; 0x2dc8 <_ZN5ValueC1Ei>
    3794:	88 e2       	ldi	r24, 0x28	; 40
    3796:	fe 01       	movw	r30, r28
    3798:	31 96       	adiw	r30, 0x01	; 1
    379a:	d8 01       	movw	r26, r16
    379c:	01 90       	ld	r0, Z+
    379e:	0d 92       	st	X+, r0
    37a0:	8a 95       	dec	r24
    37a2:	e1 f7       	brne	.-8      	; 0x379c <_ZrsRK5ValueS1_+0xd0>
    37a4:	c8 01       	movw	r24, r16
    37a6:	a8 96       	adiw	r28, 0x28	; 40
    37a8:	0f b6       	in	r0, 0x3f	; 63
    37aa:	f8 94       	cli
    37ac:	de bf       	out	0x3e, r29	; 62
    37ae:	0f be       	out	0x3f, r0	; 63
    37b0:	cd bf       	out	0x3d, r28	; 61
    37b2:	df 91       	pop	r29
    37b4:	cf 91       	pop	r28
    37b6:	1f 91       	pop	r17
    37b8:	0f 91       	pop	r16
    37ba:	ff 90       	pop	r15
    37bc:	ef 90       	pop	r14
    37be:	df 90       	pop	r13
    37c0:	cf 90       	pop	r12
    37c2:	bf 90       	pop	r11
    37c4:	af 90       	pop	r10
    37c6:	9f 90       	pop	r9
    37c8:	8f 90       	pop	r8
    37ca:	08 95       	ret

000037cc <_ZanRK5ValueS1_>:
    37cc:	8f 92       	push	r8
    37ce:	9f 92       	push	r9
    37d0:	af 92       	push	r10
    37d2:	bf 92       	push	r11
    37d4:	cf 92       	push	r12
    37d6:	df 92       	push	r13
    37d8:	ef 92       	push	r14
    37da:	ff 92       	push	r15
    37dc:	0f 93       	push	r16
    37de:	1f 93       	push	r17
    37e0:	cf 93       	push	r28
    37e2:	df 93       	push	r29
    37e4:	cd b7       	in	r28, 0x3d	; 61
    37e6:	de b7       	in	r29, 0x3e	; 62
    37e8:	ca 55       	subi	r28, 0x5A	; 90
    37ea:	d1 09       	sbc	r29, r1
    37ec:	0f b6       	in	r0, 0x3f	; 63
    37ee:	f8 94       	cli
    37f0:	de bf       	out	0x3e, r29	; 62
    37f2:	0f be       	out	0x3f, r0	; 63
    37f4:	cd bf       	out	0x3d, r28	; 61
    37f6:	7c 01       	movw	r14, r24
    37f8:	fb 01       	movw	r30, r22
    37fa:	8a 01       	movw	r16, r20
    37fc:	96 a1       	ldd	r25, Z+38	; 0x26
    37fe:	92 30       	cpi	r25, 0x02	; 2
    3800:	29 f0       	breq	.+10     	; 0x380c <_ZanRK5ValueS1_+0x40>
    3802:	da 01       	movw	r26, r20
    3804:	96 96       	adiw	r26, 0x26	; 38
    3806:	8c 91       	ld	r24, X
    3808:	82 30       	cpi	r24, 0x02	; 2
    380a:	69 f4       	brne	.+26     	; 0x3826 <_ZanRK5ValueS1_+0x5a>
    380c:	87 a1       	ldd	r24, Z+39	; 0x27
    380e:	88 23       	and	r24, r24
    3810:	11 f0       	breq	.+4      	; 0x3816 <_ZanRK5ValueS1_+0x4a>
    3812:	f8 01       	movw	r30, r16
    3814:	87 a1       	ldd	r24, Z+39	; 0x27
    3816:	92 e0       	ldi	r25, 0x02	; 2
    3818:	d7 01       	movw	r26, r14
    381a:	96 96       	adiw	r26, 0x26	; 38
    381c:	9c 93       	st	X, r25
    381e:	96 97       	sbiw	r26, 0x26	; 38
    3820:	97 96       	adiw	r26, 0x27	; 39
    3822:	8c 93       	st	X, r24
    3824:	19 c1       	rjmp	.+562    	; 0x3a58 <_ZanRK5ValueS1_+0x28c>
    3826:	91 30       	cpi	r25, 0x01	; 1
    3828:	31 f1       	breq	.+76     	; 0x3876 <_ZanRK5ValueS1_+0xaa>
    382a:	81 30       	cpi	r24, 0x01	; 1
    382c:	09 f0       	breq	.+2      	; 0x3830 <_ZanRK5ValueS1_+0x64>
    382e:	b0 c0       	rjmp	.+352    	; 0x3990 <_ZanRK5ValueS1_+0x1c4>
    3830:	9e 01       	movw	r18, r28
    3832:	2e 5b       	subi	r18, 0xBE	; 190
    3834:	3f 4f       	sbci	r19, 0xFF	; 255
    3836:	69 01       	movw	r12, r18
    3838:	db 01       	movw	r26, r22
    383a:	1a 96       	adiw	r26, 0x0a	; 10
    383c:	5d 01       	movw	r10, r26
    383e:	9a 01       	movw	r18, r20
    3840:	26 5f       	subi	r18, 0xF6	; 246
    3842:	3f 4f       	sbci	r19, 0xFF	; 255
    3844:	49 01       	movw	r8, r18
    3846:	91 11       	cpse	r25, r1
    3848:	ea c0       	rjmp	.+468    	; 0x3a1e <_ZanRK5ValueS1_+0x252>
    384a:	85 81       	ldd	r24, Z+5	; 0x05
    384c:	8f 93       	push	r24
    384e:	84 81       	ldd	r24, Z+4	; 0x04
    3850:	8f 93       	push	r24
    3852:	8b e0       	ldi	r24, 0x0B	; 11
    3854:	92 e0       	ldi	r25, 0x02	; 2
    3856:	9f 93       	push	r25
    3858:	8f 93       	push	r24
    385a:	df 92       	push	r13
    385c:	cf 92       	push	r12
    385e:	0e 94 5c 2d 	call	0x5ab8	; 0x5ab8 <sprintf>
    3862:	b5 01       	movw	r22, r10
    3864:	c6 01       	movw	r24, r12
    3866:	0e 94 06 2d 	call	0x5a0c	; 0x5a0c <strcpy>
    386a:	b4 01       	movw	r22, r8
    386c:	c6 01       	movw	r24, r12
    386e:	0e 94 f2 2c 	call	0x59e4	; 0x59e4 <strcat>
    3872:	b6 01       	movw	r22, r12
    3874:	24 c0       	rjmp	.+72     	; 0x38be <_ZanRK5ValueS1_+0xf2>
    3876:	db 01       	movw	r26, r22
    3878:	1a 96       	adiw	r26, 0x0a	; 10
    387a:	6d 01       	movw	r12, r26
    387c:	81 11       	cpse	r24, r1
    387e:	32 c0       	rjmp	.+100    	; 0x38e4 <_ZanRK5ValueS1_+0x118>
    3880:	fa 01       	movw	r30, r20
    3882:	85 81       	ldd	r24, Z+5	; 0x05
    3884:	8f 93       	push	r24
    3886:	84 81       	ldd	r24, Z+4	; 0x04
    3888:	8f 93       	push	r24
    388a:	8b e0       	ldi	r24, 0x0B	; 11
    388c:	92 e0       	ldi	r25, 0x02	; 2
    388e:	9f 93       	push	r25
    3890:	8f 93       	push	r24
    3892:	8e 01       	movw	r16, r28
    3894:	07 5d       	subi	r16, 0xD7	; 215
    3896:	1f 4f       	sbci	r17, 0xFF	; 255
    3898:	1f 93       	push	r17
    389a:	0f 93       	push	r16
    389c:	0e 94 5c 2d 	call	0x5ab8	; 0x5ab8 <sprintf>
    38a0:	b6 01       	movw	r22, r12
    38a2:	ce 01       	movw	r24, r28
    38a4:	8e 5b       	subi	r24, 0xBE	; 190
    38a6:	9f 4f       	sbci	r25, 0xFF	; 255
    38a8:	0e 94 06 2d 	call	0x5a0c	; 0x5a0c <strcpy>
    38ac:	b8 01       	movw	r22, r16
    38ae:	ce 01       	movw	r24, r28
    38b0:	8e 5b       	subi	r24, 0xBE	; 190
    38b2:	9f 4f       	sbci	r25, 0xFF	; 255
    38b4:	0e 94 f2 2c 	call	0x59e4	; 0x59e4 <strcat>
    38b8:	be 01       	movw	r22, r28
    38ba:	6e 5b       	subi	r22, 0xBE	; 190
    38bc:	7f 4f       	sbci	r23, 0xFF	; 255
    38be:	ce 01       	movw	r24, r28
    38c0:	01 96       	adiw	r24, 0x01	; 1
    38c2:	0e 94 1c 17 	call	0x2e38	; 0x2e38 <_ZN5ValueC1EPKc>
    38c6:	88 e2       	ldi	r24, 0x28	; 40
    38c8:	fe 01       	movw	r30, r28
    38ca:	31 96       	adiw	r30, 0x01	; 1
    38cc:	d7 01       	movw	r26, r14
    38ce:	01 90       	ld	r0, Z+
    38d0:	0d 92       	st	X+, r0
    38d2:	8a 95       	dec	r24
    38d4:	e1 f7       	brne	.-8      	; 0x38ce <_ZanRK5ValueS1_+0x102>
    38d6:	0f 90       	pop	r0
    38d8:	0f 90       	pop	r0
    38da:	0f 90       	pop	r0
    38dc:	0f 90       	pop	r0
    38de:	0f 90       	pop	r0
    38e0:	0f 90       	pop	r0
    38e2:	ba c0       	rjmp	.+372    	; 0x3a58 <_ZanRK5ValueS1_+0x28c>
    38e4:	83 30       	cpi	r24, 0x03	; 3
    38e6:	e1 f5       	brne	.+120    	; 0x3960 <_ZanRK5ValueS1_+0x194>
    38e8:	da 01       	movw	r26, r20
    38ea:	19 96       	adiw	r26, 0x09	; 9
    38ec:	8c 91       	ld	r24, X
    38ee:	19 97       	sbiw	r26, 0x09	; 9
    38f0:	8f 93       	push	r24
    38f2:	18 96       	adiw	r26, 0x08	; 8
    38f4:	8c 91       	ld	r24, X
    38f6:	18 97       	sbiw	r26, 0x08	; 8
    38f8:	8f 93       	push	r24
    38fa:	17 96       	adiw	r26, 0x07	; 7
    38fc:	8c 91       	ld	r24, X
    38fe:	17 97       	sbiw	r26, 0x07	; 7
    3900:	8f 93       	push	r24
    3902:	16 96       	adiw	r26, 0x06	; 6
    3904:	8c 91       	ld	r24, X
    3906:	8f 93       	push	r24
    3908:	8e e0       	ldi	r24, 0x0E	; 14
    390a:	92 e0       	ldi	r25, 0x02	; 2
    390c:	9f 93       	push	r25
    390e:	8f 93       	push	r24
    3910:	8e 01       	movw	r16, r28
    3912:	07 5d       	subi	r16, 0xD7	; 215
    3914:	1f 4f       	sbci	r17, 0xFF	; 255
    3916:	1f 93       	push	r17
    3918:	0f 93       	push	r16
    391a:	0e 94 5c 2d 	call	0x5ab8	; 0x5ab8 <sprintf>
    391e:	b6 01       	movw	r22, r12
    3920:	ce 01       	movw	r24, r28
    3922:	8e 5b       	subi	r24, 0xBE	; 190
    3924:	9f 4f       	sbci	r25, 0xFF	; 255
    3926:	0e 94 06 2d 	call	0x5a0c	; 0x5a0c <strcpy>
    392a:	b8 01       	movw	r22, r16
    392c:	ce 01       	movw	r24, r28
    392e:	8e 5b       	subi	r24, 0xBE	; 190
    3930:	9f 4f       	sbci	r25, 0xFF	; 255
    3932:	0e 94 f2 2c 	call	0x59e4	; 0x59e4 <strcat>
    3936:	be 01       	movw	r22, r28
    3938:	6e 5b       	subi	r22, 0xBE	; 190
    393a:	7f 4f       	sbci	r23, 0xFF	; 255
    393c:	ce 01       	movw	r24, r28
    393e:	01 96       	adiw	r24, 0x01	; 1
    3940:	0e 94 1c 17 	call	0x2e38	; 0x2e38 <_ZN5ValueC1EPKc>
    3944:	88 e2       	ldi	r24, 0x28	; 40
    3946:	fe 01       	movw	r30, r28
    3948:	31 96       	adiw	r30, 0x01	; 1
    394a:	d7 01       	movw	r26, r14
    394c:	01 90       	ld	r0, Z+
    394e:	0d 92       	st	X+, r0
    3950:	8a 95       	dec	r24
    3952:	e1 f7       	brne	.-8      	; 0x394c <_ZanRK5ValueS1_+0x180>
    3954:	0f b6       	in	r0, 0x3f	; 63
    3956:	f8 94       	cli
    3958:	de bf       	out	0x3e, r29	; 62
    395a:	0f be       	out	0x3f, r0	; 63
    395c:	cd bf       	out	0x3d, r28	; 61
    395e:	7c c0       	rjmp	.+248    	; 0x3a58 <_ZanRK5ValueS1_+0x28c>
    3960:	bf 01       	movw	r22, r30
    3962:	66 5f       	subi	r22, 0xF6	; 246
    3964:	7f 4f       	sbci	r23, 0xFF	; 255
    3966:	ce 01       	movw	r24, r28
    3968:	8e 5b       	subi	r24, 0xBE	; 190
    396a:	9f 4f       	sbci	r25, 0xFF	; 255
    396c:	0e 94 06 2d 	call	0x5a0c	; 0x5a0c <strcpy>
    3970:	b8 01       	movw	r22, r16
    3972:	66 5f       	subi	r22, 0xF6	; 246
    3974:	7f 4f       	sbci	r23, 0xFF	; 255
    3976:	ce 01       	movw	r24, r28
    3978:	8e 5b       	subi	r24, 0xBE	; 190
    397a:	9f 4f       	sbci	r25, 0xFF	; 255
    397c:	0e 94 f2 2c 	call	0x59e4	; 0x59e4 <strcat>
    3980:	be 01       	movw	r22, r28
    3982:	6e 5b       	subi	r22, 0xBE	; 190
    3984:	7f 4f       	sbci	r23, 0xFF	; 255
    3986:	ce 01       	movw	r24, r28
    3988:	01 96       	adiw	r24, 0x01	; 1
    398a:	0e 94 1c 17 	call	0x2e38	; 0x2e38 <_ZN5ValueC1EPKc>
    398e:	3e c0       	rjmp	.+124    	; 0x3a0c <_ZanRK5ValueS1_+0x240>
    3990:	93 30       	cpi	r25, 0x03	; 3
    3992:	b1 f4       	brne	.+44     	; 0x39c0 <_ZanRK5ValueS1_+0x1f4>
    3994:	83 30       	cpi	r24, 0x03	; 3
    3996:	21 f5       	brne	.+72     	; 0x39e0 <_ZanRK5ValueS1_+0x214>
    3998:	66 81       	ldd	r22, Z+6	; 0x06
    399a:	77 81       	ldd	r23, Z+7	; 0x07
    399c:	80 85       	ldd	r24, Z+8	; 0x08
    399e:	91 85       	ldd	r25, Z+9	; 0x09
    39a0:	0e 94 4e 24 	call	0x489c	; 0x489c <__fixsfsi>
    39a4:	4b 01       	movw	r8, r22
    39a6:	5c 01       	movw	r10, r24
    39a8:	d8 01       	movw	r26, r16
    39aa:	16 96       	adiw	r26, 0x06	; 6
    39ac:	6d 91       	ld	r22, X+
    39ae:	7d 91       	ld	r23, X+
    39b0:	8d 91       	ld	r24, X+
    39b2:	9c 91       	ld	r25, X
    39b4:	19 97       	sbiw	r26, 0x09	; 9
    39b6:	0e 94 4e 24 	call	0x489c	; 0x489c <__fixsfsi>
    39ba:	68 21       	and	r22, r8
    39bc:	79 21       	and	r23, r9
    39be:	22 c0       	rjmp	.+68     	; 0x3a04 <_ZanRK5ValueS1_+0x238>
    39c0:	c4 80       	ldd	r12, Z+4	; 0x04
    39c2:	d5 80       	ldd	r13, Z+5	; 0x05
    39c4:	83 30       	cpi	r24, 0x03	; 3
    39c6:	c1 f4       	brne	.+48     	; 0x39f8 <_ZanRK5ValueS1_+0x22c>
    39c8:	da 01       	movw	r26, r20
    39ca:	16 96       	adiw	r26, 0x06	; 6
    39cc:	6d 91       	ld	r22, X+
    39ce:	7d 91       	ld	r23, X+
    39d0:	8d 91       	ld	r24, X+
    39d2:	9c 91       	ld	r25, X
    39d4:	19 97       	sbiw	r26, 0x09	; 9
    39d6:	0e 94 4e 24 	call	0x489c	; 0x489c <__fixsfsi>
    39da:	6c 21       	and	r22, r12
    39dc:	7d 21       	and	r23, r13
    39de:	12 c0       	rjmp	.+36     	; 0x3a04 <_ZanRK5ValueS1_+0x238>
    39e0:	66 81       	ldd	r22, Z+6	; 0x06
    39e2:	77 81       	ldd	r23, Z+7	; 0x07
    39e4:	80 85       	ldd	r24, Z+8	; 0x08
    39e6:	91 85       	ldd	r25, Z+9	; 0x09
    39e8:	0e 94 4e 24 	call	0x489c	; 0x489c <__fixsfsi>
    39ec:	f8 01       	movw	r30, r16
    39ee:	24 81       	ldd	r18, Z+4	; 0x04
    39f0:	35 81       	ldd	r19, Z+5	; 0x05
    39f2:	62 23       	and	r22, r18
    39f4:	73 23       	and	r23, r19
    39f6:	06 c0       	rjmp	.+12     	; 0x3a04 <_ZanRK5ValueS1_+0x238>
    39f8:	fa 01       	movw	r30, r20
    39fa:	84 81       	ldd	r24, Z+4	; 0x04
    39fc:	95 81       	ldd	r25, Z+5	; 0x05
    39fe:	b6 01       	movw	r22, r12
    3a00:	68 23       	and	r22, r24
    3a02:	79 23       	and	r23, r25
    3a04:	ce 01       	movw	r24, r28
    3a06:	01 96       	adiw	r24, 0x01	; 1
    3a08:	0e 94 e4 16 	call	0x2dc8	; 0x2dc8 <_ZN5ValueC1Ei>
    3a0c:	88 e2       	ldi	r24, 0x28	; 40
    3a0e:	fe 01       	movw	r30, r28
    3a10:	31 96       	adiw	r30, 0x01	; 1
    3a12:	d7 01       	movw	r26, r14
    3a14:	01 90       	ld	r0, Z+
    3a16:	0d 92       	st	X+, r0
    3a18:	8a 95       	dec	r24
    3a1a:	e1 f7       	brne	.-8      	; 0x3a14 <_ZanRK5ValueS1_+0x248>
    3a1c:	1d c0       	rjmp	.+58     	; 0x3a58 <_ZanRK5ValueS1_+0x28c>
    3a1e:	93 30       	cpi	r25, 0x03	; 3
    3a20:	09 f0       	breq	.+2      	; 0x3a24 <_ZanRK5ValueS1_+0x258>
    3a22:	9e cf       	rjmp	.-196    	; 0x3960 <_ZanRK5ValueS1_+0x194>
    3a24:	81 85       	ldd	r24, Z+9	; 0x09
    3a26:	8f 93       	push	r24
    3a28:	80 85       	ldd	r24, Z+8	; 0x08
    3a2a:	8f 93       	push	r24
    3a2c:	87 81       	ldd	r24, Z+7	; 0x07
    3a2e:	8f 93       	push	r24
    3a30:	86 81       	ldd	r24, Z+6	; 0x06
    3a32:	8f 93       	push	r24
    3a34:	8e e0       	ldi	r24, 0x0E	; 14
    3a36:	92 e0       	ldi	r25, 0x02	; 2
    3a38:	9f 93       	push	r25
    3a3a:	8f 93       	push	r24
    3a3c:	df 92       	push	r13
    3a3e:	cf 92       	push	r12
    3a40:	0e 94 5c 2d 	call	0x5ab8	; 0x5ab8 <sprintf>
    3a44:	b5 01       	movw	r22, r10
    3a46:	c6 01       	movw	r24, r12
    3a48:	0e 94 06 2d 	call	0x5a0c	; 0x5a0c <strcpy>
    3a4c:	b4 01       	movw	r22, r8
    3a4e:	c6 01       	movw	r24, r12
    3a50:	0e 94 f2 2c 	call	0x59e4	; 0x59e4 <strcat>
    3a54:	b6 01       	movw	r22, r12
    3a56:	72 cf       	rjmp	.-284    	; 0x393c <_ZanRK5ValueS1_+0x170>
    3a58:	c7 01       	movw	r24, r14
    3a5a:	c6 5a       	subi	r28, 0xA6	; 166
    3a5c:	df 4f       	sbci	r29, 0xFF	; 255
    3a5e:	0f b6       	in	r0, 0x3f	; 63
    3a60:	f8 94       	cli
    3a62:	de bf       	out	0x3e, r29	; 62
    3a64:	0f be       	out	0x3f, r0	; 63
    3a66:	cd bf       	out	0x3d, r28	; 61
    3a68:	df 91       	pop	r29
    3a6a:	cf 91       	pop	r28
    3a6c:	1f 91       	pop	r17
    3a6e:	0f 91       	pop	r16
    3a70:	ff 90       	pop	r15
    3a72:	ef 90       	pop	r14
    3a74:	df 90       	pop	r13
    3a76:	cf 90       	pop	r12
    3a78:	bf 90       	pop	r11
    3a7a:	af 90       	pop	r10
    3a7c:	9f 90       	pop	r9
    3a7e:	8f 90       	pop	r8
    3a80:	08 95       	ret

00003a82 <_ZorRK5ValueS1_>:
    3a82:	8f 92       	push	r8
    3a84:	9f 92       	push	r9
    3a86:	af 92       	push	r10
    3a88:	bf 92       	push	r11
    3a8a:	cf 92       	push	r12
    3a8c:	df 92       	push	r13
    3a8e:	ef 92       	push	r14
    3a90:	ff 92       	push	r15
    3a92:	0f 93       	push	r16
    3a94:	1f 93       	push	r17
    3a96:	cf 93       	push	r28
    3a98:	df 93       	push	r29
    3a9a:	cd b7       	in	r28, 0x3d	; 61
    3a9c:	de b7       	in	r29, 0x3e	; 62
    3a9e:	a8 97       	sbiw	r28, 0x28	; 40
    3aa0:	0f b6       	in	r0, 0x3f	; 63
    3aa2:	f8 94       	cli
    3aa4:	de bf       	out	0x3e, r29	; 62
    3aa6:	0f be       	out	0x3f, r0	; 63
    3aa8:	cd bf       	out	0x3d, r28	; 61
    3aaa:	8c 01       	movw	r16, r24
    3aac:	fb 01       	movw	r30, r22
    3aae:	7a 01       	movw	r14, r20
    3ab0:	96 a1       	ldd	r25, Z+38	; 0x26
    3ab2:	92 30       	cpi	r25, 0x02	; 2
    3ab4:	29 f0       	breq	.+10     	; 0x3ac0 <_ZorRK5ValueS1_+0x3e>
    3ab6:	da 01       	movw	r26, r20
    3ab8:	96 96       	adiw	r26, 0x26	; 38
    3aba:	8c 91       	ld	r24, X
    3abc:	82 30       	cpi	r24, 0x02	; 2
    3abe:	69 f4       	brne	.+26     	; 0x3ada <_ZorRK5ValueS1_+0x58>
    3ac0:	87 a1       	ldd	r24, Z+39	; 0x27
    3ac2:	81 11       	cpse	r24, r1
    3ac4:	02 c0       	rjmp	.+4      	; 0x3aca <_ZorRK5ValueS1_+0x48>
    3ac6:	f7 01       	movw	r30, r14
    3ac8:	87 a1       	ldd	r24, Z+39	; 0x27
    3aca:	92 e0       	ldi	r25, 0x02	; 2
    3acc:	d8 01       	movw	r26, r16
    3ace:	96 96       	adiw	r26, 0x26	; 38
    3ad0:	9c 93       	st	X, r25
    3ad2:	96 97       	sbiw	r26, 0x26	; 38
    3ad4:	97 96       	adiw	r26, 0x27	; 39
    3ad6:	8c 93       	st	X, r24
    3ad8:	52 c0       	rjmp	.+164    	; 0x3b7e <_ZorRK5ValueS1_+0xfc>
    3ada:	91 30       	cpi	r25, 0x01	; 1
    3adc:	11 f0       	breq	.+4      	; 0x3ae2 <_ZorRK5ValueS1_+0x60>
    3ade:	81 30       	cpi	r24, 0x01	; 1
    3ae0:	41 f4       	brne	.+16     	; 0x3af2 <_ZorRK5ValueS1_+0x70>
    3ae2:	bf 01       	movw	r22, r30
    3ae4:	66 5f       	subi	r22, 0xF6	; 246
    3ae6:	7f 4f       	sbci	r23, 0xFF	; 255
    3ae8:	ce 01       	movw	r24, r28
    3aea:	01 96       	adiw	r24, 0x01	; 1
    3aec:	0e 94 1c 17 	call	0x2e38	; 0x2e38 <_ZN5ValueC1EPKc>
    3af0:	3e c0       	rjmp	.+124    	; 0x3b6e <_ZorRK5ValueS1_+0xec>
    3af2:	93 30       	cpi	r25, 0x03	; 3
    3af4:	a1 f4       	brne	.+40     	; 0x3b1e <_ZorRK5ValueS1_+0x9c>
    3af6:	83 30       	cpi	r24, 0x03	; 3
    3af8:	01 f5       	brne	.+64     	; 0x3b3a <_ZorRK5ValueS1_+0xb8>
    3afa:	66 81       	ldd	r22, Z+6	; 0x06
    3afc:	77 81       	ldd	r23, Z+7	; 0x07
    3afe:	80 85       	ldd	r24, Z+8	; 0x08
    3b00:	91 85       	ldd	r25, Z+9	; 0x09
    3b02:	0e 94 4e 24 	call	0x489c	; 0x489c <__fixsfsi>
    3b06:	4b 01       	movw	r8, r22
    3b08:	5c 01       	movw	r10, r24
    3b0a:	f7 01       	movw	r30, r14
    3b0c:	66 81       	ldd	r22, Z+6	; 0x06
    3b0e:	77 81       	ldd	r23, Z+7	; 0x07
    3b10:	80 85       	ldd	r24, Z+8	; 0x08
    3b12:	91 85       	ldd	r25, Z+9	; 0x09
    3b14:	0e 94 4e 24 	call	0x489c	; 0x489c <__fixsfsi>
    3b18:	68 29       	or	r22, r8
    3b1a:	79 29       	or	r23, r9
    3b1c:	24 c0       	rjmp	.+72     	; 0x3b66 <_ZorRK5ValueS1_+0xe4>
    3b1e:	c4 80       	ldd	r12, Z+4	; 0x04
    3b20:	d5 80       	ldd	r13, Z+5	; 0x05
    3b22:	83 30       	cpi	r24, 0x03	; 3
    3b24:	c1 f4       	brne	.+48     	; 0x3b56 <_ZorRK5ValueS1_+0xd4>
    3b26:	fa 01       	movw	r30, r20
    3b28:	66 81       	ldd	r22, Z+6	; 0x06
    3b2a:	77 81       	ldd	r23, Z+7	; 0x07
    3b2c:	80 85       	ldd	r24, Z+8	; 0x08
    3b2e:	91 85       	ldd	r25, Z+9	; 0x09
    3b30:	0e 94 4e 24 	call	0x489c	; 0x489c <__fixsfsi>
    3b34:	6c 29       	or	r22, r12
    3b36:	7d 29       	or	r23, r13
    3b38:	16 c0       	rjmp	.+44     	; 0x3b66 <_ZorRK5ValueS1_+0xe4>
    3b3a:	66 81       	ldd	r22, Z+6	; 0x06
    3b3c:	77 81       	ldd	r23, Z+7	; 0x07
    3b3e:	80 85       	ldd	r24, Z+8	; 0x08
    3b40:	91 85       	ldd	r25, Z+9	; 0x09
    3b42:	0e 94 4e 24 	call	0x489c	; 0x489c <__fixsfsi>
    3b46:	d7 01       	movw	r26, r14
    3b48:	14 96       	adiw	r26, 0x04	; 4
    3b4a:	2d 91       	ld	r18, X+
    3b4c:	3c 91       	ld	r19, X
    3b4e:	15 97       	sbiw	r26, 0x05	; 5
    3b50:	62 2b       	or	r22, r18
    3b52:	73 2b       	or	r23, r19
    3b54:	08 c0       	rjmp	.+16     	; 0x3b66 <_ZorRK5ValueS1_+0xe4>
    3b56:	da 01       	movw	r26, r20
    3b58:	14 96       	adiw	r26, 0x04	; 4
    3b5a:	8d 91       	ld	r24, X+
    3b5c:	9c 91       	ld	r25, X
    3b5e:	15 97       	sbiw	r26, 0x05	; 5
    3b60:	b6 01       	movw	r22, r12
    3b62:	68 2b       	or	r22, r24
    3b64:	79 2b       	or	r23, r25
    3b66:	ce 01       	movw	r24, r28
    3b68:	01 96       	adiw	r24, 0x01	; 1
    3b6a:	0e 94 e4 16 	call	0x2dc8	; 0x2dc8 <_ZN5ValueC1Ei>
    3b6e:	88 e2       	ldi	r24, 0x28	; 40
    3b70:	fe 01       	movw	r30, r28
    3b72:	31 96       	adiw	r30, 0x01	; 1
    3b74:	d8 01       	movw	r26, r16
    3b76:	01 90       	ld	r0, Z+
    3b78:	0d 92       	st	X+, r0
    3b7a:	8a 95       	dec	r24
    3b7c:	e1 f7       	brne	.-8      	; 0x3b76 <_ZorRK5ValueS1_+0xf4>
    3b7e:	c8 01       	movw	r24, r16
    3b80:	a8 96       	adiw	r28, 0x28	; 40
    3b82:	0f b6       	in	r0, 0x3f	; 63
    3b84:	f8 94       	cli
    3b86:	de bf       	out	0x3e, r29	; 62
    3b88:	0f be       	out	0x3f, r0	; 63
    3b8a:	cd bf       	out	0x3d, r28	; 61
    3b8c:	df 91       	pop	r29
    3b8e:	cf 91       	pop	r28
    3b90:	1f 91       	pop	r17
    3b92:	0f 91       	pop	r16
    3b94:	ff 90       	pop	r15
    3b96:	ef 90       	pop	r14
    3b98:	df 90       	pop	r13
    3b9a:	cf 90       	pop	r12
    3b9c:	bf 90       	pop	r11
    3b9e:	af 90       	pop	r10
    3ba0:	9f 90       	pop	r9
    3ba2:	8f 90       	pop	r8
    3ba4:	08 95       	ret

00003ba6 <_ZntRK5Value>:
    3ba6:	0f 93       	push	r16
    3ba8:	1f 93       	push	r17
    3baa:	cf 93       	push	r28
    3bac:	df 93       	push	r29
    3bae:	cd b7       	in	r28, 0x3d	; 61
    3bb0:	de b7       	in	r29, 0x3e	; 62
    3bb2:	a8 97       	sbiw	r28, 0x28	; 40
    3bb4:	0f b6       	in	r0, 0x3f	; 63
    3bb6:	f8 94       	cli
    3bb8:	de bf       	out	0x3e, r29	; 62
    3bba:	0f be       	out	0x3f, r0	; 63
    3bbc:	cd bf       	out	0x3d, r28	; 61
    3bbe:	8c 01       	movw	r16, r24
    3bc0:	fb 01       	movw	r30, r22
    3bc2:	86 a1       	ldd	r24, Z+38	; 0x26
    3bc4:	82 30       	cpi	r24, 0x02	; 2
    3bc6:	39 f4       	brne	.+14     	; 0x3bd6 <_ZntRK5Value+0x30>
    3bc8:	27 a1       	ldd	r18, Z+39	; 0x27
    3bca:	91 e0       	ldi	r25, 0x01	; 1
    3bcc:	92 27       	eor	r25, r18
    3bce:	f8 01       	movw	r30, r16
    3bd0:	86 a3       	std	Z+38, r24	; 0x26
    3bd2:	97 a3       	std	Z+39, r25	; 0x27
    3bd4:	22 c0       	rjmp	.+68     	; 0x3c1a <_ZntRK5Value+0x74>
    3bd6:	81 30       	cpi	r24, 0x01	; 1
    3bd8:	39 f4       	brne	.+14     	; 0x3be8 <_ZntRK5Value+0x42>
    3bda:	66 5f       	subi	r22, 0xF6	; 246
    3bdc:	7f 4f       	sbci	r23, 0xFF	; 255
    3bde:	ce 01       	movw	r24, r28
    3be0:	01 96       	adiw	r24, 0x01	; 1
    3be2:	0e 94 1c 17 	call	0x2e38	; 0x2e38 <_ZN5ValueC1EPKc>
    3be6:	11 c0       	rjmp	.+34     	; 0x3c0a <_ZntRK5Value+0x64>
    3be8:	83 30       	cpi	r24, 0x03	; 3
    3bea:	39 f4       	brne	.+14     	; 0x3bfa <_ZntRK5Value+0x54>
    3bec:	66 81       	ldd	r22, Z+6	; 0x06
    3bee:	77 81       	ldd	r23, Z+7	; 0x07
    3bf0:	80 85       	ldd	r24, Z+8	; 0x08
    3bf2:	91 85       	ldd	r25, Z+9	; 0x09
    3bf4:	0e 94 4e 24 	call	0x489c	; 0x489c <__fixsfsi>
    3bf8:	02 c0       	rjmp	.+4      	; 0x3bfe <_ZntRK5Value+0x58>
    3bfa:	64 81       	ldd	r22, Z+4	; 0x04
    3bfc:	75 81       	ldd	r23, Z+5	; 0x05
    3bfe:	60 95       	com	r22
    3c00:	70 95       	com	r23
    3c02:	ce 01       	movw	r24, r28
    3c04:	01 96       	adiw	r24, 0x01	; 1
    3c06:	0e 94 e4 16 	call	0x2dc8	; 0x2dc8 <_ZN5ValueC1Ei>
    3c0a:	88 e2       	ldi	r24, 0x28	; 40
    3c0c:	fe 01       	movw	r30, r28
    3c0e:	31 96       	adiw	r30, 0x01	; 1
    3c10:	d8 01       	movw	r26, r16
    3c12:	01 90       	ld	r0, Z+
    3c14:	0d 92       	st	X+, r0
    3c16:	8a 95       	dec	r24
    3c18:	e1 f7       	brne	.-8      	; 0x3c12 <_ZntRK5Value+0x6c>
    3c1a:	c8 01       	movw	r24, r16
    3c1c:	a8 96       	adiw	r28, 0x28	; 40
    3c1e:	0f b6       	in	r0, 0x3f	; 63
    3c20:	f8 94       	cli
    3c22:	de bf       	out	0x3e, r29	; 62
    3c24:	0f be       	out	0x3f, r0	; 63
    3c26:	cd bf       	out	0x3d, r28	; 61
    3c28:	df 91       	pop	r29
    3c2a:	cf 91       	pop	r28
    3c2c:	1f 91       	pop	r17
    3c2e:	0f 91       	pop	r16
    3c30:	08 95       	ret

00003c32 <_ZeoRK5ValueS1_>:
    3c32:	8f 92       	push	r8
    3c34:	9f 92       	push	r9
    3c36:	af 92       	push	r10
    3c38:	bf 92       	push	r11
    3c3a:	cf 92       	push	r12
    3c3c:	df 92       	push	r13
    3c3e:	ef 92       	push	r14
    3c40:	ff 92       	push	r15
    3c42:	0f 93       	push	r16
    3c44:	1f 93       	push	r17
    3c46:	cf 93       	push	r28
    3c48:	df 93       	push	r29
    3c4a:	cd b7       	in	r28, 0x3d	; 61
    3c4c:	de b7       	in	r29, 0x3e	; 62
    3c4e:	a8 97       	sbiw	r28, 0x28	; 40
    3c50:	0f b6       	in	r0, 0x3f	; 63
    3c52:	f8 94       	cli
    3c54:	de bf       	out	0x3e, r29	; 62
    3c56:	0f be       	out	0x3f, r0	; 63
    3c58:	cd bf       	out	0x3d, r28	; 61
    3c5a:	8c 01       	movw	r16, r24
    3c5c:	fb 01       	movw	r30, r22
    3c5e:	7a 01       	movw	r14, r20
    3c60:	96 a1       	ldd	r25, Z+38	; 0x26
    3c62:	92 30       	cpi	r25, 0x02	; 2
    3c64:	29 f0       	breq	.+10     	; 0x3c70 <_ZeoRK5ValueS1_+0x3e>
    3c66:	da 01       	movw	r26, r20
    3c68:	96 96       	adiw	r26, 0x26	; 38
    3c6a:	8c 91       	ld	r24, X
    3c6c:	82 30       	cpi	r24, 0x02	; 2
    3c6e:	31 f4       	brne	.+12     	; 0x3c7c <_ZeoRK5ValueS1_+0x4a>
    3c70:	67 a1       	ldd	r22, Z+39	; 0x27
    3c72:	f7 01       	movw	r30, r14
    3c74:	87 a1       	ldd	r24, Z+39	; 0x27
    3c76:	68 27       	eor	r22, r24
    3c78:	70 e0       	ldi	r23, 0x00	; 0
    3c7a:	46 c0       	rjmp	.+140    	; 0x3d08 <_ZeoRK5ValueS1_+0xd6>
    3c7c:	91 30       	cpi	r25, 0x01	; 1
    3c7e:	11 f0       	breq	.+4      	; 0x3c84 <_ZeoRK5ValueS1_+0x52>
    3c80:	81 30       	cpi	r24, 0x01	; 1
    3c82:	41 f4       	brne	.+16     	; 0x3c94 <_ZeoRK5ValueS1_+0x62>
    3c84:	bf 01       	movw	r22, r30
    3c86:	66 5f       	subi	r22, 0xF6	; 246
    3c88:	7f 4f       	sbci	r23, 0xFF	; 255
    3c8a:	ce 01       	movw	r24, r28
    3c8c:	01 96       	adiw	r24, 0x01	; 1
    3c8e:	0e 94 1c 17 	call	0x2e38	; 0x2e38 <_ZN5ValueC1EPKc>
    3c92:	3e c0       	rjmp	.+124    	; 0x3d10 <_ZeoRK5ValueS1_+0xde>
    3c94:	93 30       	cpi	r25, 0x03	; 3
    3c96:	b1 f4       	brne	.+44     	; 0x3cc4 <_ZeoRK5ValueS1_+0x92>
    3c98:	83 30       	cpi	r24, 0x03	; 3
    3c9a:	21 f5       	brne	.+72     	; 0x3ce4 <_ZeoRK5ValueS1_+0xb2>
    3c9c:	66 81       	ldd	r22, Z+6	; 0x06
    3c9e:	77 81       	ldd	r23, Z+7	; 0x07
    3ca0:	80 85       	ldd	r24, Z+8	; 0x08
    3ca2:	91 85       	ldd	r25, Z+9	; 0x09
    3ca4:	0e 94 4e 24 	call	0x489c	; 0x489c <__fixsfsi>
    3ca8:	4b 01       	movw	r8, r22
    3caa:	5c 01       	movw	r10, r24
    3cac:	d7 01       	movw	r26, r14
    3cae:	16 96       	adiw	r26, 0x06	; 6
    3cb0:	6d 91       	ld	r22, X+
    3cb2:	7d 91       	ld	r23, X+
    3cb4:	8d 91       	ld	r24, X+
    3cb6:	9c 91       	ld	r25, X
    3cb8:	19 97       	sbiw	r26, 0x09	; 9
    3cba:	0e 94 4e 24 	call	0x489c	; 0x489c <__fixsfsi>
    3cbe:	68 25       	eor	r22, r8
    3cc0:	79 25       	eor	r23, r9
    3cc2:	22 c0       	rjmp	.+68     	; 0x3d08 <_ZeoRK5ValueS1_+0xd6>
    3cc4:	c4 80       	ldd	r12, Z+4	; 0x04
    3cc6:	d5 80       	ldd	r13, Z+5	; 0x05
    3cc8:	83 30       	cpi	r24, 0x03	; 3
    3cca:	c1 f4       	brne	.+48     	; 0x3cfc <_ZeoRK5ValueS1_+0xca>
    3ccc:	da 01       	movw	r26, r20
    3cce:	16 96       	adiw	r26, 0x06	; 6
    3cd0:	6d 91       	ld	r22, X+
    3cd2:	7d 91       	ld	r23, X+
    3cd4:	8d 91       	ld	r24, X+
    3cd6:	9c 91       	ld	r25, X
    3cd8:	19 97       	sbiw	r26, 0x09	; 9
    3cda:	0e 94 4e 24 	call	0x489c	; 0x489c <__fixsfsi>
    3cde:	6c 25       	eor	r22, r12
    3ce0:	7d 25       	eor	r23, r13
    3ce2:	12 c0       	rjmp	.+36     	; 0x3d08 <_ZeoRK5ValueS1_+0xd6>
    3ce4:	66 81       	ldd	r22, Z+6	; 0x06
    3ce6:	77 81       	ldd	r23, Z+7	; 0x07
    3ce8:	80 85       	ldd	r24, Z+8	; 0x08
    3cea:	91 85       	ldd	r25, Z+9	; 0x09
    3cec:	0e 94 4e 24 	call	0x489c	; 0x489c <__fixsfsi>
    3cf0:	f7 01       	movw	r30, r14
    3cf2:	24 81       	ldd	r18, Z+4	; 0x04
    3cf4:	35 81       	ldd	r19, Z+5	; 0x05
    3cf6:	62 27       	eor	r22, r18
    3cf8:	73 27       	eor	r23, r19
    3cfa:	06 c0       	rjmp	.+12     	; 0x3d08 <_ZeoRK5ValueS1_+0xd6>
    3cfc:	fa 01       	movw	r30, r20
    3cfe:	84 81       	ldd	r24, Z+4	; 0x04
    3d00:	95 81       	ldd	r25, Z+5	; 0x05
    3d02:	b6 01       	movw	r22, r12
    3d04:	68 27       	eor	r22, r24
    3d06:	79 27       	eor	r23, r25
    3d08:	ce 01       	movw	r24, r28
    3d0a:	01 96       	adiw	r24, 0x01	; 1
    3d0c:	0e 94 e4 16 	call	0x2dc8	; 0x2dc8 <_ZN5ValueC1Ei>
    3d10:	88 e2       	ldi	r24, 0x28	; 40
    3d12:	fe 01       	movw	r30, r28
    3d14:	31 96       	adiw	r30, 0x01	; 1
    3d16:	d8 01       	movw	r26, r16
    3d18:	01 90       	ld	r0, Z+
    3d1a:	0d 92       	st	X+, r0
    3d1c:	8a 95       	dec	r24
    3d1e:	e1 f7       	brne	.-8      	; 0x3d18 <_ZeoRK5ValueS1_+0xe6>
    3d20:	c8 01       	movw	r24, r16
    3d22:	a8 96       	adiw	r28, 0x28	; 40
    3d24:	0f b6       	in	r0, 0x3f	; 63
    3d26:	f8 94       	cli
    3d28:	de bf       	out	0x3e, r29	; 62
    3d2a:	0f be       	out	0x3f, r0	; 63
    3d2c:	cd bf       	out	0x3d, r28	; 61
    3d2e:	df 91       	pop	r29
    3d30:	cf 91       	pop	r28
    3d32:	1f 91       	pop	r17
    3d34:	0f 91       	pop	r16
    3d36:	ff 90       	pop	r15
    3d38:	ef 90       	pop	r14
    3d3a:	df 90       	pop	r13
    3d3c:	cf 90       	pop	r12
    3d3e:	bf 90       	pop	r11
    3d40:	af 90       	pop	r10
    3d42:	9f 90       	pop	r9
    3d44:	8f 90       	pop	r8
    3d46:	08 95       	ret

00003d48 <_ZeqRK5ValueS1_>:
    3d48:	df 92       	push	r13
    3d4a:	ef 92       	push	r14
    3d4c:	ff 92       	push	r15
    3d4e:	0f 93       	push	r16
    3d50:	1f 93       	push	r17
    3d52:	cf 93       	push	r28
    3d54:	df 93       	push	r29
    3d56:	ec 01       	movw	r28, r24
    3d58:	7b 01       	movw	r14, r22
    3d5a:	8a 01       	movw	r16, r20
    3d5c:	fb 01       	movw	r30, r22
    3d5e:	96 a1       	ldd	r25, Z+38	; 0x26
    3d60:	92 30       	cpi	r25, 0x02	; 2
    3d62:	21 f0       	breq	.+8      	; 0x3d6c <_ZeqRK5ValueS1_+0x24>
    3d64:	fa 01       	movw	r30, r20
    3d66:	86 a1       	ldd	r24, Z+38	; 0x26
    3d68:	82 30       	cpi	r24, 0x02	; 2
    3d6a:	41 f4       	brne	.+16     	; 0x3d7c <_ZeqRK5ValueS1_+0x34>
    3d6c:	81 e0       	ldi	r24, 0x01	; 1
    3d6e:	f7 01       	movw	r30, r14
    3d70:	27 a1       	ldd	r18, Z+39	; 0x27
    3d72:	f8 01       	movw	r30, r16
    3d74:	97 a1       	ldd	r25, Z+39	; 0x27
    3d76:	29 13       	cpse	r18, r25
    3d78:	67 c0       	rjmp	.+206    	; 0x3e48 <_ZeqRK5ValueS1_+0x100>
    3d7a:	67 c0       	rjmp	.+206    	; 0x3e4a <_ZeqRK5ValueS1_+0x102>
    3d7c:	91 30       	cpi	r25, 0x01	; 1
    3d7e:	89 f4       	brne	.+34     	; 0x3da2 <_ZeqRK5ValueS1_+0x5a>
    3d80:	81 30       	cpi	r24, 0x01	; 1
    3d82:	39 f5       	brne	.+78     	; 0x3dd2 <_ZeqRK5ValueS1_+0x8a>
    3d84:	ba 01       	movw	r22, r20
    3d86:	66 5f       	subi	r22, 0xF6	; 246
    3d88:	7f 4f       	sbci	r23, 0xFF	; 255
    3d8a:	c7 01       	movw	r24, r14
    3d8c:	0a 96       	adiw	r24, 0x0a	; 10
    3d8e:	0e 94 fd 2c 	call	0x59fa	; 0x59fa <strcmp>
    3d92:	22 e0       	ldi	r18, 0x02	; 2
    3d94:	2e a3       	std	Y+38, r18	; 0x26
    3d96:	21 e0       	ldi	r18, 0x01	; 1
    3d98:	89 2b       	or	r24, r25
    3d9a:	09 f0       	breq	.+2      	; 0x3d9e <_ZeqRK5ValueS1_+0x56>
    3d9c:	20 e0       	ldi	r18, 0x00	; 0
    3d9e:	2f a3       	std	Y+39, r18	; 0x27
    3da0:	57 c0       	rjmp	.+174    	; 0x3e50 <_ZeqRK5ValueS1_+0x108>
    3da2:	93 30       	cpi	r25, 0x03	; 3
    3da4:	b1 f4       	brne	.+44     	; 0x3dd2 <_ZeqRK5ValueS1_+0x8a>
    3da6:	83 30       	cpi	r24, 0x03	; 3
    3da8:	d1 f4       	brne	.+52     	; 0x3dde <_ZeqRK5ValueS1_+0x96>
    3daa:	dd 24       	eor	r13, r13
    3dac:	d3 94       	inc	r13
    3dae:	fa 01       	movw	r30, r20
    3db0:	26 81       	ldd	r18, Z+6	; 0x06
    3db2:	37 81       	ldd	r19, Z+7	; 0x07
    3db4:	40 85       	ldd	r20, Z+8	; 0x08
    3db6:	51 85       	ldd	r21, Z+9	; 0x09
    3db8:	fb 01       	movw	r30, r22
    3dba:	66 81       	ldd	r22, Z+6	; 0x06
    3dbc:	77 81       	ldd	r23, Z+7	; 0x07
    3dbe:	80 85       	ldd	r24, Z+8	; 0x08
    3dc0:	91 85       	ldd	r25, Z+9	; 0x09
    3dc2:	0e 94 d7 23 	call	0x47ae	; 0x47ae <__cmpsf2>
    3dc6:	81 11       	cpse	r24, r1
    3dc8:	d1 2c       	mov	r13, r1
    3dca:	82 e0       	ldi	r24, 0x02	; 2
    3dcc:	8e a3       	std	Y+38, r24	; 0x26
    3dce:	df a2       	std	Y+39, r13	; 0x27
    3dd0:	3f c0       	rjmp	.+126    	; 0x3e50 <_ZeqRK5ValueS1_+0x108>
    3dd2:	f7 01       	movw	r30, r14
    3dd4:	64 81       	ldd	r22, Z+4	; 0x04
    3dd6:	75 81       	ldd	r23, Z+5	; 0x05
    3dd8:	83 30       	cpi	r24, 0x03	; 3
    3dda:	79 f5       	brne	.+94     	; 0x3e3a <_ZeqRK5ValueS1_+0xf2>
    3ddc:	19 c0       	rjmp	.+50     	; 0x3e10 <_ZeqRK5ValueS1_+0xc8>
    3dde:	fa 01       	movw	r30, r20
    3de0:	64 81       	ldd	r22, Z+4	; 0x04
    3de2:	75 81       	ldd	r23, Z+5	; 0x05
    3de4:	07 2e       	mov	r0, r23
    3de6:	00 0c       	add	r0, r0
    3de8:	88 0b       	sbc	r24, r24
    3dea:	99 0b       	sbc	r25, r25
    3dec:	0e 94 86 24 	call	0x490c	; 0x490c <__floatsisf>
    3df0:	9b 01       	movw	r18, r22
    3df2:	ac 01       	movw	r20, r24
    3df4:	11 e0       	ldi	r17, 0x01	; 1
    3df6:	f7 01       	movw	r30, r14
    3df8:	66 81       	ldd	r22, Z+6	; 0x06
    3dfa:	77 81       	ldd	r23, Z+7	; 0x07
    3dfc:	80 85       	ldd	r24, Z+8	; 0x08
    3dfe:	91 85       	ldd	r25, Z+9	; 0x09
    3e00:	0e 94 d7 23 	call	0x47ae	; 0x47ae <__cmpsf2>
    3e04:	81 11       	cpse	r24, r1
    3e06:	10 e0       	ldi	r17, 0x00	; 0
    3e08:	82 e0       	ldi	r24, 0x02	; 2
    3e0a:	8e a3       	std	Y+38, r24	; 0x26
    3e0c:	1f a3       	std	Y+39, r17	; 0x27
    3e0e:	20 c0       	rjmp	.+64     	; 0x3e50 <_ZeqRK5ValueS1_+0x108>
    3e10:	07 2e       	mov	r0, r23
    3e12:	00 0c       	add	r0, r0
    3e14:	88 0b       	sbc	r24, r24
    3e16:	99 0b       	sbc	r25, r25
    3e18:	0e 94 86 24 	call	0x490c	; 0x490c <__floatsisf>
    3e1c:	ff 24       	eor	r15, r15
    3e1e:	f3 94       	inc	r15
    3e20:	f8 01       	movw	r30, r16
    3e22:	26 81       	ldd	r18, Z+6	; 0x06
    3e24:	37 81       	ldd	r19, Z+7	; 0x07
    3e26:	40 85       	ldd	r20, Z+8	; 0x08
    3e28:	51 85       	ldd	r21, Z+9	; 0x09
    3e2a:	0e 94 d7 23 	call	0x47ae	; 0x47ae <__cmpsf2>
    3e2e:	81 11       	cpse	r24, r1
    3e30:	f1 2c       	mov	r15, r1
    3e32:	82 e0       	ldi	r24, 0x02	; 2
    3e34:	8e a3       	std	Y+38, r24	; 0x26
    3e36:	ff a2       	std	Y+39, r15	; 0x27
    3e38:	0b c0       	rjmp	.+22     	; 0x3e50 <_ZeqRK5ValueS1_+0x108>
    3e3a:	81 e0       	ldi	r24, 0x01	; 1
    3e3c:	f8 01       	movw	r30, r16
    3e3e:	24 81       	ldd	r18, Z+4	; 0x04
    3e40:	35 81       	ldd	r19, Z+5	; 0x05
    3e42:	62 17       	cp	r22, r18
    3e44:	73 07       	cpc	r23, r19
    3e46:	09 f0       	breq	.+2      	; 0x3e4a <_ZeqRK5ValueS1_+0x102>
    3e48:	80 e0       	ldi	r24, 0x00	; 0
    3e4a:	92 e0       	ldi	r25, 0x02	; 2
    3e4c:	9e a3       	std	Y+38, r25	; 0x26
    3e4e:	8f a3       	std	Y+39, r24	; 0x27
    3e50:	ce 01       	movw	r24, r28
    3e52:	df 91       	pop	r29
    3e54:	cf 91       	pop	r28
    3e56:	1f 91       	pop	r17
    3e58:	0f 91       	pop	r16
    3e5a:	ff 90       	pop	r15
    3e5c:	ef 90       	pop	r14
    3e5e:	df 90       	pop	r13
    3e60:	08 95       	ret

00003e62 <_ZneRK5ValueS1_>:
    3e62:	df 92       	push	r13
    3e64:	ef 92       	push	r14
    3e66:	ff 92       	push	r15
    3e68:	0f 93       	push	r16
    3e6a:	1f 93       	push	r17
    3e6c:	cf 93       	push	r28
    3e6e:	df 93       	push	r29
    3e70:	ec 01       	movw	r28, r24
    3e72:	7b 01       	movw	r14, r22
    3e74:	8a 01       	movw	r16, r20
    3e76:	fb 01       	movw	r30, r22
    3e78:	96 a1       	ldd	r25, Z+38	; 0x26
    3e7a:	92 30       	cpi	r25, 0x02	; 2
    3e7c:	21 f0       	breq	.+8      	; 0x3e86 <_ZneRK5ValueS1_+0x24>
    3e7e:	fa 01       	movw	r30, r20
    3e80:	86 a1       	ldd	r24, Z+38	; 0x26
    3e82:	82 30       	cpi	r24, 0x02	; 2
    3e84:	31 f4       	brne	.+12     	; 0x3e92 <_ZneRK5ValueS1_+0x30>
    3e86:	f7 01       	movw	r30, r14
    3e88:	97 a1       	ldd	r25, Z+39	; 0x27
    3e8a:	f8 01       	movw	r30, r16
    3e8c:	87 a1       	ldd	r24, Z+39	; 0x27
    3e8e:	89 27       	eor	r24, r25
    3e90:	6a c0       	rjmp	.+212    	; 0x3f66 <_ZneRK5ValueS1_+0x104>
    3e92:	91 30       	cpi	r25, 0x01	; 1
    3e94:	89 f4       	brne	.+34     	; 0x3eb8 <_ZneRK5ValueS1_+0x56>
    3e96:	81 30       	cpi	r24, 0x01	; 1
    3e98:	41 f5       	brne	.+80     	; 0x3eea <_ZneRK5ValueS1_+0x88>
    3e9a:	ba 01       	movw	r22, r20
    3e9c:	66 5f       	subi	r22, 0xF6	; 246
    3e9e:	7f 4f       	sbci	r23, 0xFF	; 255
    3ea0:	c7 01       	movw	r24, r14
    3ea2:	0a 96       	adiw	r24, 0x0a	; 10
    3ea4:	0e 94 fd 2c 	call	0x59fa	; 0x59fa <strcmp>
    3ea8:	22 e0       	ldi	r18, 0x02	; 2
    3eaa:	2e a3       	std	Y+38, r18	; 0x26
    3eac:	21 e0       	ldi	r18, 0x01	; 1
    3eae:	89 2b       	or	r24, r25
    3eb0:	09 f4       	brne	.+2      	; 0x3eb4 <_ZneRK5ValueS1_+0x52>
    3eb2:	20 e0       	ldi	r18, 0x00	; 0
    3eb4:	2f a3       	std	Y+39, r18	; 0x27
    3eb6:	5a c0       	rjmp	.+180    	; 0x3f6c <_ZneRK5ValueS1_+0x10a>
    3eb8:	93 30       	cpi	r25, 0x03	; 3
    3eba:	b9 f4       	brne	.+46     	; 0x3eea <_ZneRK5ValueS1_+0x88>
    3ebc:	83 30       	cpi	r24, 0x03	; 3
    3ebe:	d9 f4       	brne	.+54     	; 0x3ef6 <_ZneRK5ValueS1_+0x94>
    3ec0:	dd 24       	eor	r13, r13
    3ec2:	d3 94       	inc	r13
    3ec4:	fa 01       	movw	r30, r20
    3ec6:	26 81       	ldd	r18, Z+6	; 0x06
    3ec8:	37 81       	ldd	r19, Z+7	; 0x07
    3eca:	40 85       	ldd	r20, Z+8	; 0x08
    3ecc:	51 85       	ldd	r21, Z+9	; 0x09
    3ece:	fb 01       	movw	r30, r22
    3ed0:	66 81       	ldd	r22, Z+6	; 0x06
    3ed2:	77 81       	ldd	r23, Z+7	; 0x07
    3ed4:	80 85       	ldd	r24, Z+8	; 0x08
    3ed6:	91 85       	ldd	r25, Z+9	; 0x09
    3ed8:	0e 94 d7 23 	call	0x47ae	; 0x47ae <__cmpsf2>
    3edc:	81 11       	cpse	r24, r1
    3ede:	01 c0       	rjmp	.+2      	; 0x3ee2 <_ZneRK5ValueS1_+0x80>
    3ee0:	d1 2c       	mov	r13, r1
    3ee2:	82 e0       	ldi	r24, 0x02	; 2
    3ee4:	8e a3       	std	Y+38, r24	; 0x26
    3ee6:	df a2       	std	Y+39, r13	; 0x27
    3ee8:	41 c0       	rjmp	.+130    	; 0x3f6c <_ZneRK5ValueS1_+0x10a>
    3eea:	f7 01       	movw	r30, r14
    3eec:	64 81       	ldd	r22, Z+4	; 0x04
    3eee:	75 81       	ldd	r23, Z+5	; 0x05
    3ef0:	83 30       	cpi	r24, 0x03	; 3
    3ef2:	89 f5       	brne	.+98     	; 0x3f56 <_ZneRK5ValueS1_+0xf4>
    3ef4:	1a c0       	rjmp	.+52     	; 0x3f2a <_ZneRK5ValueS1_+0xc8>
    3ef6:	fa 01       	movw	r30, r20
    3ef8:	64 81       	ldd	r22, Z+4	; 0x04
    3efa:	75 81       	ldd	r23, Z+5	; 0x05
    3efc:	07 2e       	mov	r0, r23
    3efe:	00 0c       	add	r0, r0
    3f00:	88 0b       	sbc	r24, r24
    3f02:	99 0b       	sbc	r25, r25
    3f04:	0e 94 86 24 	call	0x490c	; 0x490c <__floatsisf>
    3f08:	9b 01       	movw	r18, r22
    3f0a:	ac 01       	movw	r20, r24
    3f0c:	11 e0       	ldi	r17, 0x01	; 1
    3f0e:	f7 01       	movw	r30, r14
    3f10:	66 81       	ldd	r22, Z+6	; 0x06
    3f12:	77 81       	ldd	r23, Z+7	; 0x07
    3f14:	80 85       	ldd	r24, Z+8	; 0x08
    3f16:	91 85       	ldd	r25, Z+9	; 0x09
    3f18:	0e 94 d7 23 	call	0x47ae	; 0x47ae <__cmpsf2>
    3f1c:	81 11       	cpse	r24, r1
    3f1e:	01 c0       	rjmp	.+2      	; 0x3f22 <_ZneRK5ValueS1_+0xc0>
    3f20:	10 e0       	ldi	r17, 0x00	; 0
    3f22:	82 e0       	ldi	r24, 0x02	; 2
    3f24:	8e a3       	std	Y+38, r24	; 0x26
    3f26:	1f a3       	std	Y+39, r17	; 0x27
    3f28:	21 c0       	rjmp	.+66     	; 0x3f6c <_ZneRK5ValueS1_+0x10a>
    3f2a:	07 2e       	mov	r0, r23
    3f2c:	00 0c       	add	r0, r0
    3f2e:	88 0b       	sbc	r24, r24
    3f30:	99 0b       	sbc	r25, r25
    3f32:	0e 94 86 24 	call	0x490c	; 0x490c <__floatsisf>
    3f36:	ff 24       	eor	r15, r15
    3f38:	f3 94       	inc	r15
    3f3a:	f8 01       	movw	r30, r16
    3f3c:	26 81       	ldd	r18, Z+6	; 0x06
    3f3e:	37 81       	ldd	r19, Z+7	; 0x07
    3f40:	40 85       	ldd	r20, Z+8	; 0x08
    3f42:	51 85       	ldd	r21, Z+9	; 0x09
    3f44:	0e 94 d7 23 	call	0x47ae	; 0x47ae <__cmpsf2>
    3f48:	81 11       	cpse	r24, r1
    3f4a:	01 c0       	rjmp	.+2      	; 0x3f4e <_ZneRK5ValueS1_+0xec>
    3f4c:	f1 2c       	mov	r15, r1
    3f4e:	82 e0       	ldi	r24, 0x02	; 2
    3f50:	8e a3       	std	Y+38, r24	; 0x26
    3f52:	ff a2       	std	Y+39, r15	; 0x27
    3f54:	0b c0       	rjmp	.+22     	; 0x3f6c <_ZneRK5ValueS1_+0x10a>
    3f56:	81 e0       	ldi	r24, 0x01	; 1
    3f58:	f8 01       	movw	r30, r16
    3f5a:	24 81       	ldd	r18, Z+4	; 0x04
    3f5c:	35 81       	ldd	r19, Z+5	; 0x05
    3f5e:	62 17       	cp	r22, r18
    3f60:	73 07       	cpc	r23, r19
    3f62:	09 f4       	brne	.+2      	; 0x3f66 <_ZneRK5ValueS1_+0x104>
    3f64:	80 e0       	ldi	r24, 0x00	; 0
    3f66:	92 e0       	ldi	r25, 0x02	; 2
    3f68:	9e a3       	std	Y+38, r25	; 0x26
    3f6a:	8f a3       	std	Y+39, r24	; 0x27
    3f6c:	ce 01       	movw	r24, r28
    3f6e:	df 91       	pop	r29
    3f70:	cf 91       	pop	r28
    3f72:	1f 91       	pop	r17
    3f74:	0f 91       	pop	r16
    3f76:	ff 90       	pop	r15
    3f78:	ef 90       	pop	r14
    3f7a:	df 90       	pop	r13
    3f7c:	08 95       	ret

00003f7e <_ZltRK5ValueS1_>:
    3f7e:	ef 92       	push	r14
    3f80:	ff 92       	push	r15
    3f82:	0f 93       	push	r16
    3f84:	1f 93       	push	r17
    3f86:	cf 93       	push	r28
    3f88:	df 93       	push	r29
    3f8a:	ec 01       	movw	r28, r24
    3f8c:	7b 01       	movw	r14, r22
    3f8e:	8a 01       	movw	r16, r20
    3f90:	db 01       	movw	r26, r22
    3f92:	96 96       	adiw	r26, 0x26	; 38
    3f94:	9c 91       	ld	r25, X
    3f96:	91 30       	cpi	r25, 0x01	; 1
    3f98:	c9 f0       	breq	.+50     	; 0x3fcc <_ZltRK5ValueS1_+0x4e>
    3f9a:	fa 01       	movw	r30, r20
    3f9c:	86 a1       	ldd	r24, Z+38	; 0x26
    3f9e:	81 30       	cpi	r24, 0x01	; 1
    3fa0:	49 f5       	brne	.+82     	; 0x3ff4 <_ZltRK5ValueS1_+0x76>
    3fa2:	91 11       	cpse	r25, r1
    3fa4:	13 c0       	rjmp	.+38     	; 0x3fcc <_ZltRK5ValueS1_+0x4e>
    3fa6:	da 01       	movw	r26, r20
    3fa8:	1a 96       	adiw	r26, 0x0a	; 10
    3faa:	fd 01       	movw	r30, r26
    3fac:	01 90       	ld	r0, Z+
    3fae:	00 20       	and	r0, r0
    3fb0:	e9 f7       	brne	.-6      	; 0x3fac <_ZltRK5ValueS1_+0x2e>
    3fb2:	31 97       	sbiw	r30, 0x01	; 1
    3fb4:	ea 1b       	sub	r30, r26
    3fb6:	fb 0b       	sbc	r31, r27
    3fb8:	db 01       	movw	r26, r22
    3fba:	14 96       	adiw	r26, 0x04	; 4
    3fbc:	2d 91       	ld	r18, X+
    3fbe:	3c 91       	ld	r19, X
    3fc0:	15 97       	sbiw	r26, 0x05	; 5
    3fc2:	2e 17       	cp	r18, r30
    3fc4:	3f 07       	cpc	r19, r31
    3fc6:	0c f4       	brge	.+2      	; 0x3fca <_ZltRK5ValueS1_+0x4c>
    3fc8:	56 c0       	rjmp	.+172    	; 0x4076 <_ZltRK5ValueS1_+0xf8>
    3fca:	54 c0       	rjmp	.+168    	; 0x4074 <_ZltRK5ValueS1_+0xf6>
    3fcc:	d7 01       	movw	r26, r14
    3fce:	1a 96       	adiw	r26, 0x0a	; 10
    3fd0:	fd 01       	movw	r30, r26
    3fd2:	01 90       	ld	r0, Z+
    3fd4:	00 20       	and	r0, r0
    3fd6:	e9 f7       	brne	.-6      	; 0x3fd2 <_ZltRK5ValueS1_+0x54>
    3fd8:	31 97       	sbiw	r30, 0x01	; 1
    3fda:	ea 1b       	sub	r30, r26
    3fdc:	fb 0b       	sbc	r31, r27
    3fde:	81 e0       	ldi	r24, 0x01	; 1
    3fe0:	d8 01       	movw	r26, r16
    3fe2:	14 96       	adiw	r26, 0x04	; 4
    3fe4:	2d 91       	ld	r18, X+
    3fe6:	3c 91       	ld	r19, X
    3fe8:	15 97       	sbiw	r26, 0x05	; 5
    3fea:	e2 17       	cp	r30, r18
    3fec:	f3 07       	cpc	r31, r19
    3fee:	0c f4       	brge	.+2      	; 0x3ff2 <_ZltRK5ValueS1_+0x74>
    3ff0:	42 c0       	rjmp	.+132    	; 0x4076 <_ZltRK5ValueS1_+0xf8>
    3ff2:	40 c0       	rjmp	.+128    	; 0x4074 <_ZltRK5ValueS1_+0xf6>
    3ff4:	93 30       	cpi	r25, 0x03	; 3
    3ff6:	79 f4       	brne	.+30     	; 0x4016 <_ZltRK5ValueS1_+0x98>
    3ff8:	83 30       	cpi	r24, 0x03	; 3
    3ffa:	01 f5       	brne	.+64     	; 0x403c <_ZltRK5ValueS1_+0xbe>
    3ffc:	fa 01       	movw	r30, r20
    3ffe:	26 81       	ldd	r18, Z+6	; 0x06
    4000:	37 81       	ldd	r19, Z+7	; 0x07
    4002:	40 85       	ldd	r20, Z+8	; 0x08
    4004:	51 85       	ldd	r21, Z+9	; 0x09
    4006:	db 01       	movw	r26, r22
    4008:	16 96       	adiw	r26, 0x06	; 6
    400a:	6d 91       	ld	r22, X+
    400c:	7d 91       	ld	r23, X+
    400e:	8d 91       	ld	r24, X+
    4010:	9c 91       	ld	r25, X
    4012:	19 97       	sbiw	r26, 0x09	; 9
    4014:	22 c0       	rjmp	.+68     	; 0x405a <_ZltRK5ValueS1_+0xdc>
    4016:	fb 01       	movw	r30, r22
    4018:	64 81       	ldd	r22, Z+4	; 0x04
    401a:	75 81       	ldd	r23, Z+5	; 0x05
    401c:	83 30       	cpi	r24, 0x03	; 3
    401e:	19 f5       	brne	.+70     	; 0x4066 <_ZltRK5ValueS1_+0xe8>
    4020:	07 2e       	mov	r0, r23
    4022:	00 0c       	add	r0, r0
    4024:	88 0b       	sbc	r24, r24
    4026:	99 0b       	sbc	r25, r25
    4028:	0e 94 86 24 	call	0x490c	; 0x490c <__floatsisf>
    402c:	d8 01       	movw	r26, r16
    402e:	16 96       	adiw	r26, 0x06	; 6
    4030:	2d 91       	ld	r18, X+
    4032:	3d 91       	ld	r19, X+
    4034:	4d 91       	ld	r20, X+
    4036:	5c 91       	ld	r21, X
    4038:	19 97       	sbiw	r26, 0x09	; 9
    403a:	0f c0       	rjmp	.+30     	; 0x405a <_ZltRK5ValueS1_+0xdc>
    403c:	64 81       	ldd	r22, Z+4	; 0x04
    403e:	75 81       	ldd	r23, Z+5	; 0x05
    4040:	07 2e       	mov	r0, r23
    4042:	00 0c       	add	r0, r0
    4044:	88 0b       	sbc	r24, r24
    4046:	99 0b       	sbc	r25, r25
    4048:	0e 94 86 24 	call	0x490c	; 0x490c <__floatsisf>
    404c:	9b 01       	movw	r18, r22
    404e:	ac 01       	movw	r20, r24
    4050:	f7 01       	movw	r30, r14
    4052:	66 81       	ldd	r22, Z+6	; 0x06
    4054:	77 81       	ldd	r23, Z+7	; 0x07
    4056:	80 85       	ldd	r24, Z+8	; 0x08
    4058:	91 85       	ldd	r25, Z+9	; 0x09
    405a:	0e 94 d7 23 	call	0x47ae	; 0x47ae <__cmpsf2>
    405e:	88 1f       	adc	r24, r24
    4060:	88 27       	eor	r24, r24
    4062:	88 1f       	adc	r24, r24
    4064:	08 c0       	rjmp	.+16     	; 0x4076 <_ZltRK5ValueS1_+0xf8>
    4066:	81 e0       	ldi	r24, 0x01	; 1
    4068:	fa 01       	movw	r30, r20
    406a:	24 81       	ldd	r18, Z+4	; 0x04
    406c:	35 81       	ldd	r19, Z+5	; 0x05
    406e:	62 17       	cp	r22, r18
    4070:	73 07       	cpc	r23, r19
    4072:	0c f0       	brlt	.+2      	; 0x4076 <_ZltRK5ValueS1_+0xf8>
    4074:	80 e0       	ldi	r24, 0x00	; 0
    4076:	92 e0       	ldi	r25, 0x02	; 2
    4078:	9e a3       	std	Y+38, r25	; 0x26
    407a:	8f a3       	std	Y+39, r24	; 0x27
    407c:	ce 01       	movw	r24, r28
    407e:	df 91       	pop	r29
    4080:	cf 91       	pop	r28
    4082:	1f 91       	pop	r17
    4084:	0f 91       	pop	r16
    4086:	ff 90       	pop	r15
    4088:	ef 90       	pop	r14
    408a:	08 95       	ret

0000408c <_ZleRK5ValueS1_>:
    408c:	df 92       	push	r13
    408e:	ef 92       	push	r14
    4090:	ff 92       	push	r15
    4092:	0f 93       	push	r16
    4094:	1f 93       	push	r17
    4096:	cf 93       	push	r28
    4098:	df 93       	push	r29
    409a:	ec 01       	movw	r28, r24
    409c:	7b 01       	movw	r14, r22
    409e:	8a 01       	movw	r16, r20
    40a0:	db 01       	movw	r26, r22
    40a2:	96 96       	adiw	r26, 0x26	; 38
    40a4:	9c 91       	ld	r25, X
    40a6:	91 30       	cpi	r25, 0x01	; 1
    40a8:	c9 f0       	breq	.+50     	; 0x40dc <_ZleRK5ValueS1_+0x50>
    40aa:	fa 01       	movw	r30, r20
    40ac:	86 a1       	ldd	r24, Z+38	; 0x26
    40ae:	81 30       	cpi	r24, 0x01	; 1
    40b0:	49 f5       	brne	.+82     	; 0x4104 <_ZleRK5ValueS1_+0x78>
    40b2:	91 11       	cpse	r25, r1
    40b4:	13 c0       	rjmp	.+38     	; 0x40dc <_ZleRK5ValueS1_+0x50>
    40b6:	da 01       	movw	r26, r20
    40b8:	1a 96       	adiw	r26, 0x0a	; 10
    40ba:	fd 01       	movw	r30, r26
    40bc:	01 90       	ld	r0, Z+
    40be:	00 20       	and	r0, r0
    40c0:	e9 f7       	brne	.-6      	; 0x40bc <_ZleRK5ValueS1_+0x30>
    40c2:	31 97       	sbiw	r30, 0x01	; 1
    40c4:	ea 1b       	sub	r30, r26
    40c6:	fb 0b       	sbc	r31, r27
    40c8:	db 01       	movw	r26, r22
    40ca:	14 96       	adiw	r26, 0x04	; 4
    40cc:	2d 91       	ld	r18, X+
    40ce:	3c 91       	ld	r19, X
    40d0:	15 97       	sbiw	r26, 0x05	; 5
    40d2:	e2 17       	cp	r30, r18
    40d4:	f3 07       	cpc	r31, r19
    40d6:	0c f0       	brlt	.+2      	; 0x40da <_ZleRK5ValueS1_+0x4e>
    40d8:	6f c0       	rjmp	.+222    	; 0x41b8 <_ZleRK5ValueS1_+0x12c>
    40da:	6d c0       	rjmp	.+218    	; 0x41b6 <_ZleRK5ValueS1_+0x12a>
    40dc:	d7 01       	movw	r26, r14
    40de:	1a 96       	adiw	r26, 0x0a	; 10
    40e0:	fd 01       	movw	r30, r26
    40e2:	01 90       	ld	r0, Z+
    40e4:	00 20       	and	r0, r0
    40e6:	e9 f7       	brne	.-6      	; 0x40e2 <_ZleRK5ValueS1_+0x56>
    40e8:	31 97       	sbiw	r30, 0x01	; 1
    40ea:	ea 1b       	sub	r30, r26
    40ec:	fb 0b       	sbc	r31, r27
    40ee:	81 e0       	ldi	r24, 0x01	; 1
    40f0:	d8 01       	movw	r26, r16
    40f2:	14 96       	adiw	r26, 0x04	; 4
    40f4:	2d 91       	ld	r18, X+
    40f6:	3c 91       	ld	r19, X
    40f8:	15 97       	sbiw	r26, 0x05	; 5
    40fa:	2e 17       	cp	r18, r30
    40fc:	3f 07       	cpc	r19, r31
    40fe:	0c f0       	brlt	.+2      	; 0x4102 <_ZleRK5ValueS1_+0x76>
    4100:	5b c0       	rjmp	.+182    	; 0x41b8 <_ZleRK5ValueS1_+0x12c>
    4102:	59 c0       	rjmp	.+178    	; 0x41b6 <_ZleRK5ValueS1_+0x12a>
    4104:	93 30       	cpi	r25, 0x03	; 3
    4106:	c9 f4       	brne	.+50     	; 0x413a <_ZleRK5ValueS1_+0xae>
    4108:	83 30       	cpi	r24, 0x03	; 3
    410a:	e9 f4       	brne	.+58     	; 0x4146 <_ZleRK5ValueS1_+0xba>
    410c:	dd 24       	eor	r13, r13
    410e:	d3 94       	inc	r13
    4110:	fa 01       	movw	r30, r20
    4112:	26 81       	ldd	r18, Z+6	; 0x06
    4114:	37 81       	ldd	r19, Z+7	; 0x07
    4116:	40 85       	ldd	r20, Z+8	; 0x08
    4118:	51 85       	ldd	r21, Z+9	; 0x09
    411a:	db 01       	movw	r26, r22
    411c:	16 96       	adiw	r26, 0x06	; 6
    411e:	6d 91       	ld	r22, X+
    4120:	7d 91       	ld	r23, X+
    4122:	8d 91       	ld	r24, X+
    4124:	9c 91       	ld	r25, X
    4126:	19 97       	sbiw	r26, 0x09	; 9
    4128:	0e 94 d7 23 	call	0x47ae	; 0x47ae <__cmpsf2>
    412c:	18 16       	cp	r1, r24
    412e:	0c f4       	brge	.+2      	; 0x4132 <_ZleRK5ValueS1_+0xa6>
    4130:	d1 2c       	mov	r13, r1
    4132:	82 e0       	ldi	r24, 0x02	; 2
    4134:	8e a3       	std	Y+38, r24	; 0x26
    4136:	df a2       	std	Y+39, r13	; 0x27
    4138:	42 c0       	rjmp	.+132    	; 0x41be <_ZleRK5ValueS1_+0x132>
    413a:	fb 01       	movw	r30, r22
    413c:	64 81       	ldd	r22, Z+4	; 0x04
    413e:	75 81       	ldd	r23, Z+5	; 0x05
    4140:	83 30       	cpi	r24, 0x03	; 3
    4142:	91 f5       	brne	.+100    	; 0x41a8 <_ZleRK5ValueS1_+0x11c>
    4144:	19 c0       	rjmp	.+50     	; 0x4178 <_ZleRK5ValueS1_+0xec>
    4146:	64 81       	ldd	r22, Z+4	; 0x04
    4148:	75 81       	ldd	r23, Z+5	; 0x05
    414a:	07 2e       	mov	r0, r23
    414c:	00 0c       	add	r0, r0
    414e:	88 0b       	sbc	r24, r24
    4150:	99 0b       	sbc	r25, r25
    4152:	0e 94 86 24 	call	0x490c	; 0x490c <__floatsisf>
    4156:	9b 01       	movw	r18, r22
    4158:	ac 01       	movw	r20, r24
    415a:	11 e0       	ldi	r17, 0x01	; 1
    415c:	f7 01       	movw	r30, r14
    415e:	66 81       	ldd	r22, Z+6	; 0x06
    4160:	77 81       	ldd	r23, Z+7	; 0x07
    4162:	80 85       	ldd	r24, Z+8	; 0x08
    4164:	91 85       	ldd	r25, Z+9	; 0x09
    4166:	0e 94 d7 23 	call	0x47ae	; 0x47ae <__cmpsf2>
    416a:	18 16       	cp	r1, r24
    416c:	0c f4       	brge	.+2      	; 0x4170 <_ZleRK5ValueS1_+0xe4>
    416e:	10 e0       	ldi	r17, 0x00	; 0
    4170:	82 e0       	ldi	r24, 0x02	; 2
    4172:	8e a3       	std	Y+38, r24	; 0x26
    4174:	1f a3       	std	Y+39, r17	; 0x27
    4176:	23 c0       	rjmp	.+70     	; 0x41be <_ZleRK5ValueS1_+0x132>
    4178:	07 2e       	mov	r0, r23
    417a:	00 0c       	add	r0, r0
    417c:	88 0b       	sbc	r24, r24
    417e:	99 0b       	sbc	r25, r25
    4180:	0e 94 86 24 	call	0x490c	; 0x490c <__floatsisf>
    4184:	ff 24       	eor	r15, r15
    4186:	f3 94       	inc	r15
    4188:	d8 01       	movw	r26, r16
    418a:	16 96       	adiw	r26, 0x06	; 6
    418c:	2d 91       	ld	r18, X+
    418e:	3d 91       	ld	r19, X+
    4190:	4d 91       	ld	r20, X+
    4192:	5c 91       	ld	r21, X
    4194:	19 97       	sbiw	r26, 0x09	; 9
    4196:	0e 94 d7 23 	call	0x47ae	; 0x47ae <__cmpsf2>
    419a:	18 16       	cp	r1, r24
    419c:	0c f4       	brge	.+2      	; 0x41a0 <_ZleRK5ValueS1_+0x114>
    419e:	f1 2c       	mov	r15, r1
    41a0:	82 e0       	ldi	r24, 0x02	; 2
    41a2:	8e a3       	std	Y+38, r24	; 0x26
    41a4:	ff a2       	std	Y+39, r15	; 0x27
    41a6:	0b c0       	rjmp	.+22     	; 0x41be <_ZleRK5ValueS1_+0x132>
    41a8:	81 e0       	ldi	r24, 0x01	; 1
    41aa:	fa 01       	movw	r30, r20
    41ac:	24 81       	ldd	r18, Z+4	; 0x04
    41ae:	35 81       	ldd	r19, Z+5	; 0x05
    41b0:	26 17       	cp	r18, r22
    41b2:	37 07       	cpc	r19, r23
    41b4:	0c f4       	brge	.+2      	; 0x41b8 <_ZleRK5ValueS1_+0x12c>
    41b6:	80 e0       	ldi	r24, 0x00	; 0
    41b8:	92 e0       	ldi	r25, 0x02	; 2
    41ba:	9e a3       	std	Y+38, r25	; 0x26
    41bc:	8f a3       	std	Y+39, r24	; 0x27
    41be:	ce 01       	movw	r24, r28
    41c0:	df 91       	pop	r29
    41c2:	cf 91       	pop	r28
    41c4:	1f 91       	pop	r17
    41c6:	0f 91       	pop	r16
    41c8:	ff 90       	pop	r15
    41ca:	ef 90       	pop	r14
    41cc:	df 90       	pop	r13
    41ce:	08 95       	ret

000041d0 <_ZgtRK5ValueS1_>:
    41d0:	df 92       	push	r13
    41d2:	ef 92       	push	r14
    41d4:	ff 92       	push	r15
    41d6:	0f 93       	push	r16
    41d8:	1f 93       	push	r17
    41da:	cf 93       	push	r28
    41dc:	df 93       	push	r29
    41de:	ec 01       	movw	r28, r24
    41e0:	7b 01       	movw	r14, r22
    41e2:	8a 01       	movw	r16, r20
    41e4:	db 01       	movw	r26, r22
    41e6:	96 96       	adiw	r26, 0x26	; 38
    41e8:	9c 91       	ld	r25, X
    41ea:	91 30       	cpi	r25, 0x01	; 1
    41ec:	c9 f0       	breq	.+50     	; 0x4220 <_ZgtRK5ValueS1_+0x50>
    41ee:	fa 01       	movw	r30, r20
    41f0:	86 a1       	ldd	r24, Z+38	; 0x26
    41f2:	81 30       	cpi	r24, 0x01	; 1
    41f4:	49 f5       	brne	.+82     	; 0x4248 <_ZgtRK5ValueS1_+0x78>
    41f6:	91 11       	cpse	r25, r1
    41f8:	13 c0       	rjmp	.+38     	; 0x4220 <_ZgtRK5ValueS1_+0x50>
    41fa:	da 01       	movw	r26, r20
    41fc:	1a 96       	adiw	r26, 0x0a	; 10
    41fe:	fd 01       	movw	r30, r26
    4200:	01 90       	ld	r0, Z+
    4202:	00 20       	and	r0, r0
    4204:	e9 f7       	brne	.-6      	; 0x4200 <_ZgtRK5ValueS1_+0x30>
    4206:	31 97       	sbiw	r30, 0x01	; 1
    4208:	ea 1b       	sub	r30, r26
    420a:	fb 0b       	sbc	r31, r27
    420c:	db 01       	movw	r26, r22
    420e:	14 96       	adiw	r26, 0x04	; 4
    4210:	2d 91       	ld	r18, X+
    4212:	3c 91       	ld	r19, X
    4214:	15 97       	sbiw	r26, 0x05	; 5
    4216:	e2 17       	cp	r30, r18
    4218:	f3 07       	cpc	r31, r19
    421a:	0c f4       	brge	.+2      	; 0x421e <_ZgtRK5ValueS1_+0x4e>
    421c:	6f c0       	rjmp	.+222    	; 0x42fc <_ZgtRK5ValueS1_+0x12c>
    421e:	6d c0       	rjmp	.+218    	; 0x42fa <_ZgtRK5ValueS1_+0x12a>
    4220:	d7 01       	movw	r26, r14
    4222:	1a 96       	adiw	r26, 0x0a	; 10
    4224:	fd 01       	movw	r30, r26
    4226:	01 90       	ld	r0, Z+
    4228:	00 20       	and	r0, r0
    422a:	e9 f7       	brne	.-6      	; 0x4226 <_ZgtRK5ValueS1_+0x56>
    422c:	31 97       	sbiw	r30, 0x01	; 1
    422e:	ea 1b       	sub	r30, r26
    4230:	fb 0b       	sbc	r31, r27
    4232:	81 e0       	ldi	r24, 0x01	; 1
    4234:	d8 01       	movw	r26, r16
    4236:	14 96       	adiw	r26, 0x04	; 4
    4238:	2d 91       	ld	r18, X+
    423a:	3c 91       	ld	r19, X
    423c:	15 97       	sbiw	r26, 0x05	; 5
    423e:	2e 17       	cp	r18, r30
    4240:	3f 07       	cpc	r19, r31
    4242:	0c f4       	brge	.+2      	; 0x4246 <_ZgtRK5ValueS1_+0x76>
    4244:	5b c0       	rjmp	.+182    	; 0x42fc <_ZgtRK5ValueS1_+0x12c>
    4246:	59 c0       	rjmp	.+178    	; 0x42fa <_ZgtRK5ValueS1_+0x12a>
    4248:	93 30       	cpi	r25, 0x03	; 3
    424a:	c9 f4       	brne	.+50     	; 0x427e <_ZgtRK5ValueS1_+0xae>
    424c:	83 30       	cpi	r24, 0x03	; 3
    424e:	e9 f4       	brne	.+58     	; 0x428a <_ZgtRK5ValueS1_+0xba>
    4250:	dd 24       	eor	r13, r13
    4252:	d3 94       	inc	r13
    4254:	fa 01       	movw	r30, r20
    4256:	26 81       	ldd	r18, Z+6	; 0x06
    4258:	37 81       	ldd	r19, Z+7	; 0x07
    425a:	40 85       	ldd	r20, Z+8	; 0x08
    425c:	51 85       	ldd	r21, Z+9	; 0x09
    425e:	db 01       	movw	r26, r22
    4260:	16 96       	adiw	r26, 0x06	; 6
    4262:	6d 91       	ld	r22, X+
    4264:	7d 91       	ld	r23, X+
    4266:	8d 91       	ld	r24, X+
    4268:	9c 91       	ld	r25, X
    426a:	19 97       	sbiw	r26, 0x09	; 9
    426c:	0e 94 36 25 	call	0x4a6c	; 0x4a6c <__gesf2>
    4270:	18 16       	cp	r1, r24
    4272:	0c f0       	brlt	.+2      	; 0x4276 <_ZgtRK5ValueS1_+0xa6>
    4274:	d1 2c       	mov	r13, r1
    4276:	82 e0       	ldi	r24, 0x02	; 2
    4278:	8e a3       	std	Y+38, r24	; 0x26
    427a:	df a2       	std	Y+39, r13	; 0x27
    427c:	42 c0       	rjmp	.+132    	; 0x4302 <_ZgtRK5ValueS1_+0x132>
    427e:	fb 01       	movw	r30, r22
    4280:	64 81       	ldd	r22, Z+4	; 0x04
    4282:	75 81       	ldd	r23, Z+5	; 0x05
    4284:	83 30       	cpi	r24, 0x03	; 3
    4286:	91 f5       	brne	.+100    	; 0x42ec <_ZgtRK5ValueS1_+0x11c>
    4288:	19 c0       	rjmp	.+50     	; 0x42bc <_ZgtRK5ValueS1_+0xec>
    428a:	64 81       	ldd	r22, Z+4	; 0x04
    428c:	75 81       	ldd	r23, Z+5	; 0x05
    428e:	07 2e       	mov	r0, r23
    4290:	00 0c       	add	r0, r0
    4292:	88 0b       	sbc	r24, r24
    4294:	99 0b       	sbc	r25, r25
    4296:	0e 94 86 24 	call	0x490c	; 0x490c <__floatsisf>
    429a:	9b 01       	movw	r18, r22
    429c:	ac 01       	movw	r20, r24
    429e:	11 e0       	ldi	r17, 0x01	; 1
    42a0:	f7 01       	movw	r30, r14
    42a2:	66 81       	ldd	r22, Z+6	; 0x06
    42a4:	77 81       	ldd	r23, Z+7	; 0x07
    42a6:	80 85       	ldd	r24, Z+8	; 0x08
    42a8:	91 85       	ldd	r25, Z+9	; 0x09
    42aa:	0e 94 36 25 	call	0x4a6c	; 0x4a6c <__gesf2>
    42ae:	18 16       	cp	r1, r24
    42b0:	0c f0       	brlt	.+2      	; 0x42b4 <_ZgtRK5ValueS1_+0xe4>
    42b2:	10 e0       	ldi	r17, 0x00	; 0
    42b4:	82 e0       	ldi	r24, 0x02	; 2
    42b6:	8e a3       	std	Y+38, r24	; 0x26
    42b8:	1f a3       	std	Y+39, r17	; 0x27
    42ba:	23 c0       	rjmp	.+70     	; 0x4302 <_ZgtRK5ValueS1_+0x132>
    42bc:	07 2e       	mov	r0, r23
    42be:	00 0c       	add	r0, r0
    42c0:	88 0b       	sbc	r24, r24
    42c2:	99 0b       	sbc	r25, r25
    42c4:	0e 94 86 24 	call	0x490c	; 0x490c <__floatsisf>
    42c8:	ff 24       	eor	r15, r15
    42ca:	f3 94       	inc	r15
    42cc:	d8 01       	movw	r26, r16
    42ce:	16 96       	adiw	r26, 0x06	; 6
    42d0:	2d 91       	ld	r18, X+
    42d2:	3d 91       	ld	r19, X+
    42d4:	4d 91       	ld	r20, X+
    42d6:	5c 91       	ld	r21, X
    42d8:	19 97       	sbiw	r26, 0x09	; 9
    42da:	0e 94 36 25 	call	0x4a6c	; 0x4a6c <__gesf2>
    42de:	18 16       	cp	r1, r24
    42e0:	0c f0       	brlt	.+2      	; 0x42e4 <_ZgtRK5ValueS1_+0x114>
    42e2:	f1 2c       	mov	r15, r1
    42e4:	82 e0       	ldi	r24, 0x02	; 2
    42e6:	8e a3       	std	Y+38, r24	; 0x26
    42e8:	ff a2       	std	Y+39, r15	; 0x27
    42ea:	0b c0       	rjmp	.+22     	; 0x4302 <_ZgtRK5ValueS1_+0x132>
    42ec:	81 e0       	ldi	r24, 0x01	; 1
    42ee:	fa 01       	movw	r30, r20
    42f0:	24 81       	ldd	r18, Z+4	; 0x04
    42f2:	35 81       	ldd	r19, Z+5	; 0x05
    42f4:	26 17       	cp	r18, r22
    42f6:	37 07       	cpc	r19, r23
    42f8:	0c f0       	brlt	.+2      	; 0x42fc <_ZgtRK5ValueS1_+0x12c>
    42fa:	80 e0       	ldi	r24, 0x00	; 0
    42fc:	92 e0       	ldi	r25, 0x02	; 2
    42fe:	9e a3       	std	Y+38, r25	; 0x26
    4300:	8f a3       	std	Y+39, r24	; 0x27
    4302:	ce 01       	movw	r24, r28
    4304:	df 91       	pop	r29
    4306:	cf 91       	pop	r28
    4308:	1f 91       	pop	r17
    430a:	0f 91       	pop	r16
    430c:	ff 90       	pop	r15
    430e:	ef 90       	pop	r14
    4310:	df 90       	pop	r13
    4312:	08 95       	ret

00004314 <_ZgeRK5ValueS1_>:
    4314:	df 92       	push	r13
    4316:	ef 92       	push	r14
    4318:	ff 92       	push	r15
    431a:	0f 93       	push	r16
    431c:	1f 93       	push	r17
    431e:	cf 93       	push	r28
    4320:	df 93       	push	r29
    4322:	ec 01       	movw	r28, r24
    4324:	7b 01       	movw	r14, r22
    4326:	8a 01       	movw	r16, r20
    4328:	db 01       	movw	r26, r22
    432a:	96 96       	adiw	r26, 0x26	; 38
    432c:	9c 91       	ld	r25, X
    432e:	91 30       	cpi	r25, 0x01	; 1
    4330:	c9 f0       	breq	.+50     	; 0x4364 <_ZgeRK5ValueS1_+0x50>
    4332:	fa 01       	movw	r30, r20
    4334:	86 a1       	ldd	r24, Z+38	; 0x26
    4336:	81 30       	cpi	r24, 0x01	; 1
    4338:	49 f5       	brne	.+82     	; 0x438c <_ZgeRK5ValueS1_+0x78>
    433a:	91 11       	cpse	r25, r1
    433c:	13 c0       	rjmp	.+38     	; 0x4364 <_ZgeRK5ValueS1_+0x50>
    433e:	da 01       	movw	r26, r20
    4340:	1a 96       	adiw	r26, 0x0a	; 10
    4342:	fd 01       	movw	r30, r26
    4344:	01 90       	ld	r0, Z+
    4346:	00 20       	and	r0, r0
    4348:	e9 f7       	brne	.-6      	; 0x4344 <_ZgeRK5ValueS1_+0x30>
    434a:	31 97       	sbiw	r30, 0x01	; 1
    434c:	ea 1b       	sub	r30, r26
    434e:	fb 0b       	sbc	r31, r27
    4350:	db 01       	movw	r26, r22
    4352:	14 96       	adiw	r26, 0x04	; 4
    4354:	2d 91       	ld	r18, X+
    4356:	3c 91       	ld	r19, X
    4358:	15 97       	sbiw	r26, 0x05	; 5
    435a:	2e 17       	cp	r18, r30
    435c:	3f 07       	cpc	r19, r31
    435e:	0c f0       	brlt	.+2      	; 0x4362 <_ZgeRK5ValueS1_+0x4e>
    4360:	6c c0       	rjmp	.+216    	; 0x443a <_ZgeRK5ValueS1_+0x126>
    4362:	6a c0       	rjmp	.+212    	; 0x4438 <_ZgeRK5ValueS1_+0x124>
    4364:	d7 01       	movw	r26, r14
    4366:	1a 96       	adiw	r26, 0x0a	; 10
    4368:	fd 01       	movw	r30, r26
    436a:	01 90       	ld	r0, Z+
    436c:	00 20       	and	r0, r0
    436e:	e9 f7       	brne	.-6      	; 0x436a <_ZgeRK5ValueS1_+0x56>
    4370:	31 97       	sbiw	r30, 0x01	; 1
    4372:	ea 1b       	sub	r30, r26
    4374:	fb 0b       	sbc	r31, r27
    4376:	81 e0       	ldi	r24, 0x01	; 1
    4378:	d8 01       	movw	r26, r16
    437a:	14 96       	adiw	r26, 0x04	; 4
    437c:	2d 91       	ld	r18, X+
    437e:	3c 91       	ld	r19, X
    4380:	15 97       	sbiw	r26, 0x05	; 5
    4382:	e2 17       	cp	r30, r18
    4384:	f3 07       	cpc	r31, r19
    4386:	0c f0       	brlt	.+2      	; 0x438a <_ZgeRK5ValueS1_+0x76>
    4388:	58 c0       	rjmp	.+176    	; 0x443a <_ZgeRK5ValueS1_+0x126>
    438a:	56 c0       	rjmp	.+172    	; 0x4438 <_ZgeRK5ValueS1_+0x124>
    438c:	93 30       	cpi	r25, 0x03	; 3
    438e:	c1 f4       	brne	.+48     	; 0x43c0 <_ZgeRK5ValueS1_+0xac>
    4390:	83 30       	cpi	r24, 0x03	; 3
    4392:	e1 f4       	brne	.+56     	; 0x43cc <_ZgeRK5ValueS1_+0xb8>
    4394:	dd 24       	eor	r13, r13
    4396:	d3 94       	inc	r13
    4398:	fa 01       	movw	r30, r20
    439a:	26 81       	ldd	r18, Z+6	; 0x06
    439c:	37 81       	ldd	r19, Z+7	; 0x07
    439e:	40 85       	ldd	r20, Z+8	; 0x08
    43a0:	51 85       	ldd	r21, Z+9	; 0x09
    43a2:	db 01       	movw	r26, r22
    43a4:	16 96       	adiw	r26, 0x06	; 6
    43a6:	6d 91       	ld	r22, X+
    43a8:	7d 91       	ld	r23, X+
    43aa:	8d 91       	ld	r24, X+
    43ac:	9c 91       	ld	r25, X
    43ae:	19 97       	sbiw	r26, 0x09	; 9
    43b0:	0e 94 36 25 	call	0x4a6c	; 0x4a6c <__gesf2>
    43b4:	87 fd       	sbrc	r24, 7
    43b6:	d1 2c       	mov	r13, r1
    43b8:	82 e0       	ldi	r24, 0x02	; 2
    43ba:	8e a3       	std	Y+38, r24	; 0x26
    43bc:	df a2       	std	Y+39, r13	; 0x27
    43be:	40 c0       	rjmp	.+128    	; 0x4440 <_ZgeRK5ValueS1_+0x12c>
    43c0:	fb 01       	movw	r30, r22
    43c2:	64 81       	ldd	r22, Z+4	; 0x04
    43c4:	75 81       	ldd	r23, Z+5	; 0x05
    43c6:	83 30       	cpi	r24, 0x03	; 3
    43c8:	81 f5       	brne	.+96     	; 0x442a <_ZgeRK5ValueS1_+0x116>
    43ca:	18 c0       	rjmp	.+48     	; 0x43fc <_ZgeRK5ValueS1_+0xe8>
    43cc:	64 81       	ldd	r22, Z+4	; 0x04
    43ce:	75 81       	ldd	r23, Z+5	; 0x05
    43d0:	07 2e       	mov	r0, r23
    43d2:	00 0c       	add	r0, r0
    43d4:	88 0b       	sbc	r24, r24
    43d6:	99 0b       	sbc	r25, r25
    43d8:	0e 94 86 24 	call	0x490c	; 0x490c <__floatsisf>
    43dc:	9b 01       	movw	r18, r22
    43de:	ac 01       	movw	r20, r24
    43e0:	11 e0       	ldi	r17, 0x01	; 1
    43e2:	f7 01       	movw	r30, r14
    43e4:	66 81       	ldd	r22, Z+6	; 0x06
    43e6:	77 81       	ldd	r23, Z+7	; 0x07
    43e8:	80 85       	ldd	r24, Z+8	; 0x08
    43ea:	91 85       	ldd	r25, Z+9	; 0x09
    43ec:	0e 94 36 25 	call	0x4a6c	; 0x4a6c <__gesf2>
    43f0:	87 fd       	sbrc	r24, 7
    43f2:	10 e0       	ldi	r17, 0x00	; 0
    43f4:	82 e0       	ldi	r24, 0x02	; 2
    43f6:	8e a3       	std	Y+38, r24	; 0x26
    43f8:	1f a3       	std	Y+39, r17	; 0x27
    43fa:	22 c0       	rjmp	.+68     	; 0x4440 <_ZgeRK5ValueS1_+0x12c>
    43fc:	07 2e       	mov	r0, r23
    43fe:	00 0c       	add	r0, r0
    4400:	88 0b       	sbc	r24, r24
    4402:	99 0b       	sbc	r25, r25
    4404:	0e 94 86 24 	call	0x490c	; 0x490c <__floatsisf>
    4408:	ff 24       	eor	r15, r15
    440a:	f3 94       	inc	r15
    440c:	d8 01       	movw	r26, r16
    440e:	16 96       	adiw	r26, 0x06	; 6
    4410:	2d 91       	ld	r18, X+
    4412:	3d 91       	ld	r19, X+
    4414:	4d 91       	ld	r20, X+
    4416:	5c 91       	ld	r21, X
    4418:	19 97       	sbiw	r26, 0x09	; 9
    441a:	0e 94 36 25 	call	0x4a6c	; 0x4a6c <__gesf2>
    441e:	87 fd       	sbrc	r24, 7
    4420:	f1 2c       	mov	r15, r1
    4422:	82 e0       	ldi	r24, 0x02	; 2
    4424:	8e a3       	std	Y+38, r24	; 0x26
    4426:	ff a2       	std	Y+39, r15	; 0x27
    4428:	0b c0       	rjmp	.+22     	; 0x4440 <_ZgeRK5ValueS1_+0x12c>
    442a:	81 e0       	ldi	r24, 0x01	; 1
    442c:	fa 01       	movw	r30, r20
    442e:	24 81       	ldd	r18, Z+4	; 0x04
    4430:	35 81       	ldd	r19, Z+5	; 0x05
    4432:	62 17       	cp	r22, r18
    4434:	73 07       	cpc	r23, r19
    4436:	0c f4       	brge	.+2      	; 0x443a <_ZgeRK5ValueS1_+0x126>
    4438:	80 e0       	ldi	r24, 0x00	; 0
    443a:	92 e0       	ldi	r25, 0x02	; 2
    443c:	9e a3       	std	Y+38, r25	; 0x26
    443e:	8f a3       	std	Y+39, r24	; 0x27
    4440:	ce 01       	movw	r24, r28
    4442:	df 91       	pop	r29
    4444:	cf 91       	pop	r28
    4446:	1f 91       	pop	r17
    4448:	0f 91       	pop	r16
    444a:	ff 90       	pop	r15
    444c:	ef 90       	pop	r14
    444e:	df 90       	pop	r13
    4450:	08 95       	ret

00004452 <_ZpsRK5Value>:
    4452:	0f 93       	push	r16
    4454:	1f 93       	push	r17
    4456:	cf 93       	push	r28
    4458:	df 93       	push	r29
    445a:	cd b7       	in	r28, 0x3d	; 61
    445c:	de b7       	in	r29, 0x3e	; 62
    445e:	a8 97       	sbiw	r28, 0x28	; 40
    4460:	0f b6       	in	r0, 0x3f	; 63
    4462:	f8 94       	cli
    4464:	de bf       	out	0x3e, r29	; 62
    4466:	0f be       	out	0x3f, r0	; 63
    4468:	cd bf       	out	0x3d, r28	; 61
    446a:	8c 01       	movw	r16, r24
    446c:	fb 01       	movw	r30, r22
    446e:	86 a1       	ldd	r24, Z+38	; 0x26
    4470:	81 30       	cpi	r24, 0x01	; 1
    4472:	39 f4       	brne	.+14     	; 0x4482 <_ZpsRK5Value+0x30>
    4474:	66 5f       	subi	r22, 0xF6	; 246
    4476:	7f 4f       	sbci	r23, 0xFF	; 255
    4478:	ce 01       	movw	r24, r28
    447a:	01 96       	adiw	r24, 0x01	; 1
    447c:	0e 94 1c 17 	call	0x2e38	; 0x2e38 <_ZN5ValueC1EPKc>
    4480:	13 c0       	rjmp	.+38     	; 0x44a8 <_ZpsRK5Value+0x56>
    4482:	83 30       	cpi	r24, 0x03	; 3
    4484:	59 f4       	brne	.+22     	; 0x449c <_ZpsRK5Value+0x4a>
    4486:	46 81       	ldd	r20, Z+6	; 0x06
    4488:	57 81       	ldd	r21, Z+7	; 0x07
    448a:	60 85       	ldd	r22, Z+8	; 0x08
    448c:	71 85       	ldd	r23, Z+9	; 0x09
    448e:	f8 01       	movw	r30, r16
    4490:	46 83       	std	Z+6, r20	; 0x06
    4492:	57 83       	std	Z+7, r21	; 0x07
    4494:	60 87       	std	Z+8, r22	; 0x08
    4496:	71 87       	std	Z+9, r23	; 0x09
    4498:	86 a3       	std	Z+38, r24	; 0x26
    449a:	0e c0       	rjmp	.+28     	; 0x44b8 <_ZpsRK5Value+0x66>
    449c:	64 81       	ldd	r22, Z+4	; 0x04
    449e:	75 81       	ldd	r23, Z+5	; 0x05
    44a0:	ce 01       	movw	r24, r28
    44a2:	01 96       	adiw	r24, 0x01	; 1
    44a4:	0e 94 e4 16 	call	0x2dc8	; 0x2dc8 <_ZN5ValueC1Ei>
    44a8:	88 e2       	ldi	r24, 0x28	; 40
    44aa:	fe 01       	movw	r30, r28
    44ac:	31 96       	adiw	r30, 0x01	; 1
    44ae:	d8 01       	movw	r26, r16
    44b0:	01 90       	ld	r0, Z+
    44b2:	0d 92       	st	X+, r0
    44b4:	8a 95       	dec	r24
    44b6:	e1 f7       	brne	.-8      	; 0x44b0 <_ZpsRK5Value+0x5e>
    44b8:	c8 01       	movw	r24, r16
    44ba:	a8 96       	adiw	r28, 0x28	; 40
    44bc:	0f b6       	in	r0, 0x3f	; 63
    44be:	f8 94       	cli
    44c0:	de bf       	out	0x3e, r29	; 62
    44c2:	0f be       	out	0x3f, r0	; 63
    44c4:	cd bf       	out	0x3d, r28	; 61
    44c6:	df 91       	pop	r29
    44c8:	cf 91       	pop	r28
    44ca:	1f 91       	pop	r17
    44cc:	0f 91       	pop	r16
    44ce:	08 95       	ret

000044d0 <_ZngRK5Value>:
    44d0:	0f 93       	push	r16
    44d2:	1f 93       	push	r17
    44d4:	cf 93       	push	r28
    44d6:	df 93       	push	r29
    44d8:	cd b7       	in	r28, 0x3d	; 61
    44da:	de b7       	in	r29, 0x3e	; 62
    44dc:	a8 97       	sbiw	r28, 0x28	; 40
    44de:	0f b6       	in	r0, 0x3f	; 63
    44e0:	f8 94       	cli
    44e2:	de bf       	out	0x3e, r29	; 62
    44e4:	0f be       	out	0x3f, r0	; 63
    44e6:	cd bf       	out	0x3d, r28	; 61
    44e8:	8c 01       	movw	r16, r24
    44ea:	fb 01       	movw	r30, r22
    44ec:	86 a1       	ldd	r24, Z+38	; 0x26
    44ee:	81 30       	cpi	r24, 0x01	; 1
    44f0:	39 f4       	brne	.+14     	; 0x4500 <_ZngRK5Value+0x30>
    44f2:	66 5f       	subi	r22, 0xF6	; 246
    44f4:	7f 4f       	sbci	r23, 0xFF	; 255
    44f6:	ce 01       	movw	r24, r28
    44f8:	01 96       	adiw	r24, 0x01	; 1
    44fa:	0e 94 1c 17 	call	0x2e38	; 0x2e38 <_ZN5ValueC1EPKc>
    44fe:	17 c0       	rjmp	.+46     	; 0x452e <_ZngRK5Value+0x5e>
    4500:	83 30       	cpi	r24, 0x03	; 3
    4502:	61 f4       	brne	.+24     	; 0x451c <_ZngRK5Value+0x4c>
    4504:	46 81       	ldd	r20, Z+6	; 0x06
    4506:	57 81       	ldd	r21, Z+7	; 0x07
    4508:	60 85       	ldd	r22, Z+8	; 0x08
    450a:	71 85       	ldd	r23, Z+9	; 0x09
    450c:	70 58       	subi	r23, 0x80	; 128
    450e:	f8 01       	movw	r30, r16
    4510:	46 83       	std	Z+6, r20	; 0x06
    4512:	57 83       	std	Z+7, r21	; 0x07
    4514:	60 87       	std	Z+8, r22	; 0x08
    4516:	71 87       	std	Z+9, r23	; 0x09
    4518:	86 a3       	std	Z+38, r24	; 0x26
    451a:	11 c0       	rjmp	.+34     	; 0x453e <_ZngRK5Value+0x6e>
    451c:	64 81       	ldd	r22, Z+4	; 0x04
    451e:	75 81       	ldd	r23, Z+5	; 0x05
    4520:	71 95       	neg	r23
    4522:	61 95       	neg	r22
    4524:	71 09       	sbc	r23, r1
    4526:	ce 01       	movw	r24, r28
    4528:	01 96       	adiw	r24, 0x01	; 1
    452a:	0e 94 e4 16 	call	0x2dc8	; 0x2dc8 <_ZN5ValueC1Ei>
    452e:	88 e2       	ldi	r24, 0x28	; 40
    4530:	fe 01       	movw	r30, r28
    4532:	31 96       	adiw	r30, 0x01	; 1
    4534:	d8 01       	movw	r26, r16
    4536:	01 90       	ld	r0, Z+
    4538:	0d 92       	st	X+, r0
    453a:	8a 95       	dec	r24
    453c:	e1 f7       	brne	.-8      	; 0x4536 <_ZngRK5Value+0x66>
    453e:	c8 01       	movw	r24, r16
    4540:	a8 96       	adiw	r28, 0x28	; 40
    4542:	0f b6       	in	r0, 0x3f	; 63
    4544:	f8 94       	cli
    4546:	de bf       	out	0x3e, r29	; 62
    4548:	0f be       	out	0x3f, r0	; 63
    454a:	cd bf       	out	0x3d, r28	; 61
    454c:	df 91       	pop	r29
    454e:	cf 91       	pop	r28
    4550:	1f 91       	pop	r17
    4552:	0f 91       	pop	r16
    4554:	08 95       	ret

00004556 <_ZN5Value9ToBooleanEv>:
    4556:	cf 93       	push	r28
    4558:	fc 01       	movw	r30, r24
    455a:	86 a1       	ldd	r24, Z+38	; 0x26
    455c:	81 30       	cpi	r24, 0x01	; 1
    455e:	c9 f0       	breq	.+50     	; 0x4592 <_ZN5Value9ToBooleanEv+0x3c>
    4560:	82 30       	cpi	r24, 0x02	; 2
    4562:	11 f4       	brne	.+4      	; 0x4568 <_ZN5Value9ToBooleanEv+0x12>
    4564:	c7 a1       	ldd	r28, Z+39	; 0x27
    4566:	16 c0       	rjmp	.+44     	; 0x4594 <_ZN5Value9ToBooleanEv+0x3e>
    4568:	c1 e0       	ldi	r28, 0x01	; 1
    456a:	83 30       	cpi	r24, 0x03	; 3
    456c:	61 f4       	brne	.+24     	; 0x4586 <_ZN5Value9ToBooleanEv+0x30>
    456e:	20 e0       	ldi	r18, 0x00	; 0
    4570:	30 e0       	ldi	r19, 0x00	; 0
    4572:	a9 01       	movw	r20, r18
    4574:	66 81       	ldd	r22, Z+6	; 0x06
    4576:	77 81       	ldd	r23, Z+7	; 0x07
    4578:	80 85       	ldd	r24, Z+8	; 0x08
    457a:	91 85       	ldd	r25, Z+9	; 0x09
    457c:	0e 94 d7 23 	call	0x47ae	; 0x47ae <__cmpsf2>
    4580:	81 11       	cpse	r24, r1
    4582:	08 c0       	rjmp	.+16     	; 0x4594 <_ZN5Value9ToBooleanEv+0x3e>
    4584:	04 c0       	rjmp	.+8      	; 0x458e <_ZN5Value9ToBooleanEv+0x38>
    4586:	84 81       	ldd	r24, Z+4	; 0x04
    4588:	95 81       	ldd	r25, Z+5	; 0x05
    458a:	89 2b       	or	r24, r25
    458c:	19 f4       	brne	.+6      	; 0x4594 <_ZN5Value9ToBooleanEv+0x3e>
    458e:	c0 e0       	ldi	r28, 0x00	; 0
    4590:	01 c0       	rjmp	.+2      	; 0x4594 <_ZN5Value9ToBooleanEv+0x3e>
    4592:	c1 e0       	ldi	r28, 0x01	; 1
    4594:	8c 2f       	mov	r24, r28
    4596:	cf 91       	pop	r28
    4598:	08 95       	ret

0000459a <_ZN5Value8ToStringEv>:
    459a:	cf 93       	push	r28
    459c:	df 93       	push	r29
    459e:	ec 01       	movw	r28, r24
    45a0:	8e a1       	ldd	r24, Y+38	; 0x26
    45a2:	81 30       	cpi	r24, 0x01	; 1
    45a4:	19 f4       	brne	.+6      	; 0x45ac <_ZN5Value8ToStringEv+0x12>
    45a6:	ce 01       	movw	r24, r28
    45a8:	0a 96       	adiw	r24, 0x0a	; 10
    45aa:	3b c0       	rjmp	.+118    	; 0x4622 <_ZN5Value8ToStringEv+0x88>
    45ac:	82 30       	cpi	r24, 0x02	; 2
    45ae:	31 f4       	brne	.+12     	; 0x45bc <_ZN5Value8ToStringEv+0x22>
    45b0:	8f a1       	ldd	r24, Y+39	; 0x27
    45b2:	81 11       	cpse	r24, r1
    45b4:	34 c0       	rjmp	.+104    	; 0x461e <_ZN5Value8ToStringEv+0x84>
    45b6:	8a e4       	ldi	r24, 0x4A	; 74
    45b8:	91 e0       	ldi	r25, 0x01	; 1
    45ba:	33 c0       	rjmp	.+102    	; 0x4622 <_ZN5Value8ToStringEv+0x88>
    45bc:	fe 01       	movw	r30, r28
    45be:	2a 96       	adiw	r28, 0x0a	; 10
    45c0:	83 30       	cpi	r24, 0x03	; 3
    45c2:	c9 f4       	brne	.+50     	; 0x45f6 <_ZN5Value8ToStringEv+0x5c>
    45c4:	81 85       	ldd	r24, Z+9	; 0x09
    45c6:	8f 93       	push	r24
    45c8:	80 85       	ldd	r24, Z+8	; 0x08
    45ca:	8f 93       	push	r24
    45cc:	87 81       	ldd	r24, Z+7	; 0x07
    45ce:	8f 93       	push	r24
    45d0:	86 81       	ldd	r24, Z+6	; 0x06
    45d2:	8f 93       	push	r24
    45d4:	8e e0       	ldi	r24, 0x0E	; 14
    45d6:	92 e0       	ldi	r25, 0x02	; 2
    45d8:	9f 93       	push	r25
    45da:	8f 93       	push	r24
    45dc:	df 93       	push	r29
    45de:	cf 93       	push	r28
    45e0:	0e 94 5c 2d 	call	0x5ab8	; 0x5ab8 <sprintf>
    45e4:	8d b7       	in	r24, 0x3d	; 61
    45e6:	9e b7       	in	r25, 0x3e	; 62
    45e8:	08 96       	adiw	r24, 0x08	; 8
    45ea:	0f b6       	in	r0, 0x3f	; 63
    45ec:	f8 94       	cli
    45ee:	9e bf       	out	0x3e, r25	; 62
    45f0:	0f be       	out	0x3f, r0	; 63
    45f2:	8d bf       	out	0x3d, r24	; 61
    45f4:	12 c0       	rjmp	.+36     	; 0x461a <_ZN5Value8ToStringEv+0x80>
    45f6:	85 81       	ldd	r24, Z+5	; 0x05
    45f8:	8f 93       	push	r24
    45fa:	84 81       	ldd	r24, Z+4	; 0x04
    45fc:	8f 93       	push	r24
    45fe:	8b e0       	ldi	r24, 0x0B	; 11
    4600:	92 e0       	ldi	r25, 0x02	; 2
    4602:	9f 93       	push	r25
    4604:	8f 93       	push	r24
    4606:	df 93       	push	r29
    4608:	cf 93       	push	r28
    460a:	0e 94 5c 2d 	call	0x5ab8	; 0x5ab8 <sprintf>
    460e:	0f 90       	pop	r0
    4610:	0f 90       	pop	r0
    4612:	0f 90       	pop	r0
    4614:	0f 90       	pop	r0
    4616:	0f 90       	pop	r0
    4618:	0f 90       	pop	r0
    461a:	ce 01       	movw	r24, r28
    461c:	02 c0       	rjmp	.+4      	; 0x4622 <_ZN5Value8ToStringEv+0x88>
    461e:	85 e4       	ldi	r24, 0x45	; 69
    4620:	91 e0       	ldi	r25, 0x01	; 1
    4622:	df 91       	pop	r29
    4624:	cf 91       	pop	r28
    4626:	08 95       	ret

00004628 <_ZN5Value11index_arrayEi>:
    4628:	cf 93       	push	r28
    462a:	df 93       	push	r29
    462c:	ec 01       	movw	r28, r24
    462e:	fb 01       	movw	r30, r22
    4630:	83 a1       	ldd	r24, Z+35	; 0x23
    4632:	88 23       	and	r24, r24
    4634:	11 f1       	breq	.+68     	; 0x467a <_ZN5Value11index_arrayEi+0x52>
    4636:	86 a1       	ldd	r24, Z+38	; 0x26
    4638:	81 11       	cpse	r24, r1
    463a:	0a c0       	rjmp	.+20     	; 0x4650 <_ZN5Value11index_arrayEi+0x28>
    463c:	44 0f       	add	r20, r20
    463e:	55 1f       	adc	r21, r21
    4640:	01 90       	ld	r0, Z+
    4642:	f0 81       	ld	r31, Z
    4644:	e0 2d       	mov	r30, r0
    4646:	e4 0f       	add	r30, r20
    4648:	f5 1f       	adc	r31, r21
    464a:	60 81       	ld	r22, Z
    464c:	71 81       	ldd	r23, Z+1	; 0x01
    464e:	17 c0       	rjmp	.+46     	; 0x467e <_ZN5Value11index_arrayEi+0x56>
    4650:	83 30       	cpi	r24, 0x03	; 3
    4652:	99 f4       	brne	.+38     	; 0x467a <_ZN5Value11index_arrayEi+0x52>
    4654:	44 0f       	add	r20, r20
    4656:	55 1f       	adc	r21, r21
    4658:	44 0f       	add	r20, r20
    465a:	55 1f       	adc	r21, r21
    465c:	02 80       	ldd	r0, Z+2	; 0x02
    465e:	f3 81       	ldd	r31, Z+3	; 0x03
    4660:	e0 2d       	mov	r30, r0
    4662:	e4 0f       	add	r30, r20
    4664:	f5 1f       	adc	r31, r21
    4666:	40 81       	ld	r20, Z
    4668:	51 81       	ldd	r21, Z+1	; 0x01
    466a:	62 81       	ldd	r22, Z+2	; 0x02
    466c:	73 81       	ldd	r23, Z+3	; 0x03
    466e:	4e 83       	std	Y+6, r20	; 0x06
    4670:	5f 83       	std	Y+7, r21	; 0x07
    4672:	68 87       	std	Y+8, r22	; 0x08
    4674:	79 87       	std	Y+9, r23	; 0x09
    4676:	8e a3       	std	Y+38, r24	; 0x26
    4678:	05 c0       	rjmp	.+10     	; 0x4684 <_ZN5Value11index_arrayEi+0x5c>
    467a:	6f ef       	ldi	r22, 0xFF	; 255
    467c:	7f ef       	ldi	r23, 0xFF	; 255
    467e:	ce 01       	movw	r24, r28
    4680:	0e 94 e4 16 	call	0x2dc8	; 0x2dc8 <_ZN5ValueC1Ei>
    4684:	ce 01       	movw	r24, r28
    4686:	df 91       	pop	r29
    4688:	cf 91       	pop	r28
    468a:	08 95       	ret

0000468c <_ZN5Value12update_arrayEii>:
    468c:	dc 01       	movw	r26, r24
    468e:	93 96       	adiw	r26, 0x23	; 35
    4690:	2c 91       	ld	r18, X
    4692:	93 97       	sbiw	r26, 0x23	; 35
    4694:	22 23       	and	r18, r18
    4696:	41 f0       	breq	.+16     	; 0x46a8 <_ZN5Value12update_arrayEii+0x1c>
    4698:	66 0f       	add	r22, r22
    469a:	77 1f       	adc	r23, r23
    469c:	ed 91       	ld	r30, X+
    469e:	fc 91       	ld	r31, X
    46a0:	e6 0f       	add	r30, r22
    46a2:	f7 1f       	adc	r31, r23
    46a4:	51 83       	std	Z+1, r21	; 0x01
    46a6:	40 83       	st	Z, r20
    46a8:	08 95       	ret

000046aa <_ZN5Value12update_arrayEid>:
    46aa:	dc 01       	movw	r26, r24
    46ac:	93 96       	adiw	r26, 0x23	; 35
    46ae:	ec 91       	ld	r30, X
    46b0:	93 97       	sbiw	r26, 0x23	; 35
    46b2:	ee 23       	and	r30, r30
    46b4:	71 f0       	breq	.+28     	; 0x46d2 <_ZN5Value12update_arrayEid+0x28>
    46b6:	66 0f       	add	r22, r22
    46b8:	77 1f       	adc	r23, r23
    46ba:	66 0f       	add	r22, r22
    46bc:	77 1f       	adc	r23, r23
    46be:	12 96       	adiw	r26, 0x02	; 2
    46c0:	ed 91       	ld	r30, X+
    46c2:	fc 91       	ld	r31, X
    46c4:	13 97       	sbiw	r26, 0x03	; 3
    46c6:	e6 0f       	add	r30, r22
    46c8:	f7 1f       	adc	r31, r23
    46ca:	20 83       	st	Z, r18
    46cc:	31 83       	std	Z+1, r19	; 0x01
    46ce:	42 83       	std	Z+2, r20	; 0x02
    46d0:	53 83       	std	Z+3, r21	; 0x03
    46d2:	08 95       	ret

000046d4 <__subsf3>:
    46d4:	50 58       	subi	r21, 0x80	; 128

000046d6 <__addsf3>:
    46d6:	bb 27       	eor	r27, r27
    46d8:	aa 27       	eor	r26, r26
    46da:	0e 94 82 23 	call	0x4704	; 0x4704 <__addsf3x>
    46de:	0c 94 fc 24 	jmp	0x49f8	; 0x49f8 <__fp_round>
    46e2:	0e 94 ee 24 	call	0x49dc	; 0x49dc <__fp_pscA>
    46e6:	38 f0       	brcs	.+14     	; 0x46f6 <__addsf3+0x20>
    46e8:	0e 94 f5 24 	call	0x49ea	; 0x49ea <__fp_pscB>
    46ec:	20 f0       	brcs	.+8      	; 0x46f6 <__addsf3+0x20>
    46ee:	39 f4       	brne	.+14     	; 0x46fe <__addsf3+0x28>
    46f0:	9f 3f       	cpi	r25, 0xFF	; 255
    46f2:	19 f4       	brne	.+6      	; 0x46fa <__addsf3+0x24>
    46f4:	26 f4       	brtc	.+8      	; 0x46fe <__addsf3+0x28>
    46f6:	0c 94 eb 24 	jmp	0x49d6	; 0x49d6 <__fp_nan>
    46fa:	0e f4       	brtc	.+2      	; 0x46fe <__addsf3+0x28>
    46fc:	e0 95       	com	r30
    46fe:	e7 fb       	bst	r30, 7
    4700:	0c 94 e5 24 	jmp	0x49ca	; 0x49ca <__fp_inf>

00004704 <__addsf3x>:
    4704:	e9 2f       	mov	r30, r25
    4706:	0e 94 0d 25 	call	0x4a1a	; 0x4a1a <__fp_split3>
    470a:	58 f3       	brcs	.-42     	; 0x46e2 <__addsf3+0xc>
    470c:	ba 17       	cp	r27, r26
    470e:	62 07       	cpc	r22, r18
    4710:	73 07       	cpc	r23, r19
    4712:	84 07       	cpc	r24, r20
    4714:	95 07       	cpc	r25, r21
    4716:	20 f0       	brcs	.+8      	; 0x4720 <__addsf3x+0x1c>
    4718:	79 f4       	brne	.+30     	; 0x4738 <__addsf3x+0x34>
    471a:	a6 f5       	brtc	.+104    	; 0x4784 <__addsf3x+0x80>
    471c:	0c 94 2f 25 	jmp	0x4a5e	; 0x4a5e <__fp_zero>
    4720:	0e f4       	brtc	.+2      	; 0x4724 <__addsf3x+0x20>
    4722:	e0 95       	com	r30
    4724:	0b 2e       	mov	r0, r27
    4726:	ba 2f       	mov	r27, r26
    4728:	a0 2d       	mov	r26, r0
    472a:	0b 01       	movw	r0, r22
    472c:	b9 01       	movw	r22, r18
    472e:	90 01       	movw	r18, r0
    4730:	0c 01       	movw	r0, r24
    4732:	ca 01       	movw	r24, r20
    4734:	a0 01       	movw	r20, r0
    4736:	11 24       	eor	r1, r1
    4738:	ff 27       	eor	r31, r31
    473a:	59 1b       	sub	r21, r25
    473c:	99 f0       	breq	.+38     	; 0x4764 <__addsf3x+0x60>
    473e:	59 3f       	cpi	r21, 0xF9	; 249
    4740:	50 f4       	brcc	.+20     	; 0x4756 <__addsf3x+0x52>
    4742:	50 3e       	cpi	r21, 0xE0	; 224
    4744:	68 f1       	brcs	.+90     	; 0x47a0 <__addsf3x+0x9c>
    4746:	1a 16       	cp	r1, r26
    4748:	f0 40       	sbci	r31, 0x00	; 0
    474a:	a2 2f       	mov	r26, r18
    474c:	23 2f       	mov	r18, r19
    474e:	34 2f       	mov	r19, r20
    4750:	44 27       	eor	r20, r20
    4752:	58 5f       	subi	r21, 0xF8	; 248
    4754:	f3 cf       	rjmp	.-26     	; 0x473c <__addsf3x+0x38>
    4756:	46 95       	lsr	r20
    4758:	37 95       	ror	r19
    475a:	27 95       	ror	r18
    475c:	a7 95       	ror	r26
    475e:	f0 40       	sbci	r31, 0x00	; 0
    4760:	53 95       	inc	r21
    4762:	c9 f7       	brne	.-14     	; 0x4756 <__addsf3x+0x52>
    4764:	7e f4       	brtc	.+30     	; 0x4784 <__addsf3x+0x80>
    4766:	1f 16       	cp	r1, r31
    4768:	ba 0b       	sbc	r27, r26
    476a:	62 0b       	sbc	r22, r18
    476c:	73 0b       	sbc	r23, r19
    476e:	84 0b       	sbc	r24, r20
    4770:	ba f0       	brmi	.+46     	; 0x47a0 <__addsf3x+0x9c>
    4772:	91 50       	subi	r25, 0x01	; 1
    4774:	a1 f0       	breq	.+40     	; 0x479e <__addsf3x+0x9a>
    4776:	ff 0f       	add	r31, r31
    4778:	bb 1f       	adc	r27, r27
    477a:	66 1f       	adc	r22, r22
    477c:	77 1f       	adc	r23, r23
    477e:	88 1f       	adc	r24, r24
    4780:	c2 f7       	brpl	.-16     	; 0x4772 <__addsf3x+0x6e>
    4782:	0e c0       	rjmp	.+28     	; 0x47a0 <__addsf3x+0x9c>
    4784:	ba 0f       	add	r27, r26
    4786:	62 1f       	adc	r22, r18
    4788:	73 1f       	adc	r23, r19
    478a:	84 1f       	adc	r24, r20
    478c:	48 f4       	brcc	.+18     	; 0x47a0 <__addsf3x+0x9c>
    478e:	87 95       	ror	r24
    4790:	77 95       	ror	r23
    4792:	67 95       	ror	r22
    4794:	b7 95       	ror	r27
    4796:	f7 95       	ror	r31
    4798:	9e 3f       	cpi	r25, 0xFE	; 254
    479a:	08 f0       	brcs	.+2      	; 0x479e <__addsf3x+0x9a>
    479c:	b0 cf       	rjmp	.-160    	; 0x46fe <__addsf3+0x28>
    479e:	93 95       	inc	r25
    47a0:	88 0f       	add	r24, r24
    47a2:	08 f0       	brcs	.+2      	; 0x47a6 <__addsf3x+0xa2>
    47a4:	99 27       	eor	r25, r25
    47a6:	ee 0f       	add	r30, r30
    47a8:	97 95       	ror	r25
    47aa:	87 95       	ror	r24
    47ac:	08 95       	ret

000047ae <__cmpsf2>:
    47ae:	0e 94 c1 24 	call	0x4982	; 0x4982 <__fp_cmp>
    47b2:	08 f4       	brcc	.+2      	; 0x47b6 <__cmpsf2+0x8>
    47b4:	81 e0       	ldi	r24, 0x01	; 1
    47b6:	08 95       	ret

000047b8 <__divsf3>:
    47b8:	0e 94 f0 23 	call	0x47e0	; 0x47e0 <__divsf3x>
    47bc:	0c 94 fc 24 	jmp	0x49f8	; 0x49f8 <__fp_round>
    47c0:	0e 94 f5 24 	call	0x49ea	; 0x49ea <__fp_pscB>
    47c4:	58 f0       	brcs	.+22     	; 0x47dc <__divsf3+0x24>
    47c6:	0e 94 ee 24 	call	0x49dc	; 0x49dc <__fp_pscA>
    47ca:	40 f0       	brcs	.+16     	; 0x47dc <__divsf3+0x24>
    47cc:	29 f4       	brne	.+10     	; 0x47d8 <__divsf3+0x20>
    47ce:	5f 3f       	cpi	r21, 0xFF	; 255
    47d0:	29 f0       	breq	.+10     	; 0x47dc <__divsf3+0x24>
    47d2:	0c 94 e5 24 	jmp	0x49ca	; 0x49ca <__fp_inf>
    47d6:	51 11       	cpse	r21, r1
    47d8:	0c 94 30 25 	jmp	0x4a60	; 0x4a60 <__fp_szero>
    47dc:	0c 94 eb 24 	jmp	0x49d6	; 0x49d6 <__fp_nan>

000047e0 <__divsf3x>:
    47e0:	0e 94 0d 25 	call	0x4a1a	; 0x4a1a <__fp_split3>
    47e4:	68 f3       	brcs	.-38     	; 0x47c0 <__divsf3+0x8>

000047e6 <__divsf3_pse>:
    47e6:	99 23       	and	r25, r25
    47e8:	b1 f3       	breq	.-20     	; 0x47d6 <__divsf3+0x1e>
    47ea:	55 23       	and	r21, r21
    47ec:	91 f3       	breq	.-28     	; 0x47d2 <__divsf3+0x1a>
    47ee:	95 1b       	sub	r25, r21
    47f0:	55 0b       	sbc	r21, r21
    47f2:	bb 27       	eor	r27, r27
    47f4:	aa 27       	eor	r26, r26
    47f6:	62 17       	cp	r22, r18
    47f8:	73 07       	cpc	r23, r19
    47fa:	84 07       	cpc	r24, r20
    47fc:	38 f0       	brcs	.+14     	; 0x480c <__divsf3_pse+0x26>
    47fe:	9f 5f       	subi	r25, 0xFF	; 255
    4800:	5f 4f       	sbci	r21, 0xFF	; 255
    4802:	22 0f       	add	r18, r18
    4804:	33 1f       	adc	r19, r19
    4806:	44 1f       	adc	r20, r20
    4808:	aa 1f       	adc	r26, r26
    480a:	a9 f3       	breq	.-22     	; 0x47f6 <__divsf3_pse+0x10>
    480c:	35 d0       	rcall	.+106    	; 0x4878 <__divsf3_pse+0x92>
    480e:	0e 2e       	mov	r0, r30
    4810:	3a f0       	brmi	.+14     	; 0x4820 <__divsf3_pse+0x3a>
    4812:	e0 e8       	ldi	r30, 0x80	; 128
    4814:	32 d0       	rcall	.+100    	; 0x487a <__divsf3_pse+0x94>
    4816:	91 50       	subi	r25, 0x01	; 1
    4818:	50 40       	sbci	r21, 0x00	; 0
    481a:	e6 95       	lsr	r30
    481c:	00 1c       	adc	r0, r0
    481e:	ca f7       	brpl	.-14     	; 0x4812 <__divsf3_pse+0x2c>
    4820:	2b d0       	rcall	.+86     	; 0x4878 <__divsf3_pse+0x92>
    4822:	fe 2f       	mov	r31, r30
    4824:	29 d0       	rcall	.+82     	; 0x4878 <__divsf3_pse+0x92>
    4826:	66 0f       	add	r22, r22
    4828:	77 1f       	adc	r23, r23
    482a:	88 1f       	adc	r24, r24
    482c:	bb 1f       	adc	r27, r27
    482e:	26 17       	cp	r18, r22
    4830:	37 07       	cpc	r19, r23
    4832:	48 07       	cpc	r20, r24
    4834:	ab 07       	cpc	r26, r27
    4836:	b0 e8       	ldi	r27, 0x80	; 128
    4838:	09 f0       	breq	.+2      	; 0x483c <__divsf3_pse+0x56>
    483a:	bb 0b       	sbc	r27, r27
    483c:	80 2d       	mov	r24, r0
    483e:	bf 01       	movw	r22, r30
    4840:	ff 27       	eor	r31, r31
    4842:	93 58       	subi	r25, 0x83	; 131
    4844:	5f 4f       	sbci	r21, 0xFF	; 255
    4846:	3a f0       	brmi	.+14     	; 0x4856 <__divsf3_pse+0x70>
    4848:	9e 3f       	cpi	r25, 0xFE	; 254
    484a:	51 05       	cpc	r21, r1
    484c:	78 f0       	brcs	.+30     	; 0x486c <__divsf3_pse+0x86>
    484e:	0c 94 e5 24 	jmp	0x49ca	; 0x49ca <__fp_inf>
    4852:	0c 94 30 25 	jmp	0x4a60	; 0x4a60 <__fp_szero>
    4856:	5f 3f       	cpi	r21, 0xFF	; 255
    4858:	e4 f3       	brlt	.-8      	; 0x4852 <__divsf3_pse+0x6c>
    485a:	98 3e       	cpi	r25, 0xE8	; 232
    485c:	d4 f3       	brlt	.-12     	; 0x4852 <__divsf3_pse+0x6c>
    485e:	86 95       	lsr	r24
    4860:	77 95       	ror	r23
    4862:	67 95       	ror	r22
    4864:	b7 95       	ror	r27
    4866:	f7 95       	ror	r31
    4868:	9f 5f       	subi	r25, 0xFF	; 255
    486a:	c9 f7       	brne	.-14     	; 0x485e <__divsf3_pse+0x78>
    486c:	88 0f       	add	r24, r24
    486e:	91 1d       	adc	r25, r1
    4870:	96 95       	lsr	r25
    4872:	87 95       	ror	r24
    4874:	97 f9       	bld	r25, 7
    4876:	08 95       	ret
    4878:	e1 e0       	ldi	r30, 0x01	; 1
    487a:	66 0f       	add	r22, r22
    487c:	77 1f       	adc	r23, r23
    487e:	88 1f       	adc	r24, r24
    4880:	bb 1f       	adc	r27, r27
    4882:	62 17       	cp	r22, r18
    4884:	73 07       	cpc	r23, r19
    4886:	84 07       	cpc	r24, r20
    4888:	ba 07       	cpc	r27, r26
    488a:	20 f0       	brcs	.+8      	; 0x4894 <__divsf3_pse+0xae>
    488c:	62 1b       	sub	r22, r18
    488e:	73 0b       	sbc	r23, r19
    4890:	84 0b       	sbc	r24, r20
    4892:	ba 0b       	sbc	r27, r26
    4894:	ee 1f       	adc	r30, r30
    4896:	88 f7       	brcc	.-30     	; 0x487a <__divsf3_pse+0x94>
    4898:	e0 95       	com	r30
    489a:	08 95       	ret

0000489c <__fixsfsi>:
    489c:	0e 94 55 24 	call	0x48aa	; 0x48aa <__fixunssfsi>
    48a0:	68 94       	set
    48a2:	b1 11       	cpse	r27, r1
    48a4:	0c 94 30 25 	jmp	0x4a60	; 0x4a60 <__fp_szero>
    48a8:	08 95       	ret

000048aa <__fixunssfsi>:
    48aa:	0e 94 15 25 	call	0x4a2a	; 0x4a2a <__fp_splitA>
    48ae:	88 f0       	brcs	.+34     	; 0x48d2 <__fixunssfsi+0x28>
    48b0:	9f 57       	subi	r25, 0x7F	; 127
    48b2:	98 f0       	brcs	.+38     	; 0x48da <__fixunssfsi+0x30>
    48b4:	b9 2f       	mov	r27, r25
    48b6:	99 27       	eor	r25, r25
    48b8:	b7 51       	subi	r27, 0x17	; 23
    48ba:	b0 f0       	brcs	.+44     	; 0x48e8 <__fixunssfsi+0x3e>
    48bc:	e1 f0       	breq	.+56     	; 0x48f6 <__fixunssfsi+0x4c>
    48be:	66 0f       	add	r22, r22
    48c0:	77 1f       	adc	r23, r23
    48c2:	88 1f       	adc	r24, r24
    48c4:	99 1f       	adc	r25, r25
    48c6:	1a f0       	brmi	.+6      	; 0x48ce <__fixunssfsi+0x24>
    48c8:	ba 95       	dec	r27
    48ca:	c9 f7       	brne	.-14     	; 0x48be <__fixunssfsi+0x14>
    48cc:	14 c0       	rjmp	.+40     	; 0x48f6 <__fixunssfsi+0x4c>
    48ce:	b1 30       	cpi	r27, 0x01	; 1
    48d0:	91 f0       	breq	.+36     	; 0x48f6 <__fixunssfsi+0x4c>
    48d2:	0e 94 2f 25 	call	0x4a5e	; 0x4a5e <__fp_zero>
    48d6:	b1 e0       	ldi	r27, 0x01	; 1
    48d8:	08 95       	ret
    48da:	0c 94 2f 25 	jmp	0x4a5e	; 0x4a5e <__fp_zero>
    48de:	67 2f       	mov	r22, r23
    48e0:	78 2f       	mov	r23, r24
    48e2:	88 27       	eor	r24, r24
    48e4:	b8 5f       	subi	r27, 0xF8	; 248
    48e6:	39 f0       	breq	.+14     	; 0x48f6 <__fixunssfsi+0x4c>
    48e8:	b9 3f       	cpi	r27, 0xF9	; 249
    48ea:	cc f3       	brlt	.-14     	; 0x48de <__fixunssfsi+0x34>
    48ec:	86 95       	lsr	r24
    48ee:	77 95       	ror	r23
    48f0:	67 95       	ror	r22
    48f2:	b3 95       	inc	r27
    48f4:	d9 f7       	brne	.-10     	; 0x48ec <__fixunssfsi+0x42>
    48f6:	3e f4       	brtc	.+14     	; 0x4906 <__fixunssfsi+0x5c>
    48f8:	90 95       	com	r25
    48fa:	80 95       	com	r24
    48fc:	70 95       	com	r23
    48fe:	61 95       	neg	r22
    4900:	7f 4f       	sbci	r23, 0xFF	; 255
    4902:	8f 4f       	sbci	r24, 0xFF	; 255
    4904:	9f 4f       	sbci	r25, 0xFF	; 255
    4906:	08 95       	ret

00004908 <__floatunsisf>:
    4908:	e8 94       	clt
    490a:	09 c0       	rjmp	.+18     	; 0x491e <__floatsisf+0x12>

0000490c <__floatsisf>:
    490c:	97 fb       	bst	r25, 7
    490e:	3e f4       	brtc	.+14     	; 0x491e <__floatsisf+0x12>
    4910:	90 95       	com	r25
    4912:	80 95       	com	r24
    4914:	70 95       	com	r23
    4916:	61 95       	neg	r22
    4918:	7f 4f       	sbci	r23, 0xFF	; 255
    491a:	8f 4f       	sbci	r24, 0xFF	; 255
    491c:	9f 4f       	sbci	r25, 0xFF	; 255
    491e:	99 23       	and	r25, r25
    4920:	a9 f0       	breq	.+42     	; 0x494c <__floatsisf+0x40>
    4922:	f9 2f       	mov	r31, r25
    4924:	96 e9       	ldi	r25, 0x96	; 150
    4926:	bb 27       	eor	r27, r27
    4928:	93 95       	inc	r25
    492a:	f6 95       	lsr	r31
    492c:	87 95       	ror	r24
    492e:	77 95       	ror	r23
    4930:	67 95       	ror	r22
    4932:	b7 95       	ror	r27
    4934:	f1 11       	cpse	r31, r1
    4936:	f8 cf       	rjmp	.-16     	; 0x4928 <__floatsisf+0x1c>
    4938:	fa f4       	brpl	.+62     	; 0x4978 <__floatsisf+0x6c>
    493a:	bb 0f       	add	r27, r27
    493c:	11 f4       	brne	.+4      	; 0x4942 <__floatsisf+0x36>
    493e:	60 ff       	sbrs	r22, 0
    4940:	1b c0       	rjmp	.+54     	; 0x4978 <__floatsisf+0x6c>
    4942:	6f 5f       	subi	r22, 0xFF	; 255
    4944:	7f 4f       	sbci	r23, 0xFF	; 255
    4946:	8f 4f       	sbci	r24, 0xFF	; 255
    4948:	9f 4f       	sbci	r25, 0xFF	; 255
    494a:	16 c0       	rjmp	.+44     	; 0x4978 <__floatsisf+0x6c>
    494c:	88 23       	and	r24, r24
    494e:	11 f0       	breq	.+4      	; 0x4954 <__floatsisf+0x48>
    4950:	96 e9       	ldi	r25, 0x96	; 150
    4952:	11 c0       	rjmp	.+34     	; 0x4976 <__floatsisf+0x6a>
    4954:	77 23       	and	r23, r23
    4956:	21 f0       	breq	.+8      	; 0x4960 <__floatsisf+0x54>
    4958:	9e e8       	ldi	r25, 0x8E	; 142
    495a:	87 2f       	mov	r24, r23
    495c:	76 2f       	mov	r23, r22
    495e:	05 c0       	rjmp	.+10     	; 0x496a <__floatsisf+0x5e>
    4960:	66 23       	and	r22, r22
    4962:	71 f0       	breq	.+28     	; 0x4980 <__floatsisf+0x74>
    4964:	96 e8       	ldi	r25, 0x86	; 134
    4966:	86 2f       	mov	r24, r22
    4968:	70 e0       	ldi	r23, 0x00	; 0
    496a:	60 e0       	ldi	r22, 0x00	; 0
    496c:	2a f0       	brmi	.+10     	; 0x4978 <__floatsisf+0x6c>
    496e:	9a 95       	dec	r25
    4970:	66 0f       	add	r22, r22
    4972:	77 1f       	adc	r23, r23
    4974:	88 1f       	adc	r24, r24
    4976:	da f7       	brpl	.-10     	; 0x496e <__floatsisf+0x62>
    4978:	88 0f       	add	r24, r24
    497a:	96 95       	lsr	r25
    497c:	87 95       	ror	r24
    497e:	97 f9       	bld	r25, 7
    4980:	08 95       	ret

00004982 <__fp_cmp>:
    4982:	99 0f       	add	r25, r25
    4984:	00 08       	sbc	r0, r0
    4986:	55 0f       	add	r21, r21
    4988:	aa 0b       	sbc	r26, r26
    498a:	e0 e8       	ldi	r30, 0x80	; 128
    498c:	fe ef       	ldi	r31, 0xFE	; 254
    498e:	16 16       	cp	r1, r22
    4990:	17 06       	cpc	r1, r23
    4992:	e8 07       	cpc	r30, r24
    4994:	f9 07       	cpc	r31, r25
    4996:	c0 f0       	brcs	.+48     	; 0x49c8 <__fp_cmp+0x46>
    4998:	12 16       	cp	r1, r18
    499a:	13 06       	cpc	r1, r19
    499c:	e4 07       	cpc	r30, r20
    499e:	f5 07       	cpc	r31, r21
    49a0:	98 f0       	brcs	.+38     	; 0x49c8 <__fp_cmp+0x46>
    49a2:	62 1b       	sub	r22, r18
    49a4:	73 0b       	sbc	r23, r19
    49a6:	84 0b       	sbc	r24, r20
    49a8:	95 0b       	sbc	r25, r21
    49aa:	39 f4       	brne	.+14     	; 0x49ba <__fp_cmp+0x38>
    49ac:	0a 26       	eor	r0, r26
    49ae:	61 f0       	breq	.+24     	; 0x49c8 <__fp_cmp+0x46>
    49b0:	23 2b       	or	r18, r19
    49b2:	24 2b       	or	r18, r20
    49b4:	25 2b       	or	r18, r21
    49b6:	21 f4       	brne	.+8      	; 0x49c0 <__fp_cmp+0x3e>
    49b8:	08 95       	ret
    49ba:	0a 26       	eor	r0, r26
    49bc:	09 f4       	brne	.+2      	; 0x49c0 <__fp_cmp+0x3e>
    49be:	a1 40       	sbci	r26, 0x01	; 1
    49c0:	a6 95       	lsr	r26
    49c2:	8f ef       	ldi	r24, 0xFF	; 255
    49c4:	81 1d       	adc	r24, r1
    49c6:	81 1d       	adc	r24, r1
    49c8:	08 95       	ret

000049ca <__fp_inf>:
    49ca:	97 f9       	bld	r25, 7
    49cc:	9f 67       	ori	r25, 0x7F	; 127
    49ce:	80 e8       	ldi	r24, 0x80	; 128
    49d0:	70 e0       	ldi	r23, 0x00	; 0
    49d2:	60 e0       	ldi	r22, 0x00	; 0
    49d4:	08 95       	ret

000049d6 <__fp_nan>:
    49d6:	9f ef       	ldi	r25, 0xFF	; 255
    49d8:	80 ec       	ldi	r24, 0xC0	; 192
    49da:	08 95       	ret

000049dc <__fp_pscA>:
    49dc:	00 24       	eor	r0, r0
    49de:	0a 94       	dec	r0
    49e0:	16 16       	cp	r1, r22
    49e2:	17 06       	cpc	r1, r23
    49e4:	18 06       	cpc	r1, r24
    49e6:	09 06       	cpc	r0, r25
    49e8:	08 95       	ret

000049ea <__fp_pscB>:
    49ea:	00 24       	eor	r0, r0
    49ec:	0a 94       	dec	r0
    49ee:	12 16       	cp	r1, r18
    49f0:	13 06       	cpc	r1, r19
    49f2:	14 06       	cpc	r1, r20
    49f4:	05 06       	cpc	r0, r21
    49f6:	08 95       	ret

000049f8 <__fp_round>:
    49f8:	09 2e       	mov	r0, r25
    49fa:	03 94       	inc	r0
    49fc:	00 0c       	add	r0, r0
    49fe:	11 f4       	brne	.+4      	; 0x4a04 <__fp_round+0xc>
    4a00:	88 23       	and	r24, r24
    4a02:	52 f0       	brmi	.+20     	; 0x4a18 <__fp_round+0x20>
    4a04:	bb 0f       	add	r27, r27
    4a06:	40 f4       	brcc	.+16     	; 0x4a18 <__fp_round+0x20>
    4a08:	bf 2b       	or	r27, r31
    4a0a:	11 f4       	brne	.+4      	; 0x4a10 <__fp_round+0x18>
    4a0c:	60 ff       	sbrs	r22, 0
    4a0e:	04 c0       	rjmp	.+8      	; 0x4a18 <__fp_round+0x20>
    4a10:	6f 5f       	subi	r22, 0xFF	; 255
    4a12:	7f 4f       	sbci	r23, 0xFF	; 255
    4a14:	8f 4f       	sbci	r24, 0xFF	; 255
    4a16:	9f 4f       	sbci	r25, 0xFF	; 255
    4a18:	08 95       	ret

00004a1a <__fp_split3>:
    4a1a:	57 fd       	sbrc	r21, 7
    4a1c:	90 58       	subi	r25, 0x80	; 128
    4a1e:	44 0f       	add	r20, r20
    4a20:	55 1f       	adc	r21, r21
    4a22:	59 f0       	breq	.+22     	; 0x4a3a <__fp_splitA+0x10>
    4a24:	5f 3f       	cpi	r21, 0xFF	; 255
    4a26:	71 f0       	breq	.+28     	; 0x4a44 <__fp_splitA+0x1a>
    4a28:	47 95       	ror	r20

00004a2a <__fp_splitA>:
    4a2a:	88 0f       	add	r24, r24
    4a2c:	97 fb       	bst	r25, 7
    4a2e:	99 1f       	adc	r25, r25
    4a30:	61 f0       	breq	.+24     	; 0x4a4a <__fp_splitA+0x20>
    4a32:	9f 3f       	cpi	r25, 0xFF	; 255
    4a34:	79 f0       	breq	.+30     	; 0x4a54 <__fp_splitA+0x2a>
    4a36:	87 95       	ror	r24
    4a38:	08 95       	ret
    4a3a:	12 16       	cp	r1, r18
    4a3c:	13 06       	cpc	r1, r19
    4a3e:	14 06       	cpc	r1, r20
    4a40:	55 1f       	adc	r21, r21
    4a42:	f2 cf       	rjmp	.-28     	; 0x4a28 <__fp_split3+0xe>
    4a44:	46 95       	lsr	r20
    4a46:	f1 df       	rcall	.-30     	; 0x4a2a <__fp_splitA>
    4a48:	08 c0       	rjmp	.+16     	; 0x4a5a <__fp_splitA+0x30>
    4a4a:	16 16       	cp	r1, r22
    4a4c:	17 06       	cpc	r1, r23
    4a4e:	18 06       	cpc	r1, r24
    4a50:	99 1f       	adc	r25, r25
    4a52:	f1 cf       	rjmp	.-30     	; 0x4a36 <__fp_splitA+0xc>
    4a54:	86 95       	lsr	r24
    4a56:	71 05       	cpc	r23, r1
    4a58:	61 05       	cpc	r22, r1
    4a5a:	08 94       	sec
    4a5c:	08 95       	ret

00004a5e <__fp_zero>:
    4a5e:	e8 94       	clt

00004a60 <__fp_szero>:
    4a60:	bb 27       	eor	r27, r27
    4a62:	66 27       	eor	r22, r22
    4a64:	77 27       	eor	r23, r23
    4a66:	cb 01       	movw	r24, r22
    4a68:	97 f9       	bld	r25, 7
    4a6a:	08 95       	ret

00004a6c <__gesf2>:
    4a6c:	0e 94 c1 24 	call	0x4982	; 0x4982 <__fp_cmp>
    4a70:	08 f4       	brcc	.+2      	; 0x4a74 <__gesf2+0x8>
    4a72:	8f ef       	ldi	r24, 0xFF	; 255
    4a74:	08 95       	ret

00004a76 <__mulsf3>:
    4a76:	0e 94 4e 25 	call	0x4a9c	; 0x4a9c <__mulsf3x>
    4a7a:	0c 94 fc 24 	jmp	0x49f8	; 0x49f8 <__fp_round>
    4a7e:	0e 94 ee 24 	call	0x49dc	; 0x49dc <__fp_pscA>
    4a82:	38 f0       	brcs	.+14     	; 0x4a92 <__mulsf3+0x1c>
    4a84:	0e 94 f5 24 	call	0x49ea	; 0x49ea <__fp_pscB>
    4a88:	20 f0       	brcs	.+8      	; 0x4a92 <__mulsf3+0x1c>
    4a8a:	95 23       	and	r25, r21
    4a8c:	11 f0       	breq	.+4      	; 0x4a92 <__mulsf3+0x1c>
    4a8e:	0c 94 e5 24 	jmp	0x49ca	; 0x49ca <__fp_inf>
    4a92:	0c 94 eb 24 	jmp	0x49d6	; 0x49d6 <__fp_nan>
    4a96:	11 24       	eor	r1, r1
    4a98:	0c 94 30 25 	jmp	0x4a60	; 0x4a60 <__fp_szero>

00004a9c <__mulsf3x>:
    4a9c:	0e 94 0d 25 	call	0x4a1a	; 0x4a1a <__fp_split3>
    4aa0:	70 f3       	brcs	.-36     	; 0x4a7e <__mulsf3+0x8>

00004aa2 <__mulsf3_pse>:
    4aa2:	95 9f       	mul	r25, r21
    4aa4:	c1 f3       	breq	.-16     	; 0x4a96 <__mulsf3+0x20>
    4aa6:	95 0f       	add	r25, r21
    4aa8:	50 e0       	ldi	r21, 0x00	; 0
    4aaa:	55 1f       	adc	r21, r21
    4aac:	62 9f       	mul	r22, r18
    4aae:	f0 01       	movw	r30, r0
    4ab0:	72 9f       	mul	r23, r18
    4ab2:	bb 27       	eor	r27, r27
    4ab4:	f0 0d       	add	r31, r0
    4ab6:	b1 1d       	adc	r27, r1
    4ab8:	63 9f       	mul	r22, r19
    4aba:	aa 27       	eor	r26, r26
    4abc:	f0 0d       	add	r31, r0
    4abe:	b1 1d       	adc	r27, r1
    4ac0:	aa 1f       	adc	r26, r26
    4ac2:	64 9f       	mul	r22, r20
    4ac4:	66 27       	eor	r22, r22
    4ac6:	b0 0d       	add	r27, r0
    4ac8:	a1 1d       	adc	r26, r1
    4aca:	66 1f       	adc	r22, r22
    4acc:	82 9f       	mul	r24, r18
    4ace:	22 27       	eor	r18, r18
    4ad0:	b0 0d       	add	r27, r0
    4ad2:	a1 1d       	adc	r26, r1
    4ad4:	62 1f       	adc	r22, r18
    4ad6:	73 9f       	mul	r23, r19
    4ad8:	b0 0d       	add	r27, r0
    4ada:	a1 1d       	adc	r26, r1
    4adc:	62 1f       	adc	r22, r18
    4ade:	83 9f       	mul	r24, r19
    4ae0:	a0 0d       	add	r26, r0
    4ae2:	61 1d       	adc	r22, r1
    4ae4:	22 1f       	adc	r18, r18
    4ae6:	74 9f       	mul	r23, r20
    4ae8:	33 27       	eor	r19, r19
    4aea:	a0 0d       	add	r26, r0
    4aec:	61 1d       	adc	r22, r1
    4aee:	23 1f       	adc	r18, r19
    4af0:	84 9f       	mul	r24, r20
    4af2:	60 0d       	add	r22, r0
    4af4:	21 1d       	adc	r18, r1
    4af6:	82 2f       	mov	r24, r18
    4af8:	76 2f       	mov	r23, r22
    4afa:	6a 2f       	mov	r22, r26
    4afc:	11 24       	eor	r1, r1
    4afe:	9f 57       	subi	r25, 0x7F	; 127
    4b00:	50 40       	sbci	r21, 0x00	; 0
    4b02:	9a f0       	brmi	.+38     	; 0x4b2a <__mulsf3_pse+0x88>
    4b04:	f1 f0       	breq	.+60     	; 0x4b42 <__mulsf3_pse+0xa0>
    4b06:	88 23       	and	r24, r24
    4b08:	4a f0       	brmi	.+18     	; 0x4b1c <__mulsf3_pse+0x7a>
    4b0a:	ee 0f       	add	r30, r30
    4b0c:	ff 1f       	adc	r31, r31
    4b0e:	bb 1f       	adc	r27, r27
    4b10:	66 1f       	adc	r22, r22
    4b12:	77 1f       	adc	r23, r23
    4b14:	88 1f       	adc	r24, r24
    4b16:	91 50       	subi	r25, 0x01	; 1
    4b18:	50 40       	sbci	r21, 0x00	; 0
    4b1a:	a9 f7       	brne	.-22     	; 0x4b06 <__mulsf3_pse+0x64>
    4b1c:	9e 3f       	cpi	r25, 0xFE	; 254
    4b1e:	51 05       	cpc	r21, r1
    4b20:	80 f0       	brcs	.+32     	; 0x4b42 <__mulsf3_pse+0xa0>
    4b22:	0c 94 e5 24 	jmp	0x49ca	; 0x49ca <__fp_inf>
    4b26:	0c 94 30 25 	jmp	0x4a60	; 0x4a60 <__fp_szero>
    4b2a:	5f 3f       	cpi	r21, 0xFF	; 255
    4b2c:	e4 f3       	brlt	.-8      	; 0x4b26 <__mulsf3_pse+0x84>
    4b2e:	98 3e       	cpi	r25, 0xE8	; 232
    4b30:	d4 f3       	brlt	.-12     	; 0x4b26 <__mulsf3_pse+0x84>
    4b32:	86 95       	lsr	r24
    4b34:	77 95       	ror	r23
    4b36:	67 95       	ror	r22
    4b38:	b7 95       	ror	r27
    4b3a:	f7 95       	ror	r31
    4b3c:	e7 95       	ror	r30
    4b3e:	9f 5f       	subi	r25, 0xFF	; 255
    4b40:	c1 f7       	brne	.-16     	; 0x4b32 <__mulsf3_pse+0x90>
    4b42:	fe 2b       	or	r31, r30
    4b44:	88 0f       	add	r24, r24
    4b46:	91 1d       	adc	r25, r1
    4b48:	96 95       	lsr	r25
    4b4a:	87 95       	ror	r24
    4b4c:	97 f9       	bld	r25, 7
    4b4e:	08 95       	ret

00004b50 <vfprintf>:
    4b50:	a0 e1       	ldi	r26, 0x10	; 16
    4b52:	b0 e0       	ldi	r27, 0x00	; 0
    4b54:	ee ea       	ldi	r30, 0xAE	; 174
    4b56:	f5 e2       	ldi	r31, 0x25	; 37
    4b58:	0c 94 39 29 	jmp	0x5272	; 0x5272 <__prologue_saves__>
    4b5c:	7c 01       	movw	r14, r24
    4b5e:	1b 01       	movw	r2, r22
    4b60:	6a 01       	movw	r12, r20
    4b62:	fc 01       	movw	r30, r24
    4b64:	17 82       	std	Z+7, r1	; 0x07
    4b66:	16 82       	std	Z+6, r1	; 0x06
    4b68:	83 81       	ldd	r24, Z+3	; 0x03
    4b6a:	81 ff       	sbrs	r24, 1
    4b6c:	44 c3       	rjmp	.+1672   	; 0x51f6 <vfprintf+0x6a6>
    4b6e:	9e 01       	movw	r18, r28
    4b70:	2f 5f       	subi	r18, 0xFF	; 255
    4b72:	3f 4f       	sbci	r19, 0xFF	; 255
    4b74:	39 01       	movw	r6, r18
    4b76:	f7 01       	movw	r30, r14
    4b78:	93 81       	ldd	r25, Z+3	; 0x03
    4b7a:	f1 01       	movw	r30, r2
    4b7c:	93 fd       	sbrc	r25, 3
    4b7e:	85 91       	lpm	r24, Z+
    4b80:	93 ff       	sbrs	r25, 3
    4b82:	81 91       	ld	r24, Z+
    4b84:	1f 01       	movw	r2, r30
    4b86:	88 23       	and	r24, r24
    4b88:	09 f4       	brne	.+2      	; 0x4b8c <vfprintf+0x3c>
    4b8a:	31 c3       	rjmp	.+1634   	; 0x51ee <vfprintf+0x69e>
    4b8c:	85 32       	cpi	r24, 0x25	; 37
    4b8e:	39 f4       	brne	.+14     	; 0x4b9e <vfprintf+0x4e>
    4b90:	93 fd       	sbrc	r25, 3
    4b92:	85 91       	lpm	r24, Z+
    4b94:	93 ff       	sbrs	r25, 3
    4b96:	81 91       	ld	r24, Z+
    4b98:	1f 01       	movw	r2, r30
    4b9a:	85 32       	cpi	r24, 0x25	; 37
    4b9c:	39 f4       	brne	.+14     	; 0x4bac <vfprintf+0x5c>
    4b9e:	b7 01       	movw	r22, r14
    4ba0:	90 e0       	ldi	r25, 0x00	; 0
    4ba2:	0e 94 20 2d 	call	0x5a40	; 0x5a40 <fputc>
    4ba6:	56 01       	movw	r10, r12
    4ba8:	65 01       	movw	r12, r10
    4baa:	e5 cf       	rjmp	.-54     	; 0x4b76 <vfprintf+0x26>
    4bac:	10 e0       	ldi	r17, 0x00	; 0
    4bae:	51 2c       	mov	r5, r1
    4bb0:	91 2c       	mov	r9, r1
    4bb2:	ff e1       	ldi	r31, 0x1F	; 31
    4bb4:	f9 15       	cp	r31, r9
    4bb6:	d8 f0       	brcs	.+54     	; 0x4bee <vfprintf+0x9e>
    4bb8:	8b 32       	cpi	r24, 0x2B	; 43
    4bba:	79 f0       	breq	.+30     	; 0x4bda <vfprintf+0x8a>
    4bbc:	38 f4       	brcc	.+14     	; 0x4bcc <vfprintf+0x7c>
    4bbe:	80 32       	cpi	r24, 0x20	; 32
    4bc0:	79 f0       	breq	.+30     	; 0x4be0 <vfprintf+0x90>
    4bc2:	83 32       	cpi	r24, 0x23	; 35
    4bc4:	a1 f4       	brne	.+40     	; 0x4bee <vfprintf+0x9e>
    4bc6:	f9 2d       	mov	r31, r9
    4bc8:	f0 61       	ori	r31, 0x10	; 16
    4bca:	2e c0       	rjmp	.+92     	; 0x4c28 <vfprintf+0xd8>
    4bcc:	8d 32       	cpi	r24, 0x2D	; 45
    4bce:	61 f0       	breq	.+24     	; 0x4be8 <vfprintf+0x98>
    4bd0:	80 33       	cpi	r24, 0x30	; 48
    4bd2:	69 f4       	brne	.+26     	; 0x4bee <vfprintf+0x9e>
    4bd4:	29 2d       	mov	r18, r9
    4bd6:	21 60       	ori	r18, 0x01	; 1
    4bd8:	2d c0       	rjmp	.+90     	; 0x4c34 <vfprintf+0xe4>
    4bda:	39 2d       	mov	r19, r9
    4bdc:	32 60       	ori	r19, 0x02	; 2
    4bde:	93 2e       	mov	r9, r19
    4be0:	89 2d       	mov	r24, r9
    4be2:	84 60       	ori	r24, 0x04	; 4
    4be4:	98 2e       	mov	r9, r24
    4be6:	2a c0       	rjmp	.+84     	; 0x4c3c <vfprintf+0xec>
    4be8:	e9 2d       	mov	r30, r9
    4bea:	e8 60       	ori	r30, 0x08	; 8
    4bec:	15 c0       	rjmp	.+42     	; 0x4c18 <vfprintf+0xc8>
    4bee:	97 fc       	sbrc	r9, 7
    4bf0:	2d c0       	rjmp	.+90     	; 0x4c4c <vfprintf+0xfc>
    4bf2:	20 ed       	ldi	r18, 0xD0	; 208
    4bf4:	28 0f       	add	r18, r24
    4bf6:	2a 30       	cpi	r18, 0x0A	; 10
    4bf8:	88 f4       	brcc	.+34     	; 0x4c1c <vfprintf+0xcc>
    4bfa:	96 fe       	sbrs	r9, 6
    4bfc:	06 c0       	rjmp	.+12     	; 0x4c0a <vfprintf+0xba>
    4bfe:	3a e0       	ldi	r19, 0x0A	; 10
    4c00:	13 9f       	mul	r17, r19
    4c02:	20 0d       	add	r18, r0
    4c04:	11 24       	eor	r1, r1
    4c06:	12 2f       	mov	r17, r18
    4c08:	19 c0       	rjmp	.+50     	; 0x4c3c <vfprintf+0xec>
    4c0a:	8a e0       	ldi	r24, 0x0A	; 10
    4c0c:	58 9e       	mul	r5, r24
    4c0e:	20 0d       	add	r18, r0
    4c10:	11 24       	eor	r1, r1
    4c12:	52 2e       	mov	r5, r18
    4c14:	e9 2d       	mov	r30, r9
    4c16:	e0 62       	ori	r30, 0x20	; 32
    4c18:	9e 2e       	mov	r9, r30
    4c1a:	10 c0       	rjmp	.+32     	; 0x4c3c <vfprintf+0xec>
    4c1c:	8e 32       	cpi	r24, 0x2E	; 46
    4c1e:	31 f4       	brne	.+12     	; 0x4c2c <vfprintf+0xdc>
    4c20:	96 fc       	sbrc	r9, 6
    4c22:	e5 c2       	rjmp	.+1482   	; 0x51ee <vfprintf+0x69e>
    4c24:	f9 2d       	mov	r31, r9
    4c26:	f0 64       	ori	r31, 0x40	; 64
    4c28:	9f 2e       	mov	r9, r31
    4c2a:	08 c0       	rjmp	.+16     	; 0x4c3c <vfprintf+0xec>
    4c2c:	8c 36       	cpi	r24, 0x6C	; 108
    4c2e:	21 f4       	brne	.+8      	; 0x4c38 <vfprintf+0xe8>
    4c30:	29 2d       	mov	r18, r9
    4c32:	20 68       	ori	r18, 0x80	; 128
    4c34:	92 2e       	mov	r9, r18
    4c36:	02 c0       	rjmp	.+4      	; 0x4c3c <vfprintf+0xec>
    4c38:	88 36       	cpi	r24, 0x68	; 104
    4c3a:	41 f4       	brne	.+16     	; 0x4c4c <vfprintf+0xfc>
    4c3c:	f1 01       	movw	r30, r2
    4c3e:	93 fd       	sbrc	r25, 3
    4c40:	85 91       	lpm	r24, Z+
    4c42:	93 ff       	sbrs	r25, 3
    4c44:	81 91       	ld	r24, Z+
    4c46:	1f 01       	movw	r2, r30
    4c48:	81 11       	cpse	r24, r1
    4c4a:	b3 cf       	rjmp	.-154    	; 0x4bb2 <vfprintf+0x62>
    4c4c:	9b eb       	ldi	r25, 0xBB	; 187
    4c4e:	98 0f       	add	r25, r24
    4c50:	93 30       	cpi	r25, 0x03	; 3
    4c52:	20 f4       	brcc	.+8      	; 0x4c5c <vfprintf+0x10c>
    4c54:	99 2d       	mov	r25, r9
    4c56:	90 61       	ori	r25, 0x10	; 16
    4c58:	80 5e       	subi	r24, 0xE0	; 224
    4c5a:	07 c0       	rjmp	.+14     	; 0x4c6a <vfprintf+0x11a>
    4c5c:	9b e9       	ldi	r25, 0x9B	; 155
    4c5e:	98 0f       	add	r25, r24
    4c60:	93 30       	cpi	r25, 0x03	; 3
    4c62:	08 f0       	brcs	.+2      	; 0x4c66 <vfprintf+0x116>
    4c64:	66 c1       	rjmp	.+716    	; 0x4f32 <vfprintf+0x3e2>
    4c66:	99 2d       	mov	r25, r9
    4c68:	9f 7e       	andi	r25, 0xEF	; 239
    4c6a:	96 ff       	sbrs	r25, 6
    4c6c:	16 e0       	ldi	r17, 0x06	; 6
    4c6e:	9f 73       	andi	r25, 0x3F	; 63
    4c70:	99 2e       	mov	r9, r25
    4c72:	85 36       	cpi	r24, 0x65	; 101
    4c74:	19 f4       	brne	.+6      	; 0x4c7c <vfprintf+0x12c>
    4c76:	90 64       	ori	r25, 0x40	; 64
    4c78:	99 2e       	mov	r9, r25
    4c7a:	08 c0       	rjmp	.+16     	; 0x4c8c <vfprintf+0x13c>
    4c7c:	86 36       	cpi	r24, 0x66	; 102
    4c7e:	21 f4       	brne	.+8      	; 0x4c88 <vfprintf+0x138>
    4c80:	39 2f       	mov	r19, r25
    4c82:	30 68       	ori	r19, 0x80	; 128
    4c84:	93 2e       	mov	r9, r19
    4c86:	02 c0       	rjmp	.+4      	; 0x4c8c <vfprintf+0x13c>
    4c88:	11 11       	cpse	r17, r1
    4c8a:	11 50       	subi	r17, 0x01	; 1
    4c8c:	97 fe       	sbrs	r9, 7
    4c8e:	07 c0       	rjmp	.+14     	; 0x4c9e <vfprintf+0x14e>
    4c90:	1c 33       	cpi	r17, 0x3C	; 60
    4c92:	50 f4       	brcc	.+20     	; 0x4ca8 <vfprintf+0x158>
    4c94:	44 24       	eor	r4, r4
    4c96:	43 94       	inc	r4
    4c98:	41 0e       	add	r4, r17
    4c9a:	27 e0       	ldi	r18, 0x07	; 7
    4c9c:	0b c0       	rjmp	.+22     	; 0x4cb4 <vfprintf+0x164>
    4c9e:	18 30       	cpi	r17, 0x08	; 8
    4ca0:	38 f0       	brcs	.+14     	; 0x4cb0 <vfprintf+0x160>
    4ca2:	27 e0       	ldi	r18, 0x07	; 7
    4ca4:	17 e0       	ldi	r17, 0x07	; 7
    4ca6:	05 c0       	rjmp	.+10     	; 0x4cb2 <vfprintf+0x162>
    4ca8:	27 e0       	ldi	r18, 0x07	; 7
    4caa:	9c e3       	ldi	r25, 0x3C	; 60
    4cac:	49 2e       	mov	r4, r25
    4cae:	02 c0       	rjmp	.+4      	; 0x4cb4 <vfprintf+0x164>
    4cb0:	21 2f       	mov	r18, r17
    4cb2:	41 2c       	mov	r4, r1
    4cb4:	56 01       	movw	r10, r12
    4cb6:	84 e0       	ldi	r24, 0x04	; 4
    4cb8:	a8 0e       	add	r10, r24
    4cba:	b1 1c       	adc	r11, r1
    4cbc:	f6 01       	movw	r30, r12
    4cbe:	60 81       	ld	r22, Z
    4cc0:	71 81       	ldd	r23, Z+1	; 0x01
    4cc2:	82 81       	ldd	r24, Z+2	; 0x02
    4cc4:	93 81       	ldd	r25, Z+3	; 0x03
    4cc6:	04 2d       	mov	r16, r4
    4cc8:	a3 01       	movw	r20, r6
    4cca:	0e 94 dd 2b 	call	0x57ba	; 0x57ba <__ftoa_engine>
    4cce:	6c 01       	movw	r12, r24
    4cd0:	f9 81       	ldd	r31, Y+1	; 0x01
    4cd2:	fc 87       	std	Y+12, r31	; 0x0c
    4cd4:	f0 ff       	sbrs	r31, 0
    4cd6:	02 c0       	rjmp	.+4      	; 0x4cdc <vfprintf+0x18c>
    4cd8:	f3 ff       	sbrs	r31, 3
    4cda:	06 c0       	rjmp	.+12     	; 0x4ce8 <vfprintf+0x198>
    4cdc:	91 fc       	sbrc	r9, 1
    4cde:	06 c0       	rjmp	.+12     	; 0x4cec <vfprintf+0x19c>
    4ce0:	92 fe       	sbrs	r9, 2
    4ce2:	06 c0       	rjmp	.+12     	; 0x4cf0 <vfprintf+0x1a0>
    4ce4:	00 e2       	ldi	r16, 0x20	; 32
    4ce6:	05 c0       	rjmp	.+10     	; 0x4cf2 <vfprintf+0x1a2>
    4ce8:	0d e2       	ldi	r16, 0x2D	; 45
    4cea:	03 c0       	rjmp	.+6      	; 0x4cf2 <vfprintf+0x1a2>
    4cec:	0b e2       	ldi	r16, 0x2B	; 43
    4cee:	01 c0       	rjmp	.+2      	; 0x4cf2 <vfprintf+0x1a2>
    4cf0:	00 e0       	ldi	r16, 0x00	; 0
    4cf2:	8c 85       	ldd	r24, Y+12	; 0x0c
    4cf4:	8c 70       	andi	r24, 0x0C	; 12
    4cf6:	19 f0       	breq	.+6      	; 0x4cfe <vfprintf+0x1ae>
    4cf8:	01 11       	cpse	r16, r1
    4cfa:	5a c2       	rjmp	.+1204   	; 0x51b0 <vfprintf+0x660>
    4cfc:	9b c2       	rjmp	.+1334   	; 0x5234 <vfprintf+0x6e4>
    4cfe:	97 fe       	sbrs	r9, 7
    4d00:	10 c0       	rjmp	.+32     	; 0x4d22 <vfprintf+0x1d2>
    4d02:	4c 0c       	add	r4, r12
    4d04:	fc 85       	ldd	r31, Y+12	; 0x0c
    4d06:	f4 ff       	sbrs	r31, 4
    4d08:	04 c0       	rjmp	.+8      	; 0x4d12 <vfprintf+0x1c2>
    4d0a:	8a 81       	ldd	r24, Y+2	; 0x02
    4d0c:	81 33       	cpi	r24, 0x31	; 49
    4d0e:	09 f4       	brne	.+2      	; 0x4d12 <vfprintf+0x1c2>
    4d10:	4a 94       	dec	r4
    4d12:	14 14       	cp	r1, r4
    4d14:	74 f5       	brge	.+92     	; 0x4d72 <vfprintf+0x222>
    4d16:	28 e0       	ldi	r18, 0x08	; 8
    4d18:	24 15       	cp	r18, r4
    4d1a:	78 f5       	brcc	.+94     	; 0x4d7a <vfprintf+0x22a>
    4d1c:	88 e0       	ldi	r24, 0x08	; 8
    4d1e:	48 2e       	mov	r4, r24
    4d20:	2c c0       	rjmp	.+88     	; 0x4d7a <vfprintf+0x22a>
    4d22:	96 fc       	sbrc	r9, 6
    4d24:	2a c0       	rjmp	.+84     	; 0x4d7a <vfprintf+0x22a>
    4d26:	81 2f       	mov	r24, r17
    4d28:	90 e0       	ldi	r25, 0x00	; 0
    4d2a:	8c 15       	cp	r24, r12
    4d2c:	9d 05       	cpc	r25, r13
    4d2e:	9c f0       	brlt	.+38     	; 0x4d56 <vfprintf+0x206>
    4d30:	3c ef       	ldi	r19, 0xFC	; 252
    4d32:	c3 16       	cp	r12, r19
    4d34:	3f ef       	ldi	r19, 0xFF	; 255
    4d36:	d3 06       	cpc	r13, r19
    4d38:	74 f0       	brlt	.+28     	; 0x4d56 <vfprintf+0x206>
    4d3a:	89 2d       	mov	r24, r9
    4d3c:	80 68       	ori	r24, 0x80	; 128
    4d3e:	98 2e       	mov	r9, r24
    4d40:	0a c0       	rjmp	.+20     	; 0x4d56 <vfprintf+0x206>
    4d42:	e2 e0       	ldi	r30, 0x02	; 2
    4d44:	f0 e0       	ldi	r31, 0x00	; 0
    4d46:	ec 0f       	add	r30, r28
    4d48:	fd 1f       	adc	r31, r29
    4d4a:	e1 0f       	add	r30, r17
    4d4c:	f1 1d       	adc	r31, r1
    4d4e:	80 81       	ld	r24, Z
    4d50:	80 33       	cpi	r24, 0x30	; 48
    4d52:	19 f4       	brne	.+6      	; 0x4d5a <vfprintf+0x20a>
    4d54:	11 50       	subi	r17, 0x01	; 1
    4d56:	11 11       	cpse	r17, r1
    4d58:	f4 cf       	rjmp	.-24     	; 0x4d42 <vfprintf+0x1f2>
    4d5a:	97 fe       	sbrs	r9, 7
    4d5c:	0e c0       	rjmp	.+28     	; 0x4d7a <vfprintf+0x22a>
    4d5e:	44 24       	eor	r4, r4
    4d60:	43 94       	inc	r4
    4d62:	41 0e       	add	r4, r17
    4d64:	81 2f       	mov	r24, r17
    4d66:	90 e0       	ldi	r25, 0x00	; 0
    4d68:	c8 16       	cp	r12, r24
    4d6a:	d9 06       	cpc	r13, r25
    4d6c:	2c f4       	brge	.+10     	; 0x4d78 <vfprintf+0x228>
    4d6e:	1c 19       	sub	r17, r12
    4d70:	04 c0       	rjmp	.+8      	; 0x4d7a <vfprintf+0x22a>
    4d72:	44 24       	eor	r4, r4
    4d74:	43 94       	inc	r4
    4d76:	01 c0       	rjmp	.+2      	; 0x4d7a <vfprintf+0x22a>
    4d78:	10 e0       	ldi	r17, 0x00	; 0
    4d7a:	97 fe       	sbrs	r9, 7
    4d7c:	06 c0       	rjmp	.+12     	; 0x4d8a <vfprintf+0x23a>
    4d7e:	1c 14       	cp	r1, r12
    4d80:	1d 04       	cpc	r1, r13
    4d82:	34 f4       	brge	.+12     	; 0x4d90 <vfprintf+0x240>
    4d84:	c6 01       	movw	r24, r12
    4d86:	01 96       	adiw	r24, 0x01	; 1
    4d88:	05 c0       	rjmp	.+10     	; 0x4d94 <vfprintf+0x244>
    4d8a:	85 e0       	ldi	r24, 0x05	; 5
    4d8c:	90 e0       	ldi	r25, 0x00	; 0
    4d8e:	02 c0       	rjmp	.+4      	; 0x4d94 <vfprintf+0x244>
    4d90:	81 e0       	ldi	r24, 0x01	; 1
    4d92:	90 e0       	ldi	r25, 0x00	; 0
    4d94:	01 11       	cpse	r16, r1
    4d96:	01 96       	adiw	r24, 0x01	; 1
    4d98:	11 23       	and	r17, r17
    4d9a:	31 f0       	breq	.+12     	; 0x4da8 <vfprintf+0x258>
    4d9c:	21 2f       	mov	r18, r17
    4d9e:	30 e0       	ldi	r19, 0x00	; 0
    4da0:	2f 5f       	subi	r18, 0xFF	; 255
    4da2:	3f 4f       	sbci	r19, 0xFF	; 255
    4da4:	82 0f       	add	r24, r18
    4da6:	93 1f       	adc	r25, r19
    4da8:	25 2d       	mov	r18, r5
    4daa:	30 e0       	ldi	r19, 0x00	; 0
    4dac:	82 17       	cp	r24, r18
    4dae:	93 07       	cpc	r25, r19
    4db0:	14 f4       	brge	.+4      	; 0x4db6 <vfprintf+0x266>
    4db2:	58 1a       	sub	r5, r24
    4db4:	01 c0       	rjmp	.+2      	; 0x4db8 <vfprintf+0x268>
    4db6:	51 2c       	mov	r5, r1
    4db8:	89 2d       	mov	r24, r9
    4dba:	89 70       	andi	r24, 0x09	; 9
    4dbc:	49 f4       	brne	.+18     	; 0x4dd0 <vfprintf+0x280>
    4dbe:	55 20       	and	r5, r5
    4dc0:	39 f0       	breq	.+14     	; 0x4dd0 <vfprintf+0x280>
    4dc2:	b7 01       	movw	r22, r14
    4dc4:	80 e2       	ldi	r24, 0x20	; 32
    4dc6:	90 e0       	ldi	r25, 0x00	; 0
    4dc8:	0e 94 20 2d 	call	0x5a40	; 0x5a40 <fputc>
    4dcc:	5a 94       	dec	r5
    4dce:	f7 cf       	rjmp	.-18     	; 0x4dbe <vfprintf+0x26e>
    4dd0:	00 23       	and	r16, r16
    4dd2:	29 f0       	breq	.+10     	; 0x4dde <vfprintf+0x28e>
    4dd4:	b7 01       	movw	r22, r14
    4dd6:	80 2f       	mov	r24, r16
    4dd8:	90 e0       	ldi	r25, 0x00	; 0
    4dda:	0e 94 20 2d 	call	0x5a40	; 0x5a40 <fputc>
    4dde:	93 fc       	sbrc	r9, 3
    4de0:	09 c0       	rjmp	.+18     	; 0x4df4 <vfprintf+0x2a4>
    4de2:	55 20       	and	r5, r5
    4de4:	39 f0       	breq	.+14     	; 0x4df4 <vfprintf+0x2a4>
    4de6:	b7 01       	movw	r22, r14
    4de8:	80 e3       	ldi	r24, 0x30	; 48
    4dea:	90 e0       	ldi	r25, 0x00	; 0
    4dec:	0e 94 20 2d 	call	0x5a40	; 0x5a40 <fputc>
    4df0:	5a 94       	dec	r5
    4df2:	f7 cf       	rjmp	.-18     	; 0x4de2 <vfprintf+0x292>
    4df4:	97 fe       	sbrs	r9, 7
    4df6:	4c c0       	rjmp	.+152    	; 0x4e90 <vfprintf+0x340>
    4df8:	46 01       	movw	r8, r12
    4dfa:	d7 fe       	sbrs	r13, 7
    4dfc:	02 c0       	rjmp	.+4      	; 0x4e02 <vfprintf+0x2b2>
    4dfe:	81 2c       	mov	r8, r1
    4e00:	91 2c       	mov	r9, r1
    4e02:	c6 01       	movw	r24, r12
    4e04:	88 19       	sub	r24, r8
    4e06:	99 09       	sbc	r25, r9
    4e08:	f3 01       	movw	r30, r6
    4e0a:	e8 0f       	add	r30, r24
    4e0c:	f9 1f       	adc	r31, r25
    4e0e:	fe 87       	std	Y+14, r31	; 0x0e
    4e10:	ed 87       	std	Y+13, r30	; 0x0d
    4e12:	96 01       	movw	r18, r12
    4e14:	24 19       	sub	r18, r4
    4e16:	31 09       	sbc	r19, r1
    4e18:	38 8b       	std	Y+16, r19	; 0x10
    4e1a:	2f 87       	std	Y+15, r18	; 0x0f
    4e1c:	01 2f       	mov	r16, r17
    4e1e:	10 e0       	ldi	r17, 0x00	; 0
    4e20:	11 95       	neg	r17
    4e22:	01 95       	neg	r16
    4e24:	11 09       	sbc	r17, r1
    4e26:	3f ef       	ldi	r19, 0xFF	; 255
    4e28:	83 16       	cp	r8, r19
    4e2a:	93 06       	cpc	r9, r19
    4e2c:	29 f4       	brne	.+10     	; 0x4e38 <vfprintf+0x2e8>
    4e2e:	b7 01       	movw	r22, r14
    4e30:	8e e2       	ldi	r24, 0x2E	; 46
    4e32:	90 e0       	ldi	r25, 0x00	; 0
    4e34:	0e 94 20 2d 	call	0x5a40	; 0x5a40 <fputc>
    4e38:	c8 14       	cp	r12, r8
    4e3a:	d9 04       	cpc	r13, r9
    4e3c:	4c f0       	brlt	.+18     	; 0x4e50 <vfprintf+0x300>
    4e3e:	8f 85       	ldd	r24, Y+15	; 0x0f
    4e40:	98 89       	ldd	r25, Y+16	; 0x10
    4e42:	88 15       	cp	r24, r8
    4e44:	99 05       	cpc	r25, r9
    4e46:	24 f4       	brge	.+8      	; 0x4e50 <vfprintf+0x300>
    4e48:	ed 85       	ldd	r30, Y+13	; 0x0d
    4e4a:	fe 85       	ldd	r31, Y+14	; 0x0e
    4e4c:	81 81       	ldd	r24, Z+1	; 0x01
    4e4e:	01 c0       	rjmp	.+2      	; 0x4e52 <vfprintf+0x302>
    4e50:	80 e3       	ldi	r24, 0x30	; 48
    4e52:	f1 e0       	ldi	r31, 0x01	; 1
    4e54:	8f 1a       	sub	r8, r31
    4e56:	91 08       	sbc	r9, r1
    4e58:	2d 85       	ldd	r18, Y+13	; 0x0d
    4e5a:	3e 85       	ldd	r19, Y+14	; 0x0e
    4e5c:	2f 5f       	subi	r18, 0xFF	; 255
    4e5e:	3f 4f       	sbci	r19, 0xFF	; 255
    4e60:	3e 87       	std	Y+14, r19	; 0x0e
    4e62:	2d 87       	std	Y+13, r18	; 0x0d
    4e64:	80 16       	cp	r8, r16
    4e66:	91 06       	cpc	r9, r17
    4e68:	2c f0       	brlt	.+10     	; 0x4e74 <vfprintf+0x324>
    4e6a:	b7 01       	movw	r22, r14
    4e6c:	90 e0       	ldi	r25, 0x00	; 0
    4e6e:	0e 94 20 2d 	call	0x5a40	; 0x5a40 <fputc>
    4e72:	d9 cf       	rjmp	.-78     	; 0x4e26 <vfprintf+0x2d6>
    4e74:	c8 14       	cp	r12, r8
    4e76:	d9 04       	cpc	r13, r9
    4e78:	41 f4       	brne	.+16     	; 0x4e8a <vfprintf+0x33a>
    4e7a:	9a 81       	ldd	r25, Y+2	; 0x02
    4e7c:	96 33       	cpi	r25, 0x36	; 54
    4e7e:	20 f4       	brcc	.+8      	; 0x4e88 <vfprintf+0x338>
    4e80:	95 33       	cpi	r25, 0x35	; 53
    4e82:	19 f4       	brne	.+6      	; 0x4e8a <vfprintf+0x33a>
    4e84:	3c 85       	ldd	r19, Y+12	; 0x0c
    4e86:	34 ff       	sbrs	r19, 4
    4e88:	81 e3       	ldi	r24, 0x31	; 49
    4e8a:	b7 01       	movw	r22, r14
    4e8c:	90 e0       	ldi	r25, 0x00	; 0
    4e8e:	4e c0       	rjmp	.+156    	; 0x4f2c <vfprintf+0x3dc>
    4e90:	8a 81       	ldd	r24, Y+2	; 0x02
    4e92:	81 33       	cpi	r24, 0x31	; 49
    4e94:	19 f0       	breq	.+6      	; 0x4e9c <vfprintf+0x34c>
    4e96:	9c 85       	ldd	r25, Y+12	; 0x0c
    4e98:	9f 7e       	andi	r25, 0xEF	; 239
    4e9a:	9c 87       	std	Y+12, r25	; 0x0c
    4e9c:	b7 01       	movw	r22, r14
    4e9e:	90 e0       	ldi	r25, 0x00	; 0
    4ea0:	0e 94 20 2d 	call	0x5a40	; 0x5a40 <fputc>
    4ea4:	11 11       	cpse	r17, r1
    4ea6:	05 c0       	rjmp	.+10     	; 0x4eb2 <vfprintf+0x362>
    4ea8:	94 fc       	sbrc	r9, 4
    4eaa:	18 c0       	rjmp	.+48     	; 0x4edc <vfprintf+0x38c>
    4eac:	85 e6       	ldi	r24, 0x65	; 101
    4eae:	90 e0       	ldi	r25, 0x00	; 0
    4eb0:	17 c0       	rjmp	.+46     	; 0x4ee0 <vfprintf+0x390>
    4eb2:	b7 01       	movw	r22, r14
    4eb4:	8e e2       	ldi	r24, 0x2E	; 46
    4eb6:	90 e0       	ldi	r25, 0x00	; 0
    4eb8:	0e 94 20 2d 	call	0x5a40	; 0x5a40 <fputc>
    4ebc:	1e 5f       	subi	r17, 0xFE	; 254
    4ebe:	82 e0       	ldi	r24, 0x02	; 2
    4ec0:	01 e0       	ldi	r16, 0x01	; 1
    4ec2:	08 0f       	add	r16, r24
    4ec4:	f3 01       	movw	r30, r6
    4ec6:	e8 0f       	add	r30, r24
    4ec8:	f1 1d       	adc	r31, r1
    4eca:	80 81       	ld	r24, Z
    4ecc:	b7 01       	movw	r22, r14
    4ece:	90 e0       	ldi	r25, 0x00	; 0
    4ed0:	0e 94 20 2d 	call	0x5a40	; 0x5a40 <fputc>
    4ed4:	80 2f       	mov	r24, r16
    4ed6:	01 13       	cpse	r16, r17
    4ed8:	f3 cf       	rjmp	.-26     	; 0x4ec0 <vfprintf+0x370>
    4eda:	e6 cf       	rjmp	.-52     	; 0x4ea8 <vfprintf+0x358>
    4edc:	85 e4       	ldi	r24, 0x45	; 69
    4ede:	90 e0       	ldi	r25, 0x00	; 0
    4ee0:	b7 01       	movw	r22, r14
    4ee2:	0e 94 20 2d 	call	0x5a40	; 0x5a40 <fputc>
    4ee6:	d7 fc       	sbrc	r13, 7
    4ee8:	06 c0       	rjmp	.+12     	; 0x4ef6 <vfprintf+0x3a6>
    4eea:	c1 14       	cp	r12, r1
    4eec:	d1 04       	cpc	r13, r1
    4eee:	41 f4       	brne	.+16     	; 0x4f00 <vfprintf+0x3b0>
    4ef0:	ec 85       	ldd	r30, Y+12	; 0x0c
    4ef2:	e4 ff       	sbrs	r30, 4
    4ef4:	05 c0       	rjmp	.+10     	; 0x4f00 <vfprintf+0x3b0>
    4ef6:	d1 94       	neg	r13
    4ef8:	c1 94       	neg	r12
    4efa:	d1 08       	sbc	r13, r1
    4efc:	8d e2       	ldi	r24, 0x2D	; 45
    4efe:	01 c0       	rjmp	.+2      	; 0x4f02 <vfprintf+0x3b2>
    4f00:	8b e2       	ldi	r24, 0x2B	; 43
    4f02:	b7 01       	movw	r22, r14
    4f04:	90 e0       	ldi	r25, 0x00	; 0
    4f06:	0e 94 20 2d 	call	0x5a40	; 0x5a40 <fputc>
    4f0a:	80 e3       	ldi	r24, 0x30	; 48
    4f0c:	2a e0       	ldi	r18, 0x0A	; 10
    4f0e:	c2 16       	cp	r12, r18
    4f10:	d1 04       	cpc	r13, r1
    4f12:	2c f0       	brlt	.+10     	; 0x4f1e <vfprintf+0x3ce>
    4f14:	8f 5f       	subi	r24, 0xFF	; 255
    4f16:	fa e0       	ldi	r31, 0x0A	; 10
    4f18:	cf 1a       	sub	r12, r31
    4f1a:	d1 08       	sbc	r13, r1
    4f1c:	f7 cf       	rjmp	.-18     	; 0x4f0c <vfprintf+0x3bc>
    4f1e:	b7 01       	movw	r22, r14
    4f20:	90 e0       	ldi	r25, 0x00	; 0
    4f22:	0e 94 20 2d 	call	0x5a40	; 0x5a40 <fputc>
    4f26:	b7 01       	movw	r22, r14
    4f28:	c6 01       	movw	r24, r12
    4f2a:	c0 96       	adiw	r24, 0x30	; 48
    4f2c:	0e 94 20 2d 	call	0x5a40	; 0x5a40 <fputc>
    4f30:	54 c1       	rjmp	.+680    	; 0x51da <vfprintf+0x68a>
    4f32:	83 36       	cpi	r24, 0x63	; 99
    4f34:	31 f0       	breq	.+12     	; 0x4f42 <vfprintf+0x3f2>
    4f36:	83 37       	cpi	r24, 0x73	; 115
    4f38:	79 f0       	breq	.+30     	; 0x4f58 <vfprintf+0x408>
    4f3a:	83 35       	cpi	r24, 0x53	; 83
    4f3c:	09 f0       	breq	.+2      	; 0x4f40 <vfprintf+0x3f0>
    4f3e:	56 c0       	rjmp	.+172    	; 0x4fec <vfprintf+0x49c>
    4f40:	20 c0       	rjmp	.+64     	; 0x4f82 <vfprintf+0x432>
    4f42:	56 01       	movw	r10, r12
    4f44:	32 e0       	ldi	r19, 0x02	; 2
    4f46:	a3 0e       	add	r10, r19
    4f48:	b1 1c       	adc	r11, r1
    4f4a:	f6 01       	movw	r30, r12
    4f4c:	80 81       	ld	r24, Z
    4f4e:	89 83       	std	Y+1, r24	; 0x01
    4f50:	01 e0       	ldi	r16, 0x01	; 1
    4f52:	10 e0       	ldi	r17, 0x00	; 0
    4f54:	63 01       	movw	r12, r6
    4f56:	12 c0       	rjmp	.+36     	; 0x4f7c <vfprintf+0x42c>
    4f58:	56 01       	movw	r10, r12
    4f5a:	f2 e0       	ldi	r31, 0x02	; 2
    4f5c:	af 0e       	add	r10, r31
    4f5e:	b1 1c       	adc	r11, r1
    4f60:	f6 01       	movw	r30, r12
    4f62:	c0 80       	ld	r12, Z
    4f64:	d1 80       	ldd	r13, Z+1	; 0x01
    4f66:	96 fe       	sbrs	r9, 6
    4f68:	03 c0       	rjmp	.+6      	; 0x4f70 <vfprintf+0x420>
    4f6a:	61 2f       	mov	r22, r17
    4f6c:	70 e0       	ldi	r23, 0x00	; 0
    4f6e:	02 c0       	rjmp	.+4      	; 0x4f74 <vfprintf+0x424>
    4f70:	6f ef       	ldi	r22, 0xFF	; 255
    4f72:	7f ef       	ldi	r23, 0xFF	; 255
    4f74:	c6 01       	movw	r24, r12
    4f76:	0e 94 0d 2d 	call	0x5a1a	; 0x5a1a <strnlen>
    4f7a:	8c 01       	movw	r16, r24
    4f7c:	f9 2d       	mov	r31, r9
    4f7e:	ff 77       	andi	r31, 0x7F	; 127
    4f80:	14 c0       	rjmp	.+40     	; 0x4faa <vfprintf+0x45a>
    4f82:	56 01       	movw	r10, r12
    4f84:	22 e0       	ldi	r18, 0x02	; 2
    4f86:	a2 0e       	add	r10, r18
    4f88:	b1 1c       	adc	r11, r1
    4f8a:	f6 01       	movw	r30, r12
    4f8c:	c0 80       	ld	r12, Z
    4f8e:	d1 80       	ldd	r13, Z+1	; 0x01
    4f90:	96 fe       	sbrs	r9, 6
    4f92:	03 c0       	rjmp	.+6      	; 0x4f9a <vfprintf+0x44a>
    4f94:	61 2f       	mov	r22, r17
    4f96:	70 e0       	ldi	r23, 0x00	; 0
    4f98:	02 c0       	rjmp	.+4      	; 0x4f9e <vfprintf+0x44e>
    4f9a:	6f ef       	ldi	r22, 0xFF	; 255
    4f9c:	7f ef       	ldi	r23, 0xFF	; 255
    4f9e:	c6 01       	movw	r24, r12
    4fa0:	0e 94 de 2c 	call	0x59bc	; 0x59bc <strnlen_P>
    4fa4:	8c 01       	movw	r16, r24
    4fa6:	f9 2d       	mov	r31, r9
    4fa8:	f0 68       	ori	r31, 0x80	; 128
    4faa:	9f 2e       	mov	r9, r31
    4fac:	f3 fd       	sbrc	r31, 3
    4fae:	1a c0       	rjmp	.+52     	; 0x4fe4 <vfprintf+0x494>
    4fb0:	85 2d       	mov	r24, r5
    4fb2:	90 e0       	ldi	r25, 0x00	; 0
    4fb4:	08 17       	cp	r16, r24
    4fb6:	19 07       	cpc	r17, r25
    4fb8:	a8 f4       	brcc	.+42     	; 0x4fe4 <vfprintf+0x494>
    4fba:	b7 01       	movw	r22, r14
    4fbc:	80 e2       	ldi	r24, 0x20	; 32
    4fbe:	90 e0       	ldi	r25, 0x00	; 0
    4fc0:	0e 94 20 2d 	call	0x5a40	; 0x5a40 <fputc>
    4fc4:	5a 94       	dec	r5
    4fc6:	f4 cf       	rjmp	.-24     	; 0x4fb0 <vfprintf+0x460>
    4fc8:	f6 01       	movw	r30, r12
    4fca:	97 fc       	sbrc	r9, 7
    4fcc:	85 91       	lpm	r24, Z+
    4fce:	97 fe       	sbrs	r9, 7
    4fd0:	81 91       	ld	r24, Z+
    4fd2:	6f 01       	movw	r12, r30
    4fd4:	b7 01       	movw	r22, r14
    4fd6:	90 e0       	ldi	r25, 0x00	; 0
    4fd8:	0e 94 20 2d 	call	0x5a40	; 0x5a40 <fputc>
    4fdc:	51 10       	cpse	r5, r1
    4fde:	5a 94       	dec	r5
    4fe0:	01 50       	subi	r16, 0x01	; 1
    4fe2:	11 09       	sbc	r17, r1
    4fe4:	01 15       	cp	r16, r1
    4fe6:	11 05       	cpc	r17, r1
    4fe8:	79 f7       	brne	.-34     	; 0x4fc8 <vfprintf+0x478>
    4fea:	f7 c0       	rjmp	.+494    	; 0x51da <vfprintf+0x68a>
    4fec:	84 36       	cpi	r24, 0x64	; 100
    4fee:	11 f0       	breq	.+4      	; 0x4ff4 <vfprintf+0x4a4>
    4ff0:	89 36       	cpi	r24, 0x69	; 105
    4ff2:	61 f5       	brne	.+88     	; 0x504c <vfprintf+0x4fc>
    4ff4:	56 01       	movw	r10, r12
    4ff6:	97 fe       	sbrs	r9, 7
    4ff8:	09 c0       	rjmp	.+18     	; 0x500c <vfprintf+0x4bc>
    4ffa:	24 e0       	ldi	r18, 0x04	; 4
    4ffc:	a2 0e       	add	r10, r18
    4ffe:	b1 1c       	adc	r11, r1
    5000:	f6 01       	movw	r30, r12
    5002:	60 81       	ld	r22, Z
    5004:	71 81       	ldd	r23, Z+1	; 0x01
    5006:	82 81       	ldd	r24, Z+2	; 0x02
    5008:	93 81       	ldd	r25, Z+3	; 0x03
    500a:	0a c0       	rjmp	.+20     	; 0x5020 <vfprintf+0x4d0>
    500c:	f2 e0       	ldi	r31, 0x02	; 2
    500e:	af 0e       	add	r10, r31
    5010:	b1 1c       	adc	r11, r1
    5012:	f6 01       	movw	r30, r12
    5014:	60 81       	ld	r22, Z
    5016:	71 81       	ldd	r23, Z+1	; 0x01
    5018:	07 2e       	mov	r0, r23
    501a:	00 0c       	add	r0, r0
    501c:	88 0b       	sbc	r24, r24
    501e:	99 0b       	sbc	r25, r25
    5020:	f9 2d       	mov	r31, r9
    5022:	ff 76       	andi	r31, 0x6F	; 111
    5024:	9f 2e       	mov	r9, r31
    5026:	97 ff       	sbrs	r25, 7
    5028:	09 c0       	rjmp	.+18     	; 0x503c <vfprintf+0x4ec>
    502a:	90 95       	com	r25
    502c:	80 95       	com	r24
    502e:	70 95       	com	r23
    5030:	61 95       	neg	r22
    5032:	7f 4f       	sbci	r23, 0xFF	; 255
    5034:	8f 4f       	sbci	r24, 0xFF	; 255
    5036:	9f 4f       	sbci	r25, 0xFF	; 255
    5038:	f0 68       	ori	r31, 0x80	; 128
    503a:	9f 2e       	mov	r9, r31
    503c:	2a e0       	ldi	r18, 0x0A	; 10
    503e:	30 e0       	ldi	r19, 0x00	; 0
    5040:	a3 01       	movw	r20, r6
    5042:	0e 94 7e 2d 	call	0x5afc	; 0x5afc <__ultoa_invert>
    5046:	c8 2e       	mov	r12, r24
    5048:	c6 18       	sub	r12, r6
    504a:	3f c0       	rjmp	.+126    	; 0x50ca <vfprintf+0x57a>
    504c:	09 2d       	mov	r16, r9
    504e:	85 37       	cpi	r24, 0x75	; 117
    5050:	21 f4       	brne	.+8      	; 0x505a <vfprintf+0x50a>
    5052:	0f 7e       	andi	r16, 0xEF	; 239
    5054:	2a e0       	ldi	r18, 0x0A	; 10
    5056:	30 e0       	ldi	r19, 0x00	; 0
    5058:	1d c0       	rjmp	.+58     	; 0x5094 <vfprintf+0x544>
    505a:	09 7f       	andi	r16, 0xF9	; 249
    505c:	8f 36       	cpi	r24, 0x6F	; 111
    505e:	91 f0       	breq	.+36     	; 0x5084 <vfprintf+0x534>
    5060:	18 f4       	brcc	.+6      	; 0x5068 <vfprintf+0x518>
    5062:	88 35       	cpi	r24, 0x58	; 88
    5064:	59 f0       	breq	.+22     	; 0x507c <vfprintf+0x52c>
    5066:	c3 c0       	rjmp	.+390    	; 0x51ee <vfprintf+0x69e>
    5068:	80 37       	cpi	r24, 0x70	; 112
    506a:	19 f0       	breq	.+6      	; 0x5072 <vfprintf+0x522>
    506c:	88 37       	cpi	r24, 0x78	; 120
    506e:	11 f0       	breq	.+4      	; 0x5074 <vfprintf+0x524>
    5070:	be c0       	rjmp	.+380    	; 0x51ee <vfprintf+0x69e>
    5072:	00 61       	ori	r16, 0x10	; 16
    5074:	04 ff       	sbrs	r16, 4
    5076:	09 c0       	rjmp	.+18     	; 0x508a <vfprintf+0x53a>
    5078:	04 60       	ori	r16, 0x04	; 4
    507a:	07 c0       	rjmp	.+14     	; 0x508a <vfprintf+0x53a>
    507c:	94 fe       	sbrs	r9, 4
    507e:	08 c0       	rjmp	.+16     	; 0x5090 <vfprintf+0x540>
    5080:	06 60       	ori	r16, 0x06	; 6
    5082:	06 c0       	rjmp	.+12     	; 0x5090 <vfprintf+0x540>
    5084:	28 e0       	ldi	r18, 0x08	; 8
    5086:	30 e0       	ldi	r19, 0x00	; 0
    5088:	05 c0       	rjmp	.+10     	; 0x5094 <vfprintf+0x544>
    508a:	20 e1       	ldi	r18, 0x10	; 16
    508c:	30 e0       	ldi	r19, 0x00	; 0
    508e:	02 c0       	rjmp	.+4      	; 0x5094 <vfprintf+0x544>
    5090:	20 e1       	ldi	r18, 0x10	; 16
    5092:	32 e0       	ldi	r19, 0x02	; 2
    5094:	56 01       	movw	r10, r12
    5096:	07 ff       	sbrs	r16, 7
    5098:	09 c0       	rjmp	.+18     	; 0x50ac <vfprintf+0x55c>
    509a:	84 e0       	ldi	r24, 0x04	; 4
    509c:	a8 0e       	add	r10, r24
    509e:	b1 1c       	adc	r11, r1
    50a0:	f6 01       	movw	r30, r12
    50a2:	60 81       	ld	r22, Z
    50a4:	71 81       	ldd	r23, Z+1	; 0x01
    50a6:	82 81       	ldd	r24, Z+2	; 0x02
    50a8:	93 81       	ldd	r25, Z+3	; 0x03
    50aa:	08 c0       	rjmp	.+16     	; 0x50bc <vfprintf+0x56c>
    50ac:	f2 e0       	ldi	r31, 0x02	; 2
    50ae:	af 0e       	add	r10, r31
    50b0:	b1 1c       	adc	r11, r1
    50b2:	f6 01       	movw	r30, r12
    50b4:	60 81       	ld	r22, Z
    50b6:	71 81       	ldd	r23, Z+1	; 0x01
    50b8:	80 e0       	ldi	r24, 0x00	; 0
    50ba:	90 e0       	ldi	r25, 0x00	; 0
    50bc:	a3 01       	movw	r20, r6
    50be:	0e 94 7e 2d 	call	0x5afc	; 0x5afc <__ultoa_invert>
    50c2:	c8 2e       	mov	r12, r24
    50c4:	c6 18       	sub	r12, r6
    50c6:	0f 77       	andi	r16, 0x7F	; 127
    50c8:	90 2e       	mov	r9, r16
    50ca:	96 fe       	sbrs	r9, 6
    50cc:	0b c0       	rjmp	.+22     	; 0x50e4 <vfprintf+0x594>
    50ce:	09 2d       	mov	r16, r9
    50d0:	0e 7f       	andi	r16, 0xFE	; 254
    50d2:	c1 16       	cp	r12, r17
    50d4:	50 f4       	brcc	.+20     	; 0x50ea <vfprintf+0x59a>
    50d6:	94 fe       	sbrs	r9, 4
    50d8:	0a c0       	rjmp	.+20     	; 0x50ee <vfprintf+0x59e>
    50da:	92 fc       	sbrc	r9, 2
    50dc:	08 c0       	rjmp	.+16     	; 0x50ee <vfprintf+0x59e>
    50de:	09 2d       	mov	r16, r9
    50e0:	0e 7e       	andi	r16, 0xEE	; 238
    50e2:	05 c0       	rjmp	.+10     	; 0x50ee <vfprintf+0x59e>
    50e4:	dc 2c       	mov	r13, r12
    50e6:	09 2d       	mov	r16, r9
    50e8:	03 c0       	rjmp	.+6      	; 0x50f0 <vfprintf+0x5a0>
    50ea:	dc 2c       	mov	r13, r12
    50ec:	01 c0       	rjmp	.+2      	; 0x50f0 <vfprintf+0x5a0>
    50ee:	d1 2e       	mov	r13, r17
    50f0:	04 ff       	sbrs	r16, 4
    50f2:	0d c0       	rjmp	.+26     	; 0x510e <vfprintf+0x5be>
    50f4:	fe 01       	movw	r30, r28
    50f6:	ec 0d       	add	r30, r12
    50f8:	f1 1d       	adc	r31, r1
    50fa:	80 81       	ld	r24, Z
    50fc:	80 33       	cpi	r24, 0x30	; 48
    50fe:	11 f4       	brne	.+4      	; 0x5104 <vfprintf+0x5b4>
    5100:	09 7e       	andi	r16, 0xE9	; 233
    5102:	09 c0       	rjmp	.+18     	; 0x5116 <vfprintf+0x5c6>
    5104:	02 ff       	sbrs	r16, 2
    5106:	06 c0       	rjmp	.+12     	; 0x5114 <vfprintf+0x5c4>
    5108:	d3 94       	inc	r13
    510a:	d3 94       	inc	r13
    510c:	04 c0       	rjmp	.+8      	; 0x5116 <vfprintf+0x5c6>
    510e:	80 2f       	mov	r24, r16
    5110:	86 78       	andi	r24, 0x86	; 134
    5112:	09 f0       	breq	.+2      	; 0x5116 <vfprintf+0x5c6>
    5114:	d3 94       	inc	r13
    5116:	03 fd       	sbrc	r16, 3
    5118:	11 c0       	rjmp	.+34     	; 0x513c <vfprintf+0x5ec>
    511a:	00 ff       	sbrs	r16, 0
    511c:	06 c0       	rjmp	.+12     	; 0x512a <vfprintf+0x5da>
    511e:	1c 2d       	mov	r17, r12
    5120:	d5 14       	cp	r13, r5
    5122:	80 f4       	brcc	.+32     	; 0x5144 <vfprintf+0x5f4>
    5124:	15 0d       	add	r17, r5
    5126:	1d 19       	sub	r17, r13
    5128:	0d c0       	rjmp	.+26     	; 0x5144 <vfprintf+0x5f4>
    512a:	d5 14       	cp	r13, r5
    512c:	58 f4       	brcc	.+22     	; 0x5144 <vfprintf+0x5f4>
    512e:	b7 01       	movw	r22, r14
    5130:	80 e2       	ldi	r24, 0x20	; 32
    5132:	90 e0       	ldi	r25, 0x00	; 0
    5134:	0e 94 20 2d 	call	0x5a40	; 0x5a40 <fputc>
    5138:	d3 94       	inc	r13
    513a:	f7 cf       	rjmp	.-18     	; 0x512a <vfprintf+0x5da>
    513c:	d5 14       	cp	r13, r5
    513e:	10 f4       	brcc	.+4      	; 0x5144 <vfprintf+0x5f4>
    5140:	5d 18       	sub	r5, r13
    5142:	01 c0       	rjmp	.+2      	; 0x5146 <vfprintf+0x5f6>
    5144:	51 2c       	mov	r5, r1
    5146:	04 ff       	sbrs	r16, 4
    5148:	10 c0       	rjmp	.+32     	; 0x516a <vfprintf+0x61a>
    514a:	b7 01       	movw	r22, r14
    514c:	80 e3       	ldi	r24, 0x30	; 48
    514e:	90 e0       	ldi	r25, 0x00	; 0
    5150:	0e 94 20 2d 	call	0x5a40	; 0x5a40 <fputc>
    5154:	02 ff       	sbrs	r16, 2
    5156:	17 c0       	rjmp	.+46     	; 0x5186 <vfprintf+0x636>
    5158:	01 fd       	sbrc	r16, 1
    515a:	03 c0       	rjmp	.+6      	; 0x5162 <vfprintf+0x612>
    515c:	88 e7       	ldi	r24, 0x78	; 120
    515e:	90 e0       	ldi	r25, 0x00	; 0
    5160:	02 c0       	rjmp	.+4      	; 0x5166 <vfprintf+0x616>
    5162:	88 e5       	ldi	r24, 0x58	; 88
    5164:	90 e0       	ldi	r25, 0x00	; 0
    5166:	b7 01       	movw	r22, r14
    5168:	0c c0       	rjmp	.+24     	; 0x5182 <vfprintf+0x632>
    516a:	80 2f       	mov	r24, r16
    516c:	86 78       	andi	r24, 0x86	; 134
    516e:	59 f0       	breq	.+22     	; 0x5186 <vfprintf+0x636>
    5170:	01 ff       	sbrs	r16, 1
    5172:	02 c0       	rjmp	.+4      	; 0x5178 <vfprintf+0x628>
    5174:	8b e2       	ldi	r24, 0x2B	; 43
    5176:	01 c0       	rjmp	.+2      	; 0x517a <vfprintf+0x62a>
    5178:	80 e2       	ldi	r24, 0x20	; 32
    517a:	07 fd       	sbrc	r16, 7
    517c:	8d e2       	ldi	r24, 0x2D	; 45
    517e:	b7 01       	movw	r22, r14
    5180:	90 e0       	ldi	r25, 0x00	; 0
    5182:	0e 94 20 2d 	call	0x5a40	; 0x5a40 <fputc>
    5186:	c1 16       	cp	r12, r17
    5188:	38 f4       	brcc	.+14     	; 0x5198 <vfprintf+0x648>
    518a:	b7 01       	movw	r22, r14
    518c:	80 e3       	ldi	r24, 0x30	; 48
    518e:	90 e0       	ldi	r25, 0x00	; 0
    5190:	0e 94 20 2d 	call	0x5a40	; 0x5a40 <fputc>
    5194:	11 50       	subi	r17, 0x01	; 1
    5196:	f7 cf       	rjmp	.-18     	; 0x5186 <vfprintf+0x636>
    5198:	ca 94       	dec	r12
    519a:	f3 01       	movw	r30, r6
    519c:	ec 0d       	add	r30, r12
    519e:	f1 1d       	adc	r31, r1
    51a0:	80 81       	ld	r24, Z
    51a2:	b7 01       	movw	r22, r14
    51a4:	90 e0       	ldi	r25, 0x00	; 0
    51a6:	0e 94 20 2d 	call	0x5a40	; 0x5a40 <fputc>
    51aa:	c1 10       	cpse	r12, r1
    51ac:	f5 cf       	rjmp	.-22     	; 0x5198 <vfprintf+0x648>
    51ae:	15 c0       	rjmp	.+42     	; 0x51da <vfprintf+0x68a>
    51b0:	f4 e0       	ldi	r31, 0x04	; 4
    51b2:	f5 15       	cp	r31, r5
    51b4:	60 f5       	brcc	.+88     	; 0x520e <vfprintf+0x6be>
    51b6:	84 e0       	ldi	r24, 0x04	; 4
    51b8:	58 1a       	sub	r5, r24
    51ba:	93 fe       	sbrs	r9, 3
    51bc:	1f c0       	rjmp	.+62     	; 0x51fc <vfprintf+0x6ac>
    51be:	01 11       	cpse	r16, r1
    51c0:	27 c0       	rjmp	.+78     	; 0x5210 <vfprintf+0x6c0>
    51c2:	2c 85       	ldd	r18, Y+12	; 0x0c
    51c4:	23 ff       	sbrs	r18, 3
    51c6:	2a c0       	rjmp	.+84     	; 0x521c <vfprintf+0x6cc>
    51c8:	04 e5       	ldi	r16, 0x54	; 84
    51ca:	10 e0       	ldi	r17, 0x00	; 0
    51cc:	39 2d       	mov	r19, r9
    51ce:	30 71       	andi	r19, 0x10	; 16
    51d0:	93 2e       	mov	r9, r19
    51d2:	f8 01       	movw	r30, r16
    51d4:	84 91       	lpm	r24, Z
    51d6:	81 11       	cpse	r24, r1
    51d8:	24 c0       	rjmp	.+72     	; 0x5222 <vfprintf+0x6d2>
    51da:	55 20       	and	r5, r5
    51dc:	09 f4       	brne	.+2      	; 0x51e0 <vfprintf+0x690>
    51de:	e4 cc       	rjmp	.-1592   	; 0x4ba8 <vfprintf+0x58>
    51e0:	b7 01       	movw	r22, r14
    51e2:	80 e2       	ldi	r24, 0x20	; 32
    51e4:	90 e0       	ldi	r25, 0x00	; 0
    51e6:	0e 94 20 2d 	call	0x5a40	; 0x5a40 <fputc>
    51ea:	5a 94       	dec	r5
    51ec:	f6 cf       	rjmp	.-20     	; 0x51da <vfprintf+0x68a>
    51ee:	f7 01       	movw	r30, r14
    51f0:	86 81       	ldd	r24, Z+6	; 0x06
    51f2:	97 81       	ldd	r25, Z+7	; 0x07
    51f4:	26 c0       	rjmp	.+76     	; 0x5242 <vfprintf+0x6f2>
    51f6:	8f ef       	ldi	r24, 0xFF	; 255
    51f8:	9f ef       	ldi	r25, 0xFF	; 255
    51fa:	23 c0       	rjmp	.+70     	; 0x5242 <vfprintf+0x6f2>
    51fc:	b7 01       	movw	r22, r14
    51fe:	80 e2       	ldi	r24, 0x20	; 32
    5200:	90 e0       	ldi	r25, 0x00	; 0
    5202:	0e 94 20 2d 	call	0x5a40	; 0x5a40 <fputc>
    5206:	5a 94       	dec	r5
    5208:	51 10       	cpse	r5, r1
    520a:	f8 cf       	rjmp	.-16     	; 0x51fc <vfprintf+0x6ac>
    520c:	d8 cf       	rjmp	.-80     	; 0x51be <vfprintf+0x66e>
    520e:	51 2c       	mov	r5, r1
    5210:	b7 01       	movw	r22, r14
    5212:	80 2f       	mov	r24, r16
    5214:	90 e0       	ldi	r25, 0x00	; 0
    5216:	0e 94 20 2d 	call	0x5a40	; 0x5a40 <fputc>
    521a:	d3 cf       	rjmp	.-90     	; 0x51c2 <vfprintf+0x672>
    521c:	08 e5       	ldi	r16, 0x58	; 88
    521e:	10 e0       	ldi	r17, 0x00	; 0
    5220:	d5 cf       	rjmp	.-86     	; 0x51cc <vfprintf+0x67c>
    5222:	91 10       	cpse	r9, r1
    5224:	80 52       	subi	r24, 0x20	; 32
    5226:	b7 01       	movw	r22, r14
    5228:	90 e0       	ldi	r25, 0x00	; 0
    522a:	0e 94 20 2d 	call	0x5a40	; 0x5a40 <fputc>
    522e:	0f 5f       	subi	r16, 0xFF	; 255
    5230:	1f 4f       	sbci	r17, 0xFF	; 255
    5232:	cf cf       	rjmp	.-98     	; 0x51d2 <vfprintf+0x682>
    5234:	23 e0       	ldi	r18, 0x03	; 3
    5236:	25 15       	cp	r18, r5
    5238:	10 f4       	brcc	.+4      	; 0x523e <vfprintf+0x6ee>
    523a:	83 e0       	ldi	r24, 0x03	; 3
    523c:	bd cf       	rjmp	.-134    	; 0x51b8 <vfprintf+0x668>
    523e:	51 2c       	mov	r5, r1
    5240:	c0 cf       	rjmp	.-128    	; 0x51c2 <vfprintf+0x672>
    5242:	60 96       	adiw	r28, 0x10	; 16
    5244:	e2 e1       	ldi	r30, 0x12	; 18
    5246:	0c 94 55 29 	jmp	0x52aa	; 0x52aa <__epilogue_restores__>

0000524a <__divmodhi4>:
    524a:	97 fb       	bst	r25, 7
    524c:	07 2e       	mov	r0, r23
    524e:	16 f4       	brtc	.+4      	; 0x5254 <__divmodhi4+0xa>
    5250:	00 94       	com	r0
    5252:	07 d0       	rcall	.+14     	; 0x5262 <__divmodhi4_neg1>
    5254:	77 fd       	sbrc	r23, 7
    5256:	09 d0       	rcall	.+18     	; 0x526a <__divmodhi4_neg2>
    5258:	0e 94 70 29 	call	0x52e0	; 0x52e0 <__udivmodhi4>
    525c:	07 fc       	sbrc	r0, 7
    525e:	05 d0       	rcall	.+10     	; 0x526a <__divmodhi4_neg2>
    5260:	3e f4       	brtc	.+14     	; 0x5270 <__divmodhi4_exit>

00005262 <__divmodhi4_neg1>:
    5262:	90 95       	com	r25
    5264:	81 95       	neg	r24
    5266:	9f 4f       	sbci	r25, 0xFF	; 255
    5268:	08 95       	ret

0000526a <__divmodhi4_neg2>:
    526a:	70 95       	com	r23
    526c:	61 95       	neg	r22
    526e:	7f 4f       	sbci	r23, 0xFF	; 255

00005270 <__divmodhi4_exit>:
    5270:	08 95       	ret

00005272 <__prologue_saves__>:
    5272:	2f 92       	push	r2
    5274:	3f 92       	push	r3
    5276:	4f 92       	push	r4
    5278:	5f 92       	push	r5
    527a:	6f 92       	push	r6
    527c:	7f 92       	push	r7
    527e:	8f 92       	push	r8
    5280:	9f 92       	push	r9
    5282:	af 92       	push	r10
    5284:	bf 92       	push	r11
    5286:	cf 92       	push	r12
    5288:	df 92       	push	r13
    528a:	ef 92       	push	r14
    528c:	ff 92       	push	r15
    528e:	0f 93       	push	r16
    5290:	1f 93       	push	r17
    5292:	cf 93       	push	r28
    5294:	df 93       	push	r29
    5296:	cd b7       	in	r28, 0x3d	; 61
    5298:	de b7       	in	r29, 0x3e	; 62
    529a:	ca 1b       	sub	r28, r26
    529c:	db 0b       	sbc	r29, r27
    529e:	0f b6       	in	r0, 0x3f	; 63
    52a0:	f8 94       	cli
    52a2:	de bf       	out	0x3e, r29	; 62
    52a4:	0f be       	out	0x3f, r0	; 63
    52a6:	cd bf       	out	0x3d, r28	; 61
    52a8:	09 94       	ijmp

000052aa <__epilogue_restores__>:
    52aa:	2a 88       	ldd	r2, Y+18	; 0x12
    52ac:	39 88       	ldd	r3, Y+17	; 0x11
    52ae:	48 88       	ldd	r4, Y+16	; 0x10
    52b0:	5f 84       	ldd	r5, Y+15	; 0x0f
    52b2:	6e 84       	ldd	r6, Y+14	; 0x0e
    52b4:	7d 84       	ldd	r7, Y+13	; 0x0d
    52b6:	8c 84       	ldd	r8, Y+12	; 0x0c
    52b8:	9b 84       	ldd	r9, Y+11	; 0x0b
    52ba:	aa 84       	ldd	r10, Y+10	; 0x0a
    52bc:	b9 84       	ldd	r11, Y+9	; 0x09
    52be:	c8 84       	ldd	r12, Y+8	; 0x08
    52c0:	df 80       	ldd	r13, Y+7	; 0x07
    52c2:	ee 80       	ldd	r14, Y+6	; 0x06
    52c4:	fd 80       	ldd	r15, Y+5	; 0x05
    52c6:	0c 81       	ldd	r16, Y+4	; 0x04
    52c8:	1b 81       	ldd	r17, Y+3	; 0x03
    52ca:	aa 81       	ldd	r26, Y+2	; 0x02
    52cc:	b9 81       	ldd	r27, Y+1	; 0x01
    52ce:	ce 0f       	add	r28, r30
    52d0:	d1 1d       	adc	r29, r1
    52d2:	0f b6       	in	r0, 0x3f	; 63
    52d4:	f8 94       	cli
    52d6:	de bf       	out	0x3e, r29	; 62
    52d8:	0f be       	out	0x3f, r0	; 63
    52da:	cd bf       	out	0x3d, r28	; 61
    52dc:	ed 01       	movw	r28, r26
    52de:	08 95       	ret

000052e0 <__udivmodhi4>:
    52e0:	aa 1b       	sub	r26, r26
    52e2:	bb 1b       	sub	r27, r27
    52e4:	51 e1       	ldi	r21, 0x11	; 17
    52e6:	07 c0       	rjmp	.+14     	; 0x52f6 <__udivmodhi4_ep>

000052e8 <__udivmodhi4_loop>:
    52e8:	aa 1f       	adc	r26, r26
    52ea:	bb 1f       	adc	r27, r27
    52ec:	a6 17       	cp	r26, r22
    52ee:	b7 07       	cpc	r27, r23
    52f0:	10 f0       	brcs	.+4      	; 0x52f6 <__udivmodhi4_ep>
    52f2:	a6 1b       	sub	r26, r22
    52f4:	b7 0b       	sbc	r27, r23

000052f6 <__udivmodhi4_ep>:
    52f6:	88 1f       	adc	r24, r24
    52f8:	99 1f       	adc	r25, r25
    52fa:	5a 95       	dec	r21
    52fc:	a9 f7       	brne	.-22     	; 0x52e8 <__udivmodhi4_loop>
    52fe:	80 95       	com	r24
    5300:	90 95       	com	r25
    5302:	bc 01       	movw	r22, r24
    5304:	cd 01       	movw	r24, r26
    5306:	08 95       	ret

00005308 <malloc>:
    5308:	0f 93       	push	r16
    530a:	1f 93       	push	r17
    530c:	cf 93       	push	r28
    530e:	df 93       	push	r29
    5310:	82 30       	cpi	r24, 0x02	; 2
    5312:	91 05       	cpc	r25, r1
    5314:	10 f4       	brcc	.+4      	; 0x531a <malloc+0x12>
    5316:	82 e0       	ldi	r24, 0x02	; 2
    5318:	90 e0       	ldi	r25, 0x00	; 0
    531a:	e0 91 84 02 	lds	r30, 0x0284	; 0x800284 <__flp>
    531e:	f0 91 85 02 	lds	r31, 0x0285	; 0x800285 <__flp+0x1>
    5322:	20 e0       	ldi	r18, 0x00	; 0
    5324:	30 e0       	ldi	r19, 0x00	; 0
    5326:	a0 e0       	ldi	r26, 0x00	; 0
    5328:	b0 e0       	ldi	r27, 0x00	; 0
    532a:	30 97       	sbiw	r30, 0x00	; 0
    532c:	19 f1       	breq	.+70     	; 0x5374 <malloc+0x6c>
    532e:	40 81       	ld	r20, Z
    5330:	51 81       	ldd	r21, Z+1	; 0x01
    5332:	02 81       	ldd	r16, Z+2	; 0x02
    5334:	13 81       	ldd	r17, Z+3	; 0x03
    5336:	48 17       	cp	r20, r24
    5338:	59 07       	cpc	r21, r25
    533a:	c8 f0       	brcs	.+50     	; 0x536e <malloc+0x66>
    533c:	84 17       	cp	r24, r20
    533e:	95 07       	cpc	r25, r21
    5340:	69 f4       	brne	.+26     	; 0x535c <malloc+0x54>
    5342:	10 97       	sbiw	r26, 0x00	; 0
    5344:	31 f0       	breq	.+12     	; 0x5352 <malloc+0x4a>
    5346:	12 96       	adiw	r26, 0x02	; 2
    5348:	0c 93       	st	X, r16
    534a:	12 97       	sbiw	r26, 0x02	; 2
    534c:	13 96       	adiw	r26, 0x03	; 3
    534e:	1c 93       	st	X, r17
    5350:	27 c0       	rjmp	.+78     	; 0x53a0 <malloc+0x98>
    5352:	00 93 84 02 	sts	0x0284, r16	; 0x800284 <__flp>
    5356:	10 93 85 02 	sts	0x0285, r17	; 0x800285 <__flp+0x1>
    535a:	22 c0       	rjmp	.+68     	; 0x53a0 <malloc+0x98>
    535c:	21 15       	cp	r18, r1
    535e:	31 05       	cpc	r19, r1
    5360:	19 f0       	breq	.+6      	; 0x5368 <malloc+0x60>
    5362:	42 17       	cp	r20, r18
    5364:	53 07       	cpc	r21, r19
    5366:	18 f4       	brcc	.+6      	; 0x536e <malloc+0x66>
    5368:	9a 01       	movw	r18, r20
    536a:	bd 01       	movw	r22, r26
    536c:	ef 01       	movw	r28, r30
    536e:	df 01       	movw	r26, r30
    5370:	f8 01       	movw	r30, r16
    5372:	db cf       	rjmp	.-74     	; 0x532a <malloc+0x22>
    5374:	21 15       	cp	r18, r1
    5376:	31 05       	cpc	r19, r1
    5378:	f9 f0       	breq	.+62     	; 0x53b8 <malloc+0xb0>
    537a:	28 1b       	sub	r18, r24
    537c:	39 0b       	sbc	r19, r25
    537e:	24 30       	cpi	r18, 0x04	; 4
    5380:	31 05       	cpc	r19, r1
    5382:	80 f4       	brcc	.+32     	; 0x53a4 <malloc+0x9c>
    5384:	8a 81       	ldd	r24, Y+2	; 0x02
    5386:	9b 81       	ldd	r25, Y+3	; 0x03
    5388:	61 15       	cp	r22, r1
    538a:	71 05       	cpc	r23, r1
    538c:	21 f0       	breq	.+8      	; 0x5396 <malloc+0x8e>
    538e:	fb 01       	movw	r30, r22
    5390:	93 83       	std	Z+3, r25	; 0x03
    5392:	82 83       	std	Z+2, r24	; 0x02
    5394:	04 c0       	rjmp	.+8      	; 0x539e <malloc+0x96>
    5396:	90 93 85 02 	sts	0x0285, r25	; 0x800285 <__flp+0x1>
    539a:	80 93 84 02 	sts	0x0284, r24	; 0x800284 <__flp>
    539e:	fe 01       	movw	r30, r28
    53a0:	32 96       	adiw	r30, 0x02	; 2
    53a2:	44 c0       	rjmp	.+136    	; 0x542c <malloc+0x124>
    53a4:	fe 01       	movw	r30, r28
    53a6:	e2 0f       	add	r30, r18
    53a8:	f3 1f       	adc	r31, r19
    53aa:	81 93       	st	Z+, r24
    53ac:	91 93       	st	Z+, r25
    53ae:	22 50       	subi	r18, 0x02	; 2
    53b0:	31 09       	sbc	r19, r1
    53b2:	39 83       	std	Y+1, r19	; 0x01
    53b4:	28 83       	st	Y, r18
    53b6:	3a c0       	rjmp	.+116    	; 0x542c <malloc+0x124>
    53b8:	20 91 82 02 	lds	r18, 0x0282	; 0x800282 <__brkval>
    53bc:	30 91 83 02 	lds	r19, 0x0283	; 0x800283 <__brkval+0x1>
    53c0:	23 2b       	or	r18, r19
    53c2:	41 f4       	brne	.+16     	; 0x53d4 <malloc+0xcc>
    53c4:	20 91 62 00 	lds	r18, 0x0062	; 0x800062 <__malloc_heap_start>
    53c8:	30 91 63 00 	lds	r19, 0x0063	; 0x800063 <__malloc_heap_start+0x1>
    53cc:	30 93 83 02 	sts	0x0283, r19	; 0x800283 <__brkval+0x1>
    53d0:	20 93 82 02 	sts	0x0282, r18	; 0x800282 <__brkval>
    53d4:	20 91 60 00 	lds	r18, 0x0060	; 0x800060 <__data_start>
    53d8:	30 91 61 00 	lds	r19, 0x0061	; 0x800061 <__data_start+0x1>
    53dc:	21 15       	cp	r18, r1
    53de:	31 05       	cpc	r19, r1
    53e0:	41 f4       	brne	.+16     	; 0x53f2 <malloc+0xea>
    53e2:	2d b7       	in	r18, 0x3d	; 61
    53e4:	3e b7       	in	r19, 0x3e	; 62
    53e6:	40 91 64 00 	lds	r20, 0x0064	; 0x800064 <__malloc_margin>
    53ea:	50 91 65 00 	lds	r21, 0x0065	; 0x800065 <__malloc_margin+0x1>
    53ee:	24 1b       	sub	r18, r20
    53f0:	35 0b       	sbc	r19, r21
    53f2:	e0 91 82 02 	lds	r30, 0x0282	; 0x800282 <__brkval>
    53f6:	f0 91 83 02 	lds	r31, 0x0283	; 0x800283 <__brkval+0x1>
    53fa:	e2 17       	cp	r30, r18
    53fc:	f3 07       	cpc	r31, r19
    53fe:	a0 f4       	brcc	.+40     	; 0x5428 <malloc+0x120>
    5400:	2e 1b       	sub	r18, r30
    5402:	3f 0b       	sbc	r19, r31
    5404:	28 17       	cp	r18, r24
    5406:	39 07       	cpc	r19, r25
    5408:	78 f0       	brcs	.+30     	; 0x5428 <malloc+0x120>
    540a:	ac 01       	movw	r20, r24
    540c:	4e 5f       	subi	r20, 0xFE	; 254
    540e:	5f 4f       	sbci	r21, 0xFF	; 255
    5410:	24 17       	cp	r18, r20
    5412:	35 07       	cpc	r19, r21
    5414:	48 f0       	brcs	.+18     	; 0x5428 <malloc+0x120>
    5416:	4e 0f       	add	r20, r30
    5418:	5f 1f       	adc	r21, r31
    541a:	50 93 83 02 	sts	0x0283, r21	; 0x800283 <__brkval+0x1>
    541e:	40 93 82 02 	sts	0x0282, r20	; 0x800282 <__brkval>
    5422:	81 93       	st	Z+, r24
    5424:	91 93       	st	Z+, r25
    5426:	02 c0       	rjmp	.+4      	; 0x542c <malloc+0x124>
    5428:	e0 e0       	ldi	r30, 0x00	; 0
    542a:	f0 e0       	ldi	r31, 0x00	; 0
    542c:	cf 01       	movw	r24, r30
    542e:	df 91       	pop	r29
    5430:	cf 91       	pop	r28
    5432:	1f 91       	pop	r17
    5434:	0f 91       	pop	r16
    5436:	08 95       	ret

00005438 <free>:
    5438:	cf 93       	push	r28
    543a:	df 93       	push	r29
    543c:	00 97       	sbiw	r24, 0x00	; 0
    543e:	09 f4       	brne	.+2      	; 0x5442 <free+0xa>
    5440:	81 c0       	rjmp	.+258    	; 0x5544 <free+0x10c>
    5442:	fc 01       	movw	r30, r24
    5444:	32 97       	sbiw	r30, 0x02	; 2
    5446:	13 82       	std	Z+3, r1	; 0x03
    5448:	12 82       	std	Z+2, r1	; 0x02
    544a:	a0 91 84 02 	lds	r26, 0x0284	; 0x800284 <__flp>
    544e:	b0 91 85 02 	lds	r27, 0x0285	; 0x800285 <__flp+0x1>
    5452:	10 97       	sbiw	r26, 0x00	; 0
    5454:	81 f4       	brne	.+32     	; 0x5476 <free+0x3e>
    5456:	20 81       	ld	r18, Z
    5458:	31 81       	ldd	r19, Z+1	; 0x01
    545a:	82 0f       	add	r24, r18
    545c:	93 1f       	adc	r25, r19
    545e:	20 91 82 02 	lds	r18, 0x0282	; 0x800282 <__brkval>
    5462:	30 91 83 02 	lds	r19, 0x0283	; 0x800283 <__brkval+0x1>
    5466:	28 17       	cp	r18, r24
    5468:	39 07       	cpc	r19, r25
    546a:	51 f5       	brne	.+84     	; 0x54c0 <free+0x88>
    546c:	f0 93 83 02 	sts	0x0283, r31	; 0x800283 <__brkval+0x1>
    5470:	e0 93 82 02 	sts	0x0282, r30	; 0x800282 <__brkval>
    5474:	67 c0       	rjmp	.+206    	; 0x5544 <free+0x10c>
    5476:	ed 01       	movw	r28, r26
    5478:	20 e0       	ldi	r18, 0x00	; 0
    547a:	30 e0       	ldi	r19, 0x00	; 0
    547c:	ce 17       	cp	r28, r30
    547e:	df 07       	cpc	r29, r31
    5480:	40 f4       	brcc	.+16     	; 0x5492 <free+0x5a>
    5482:	4a 81       	ldd	r20, Y+2	; 0x02
    5484:	5b 81       	ldd	r21, Y+3	; 0x03
    5486:	9e 01       	movw	r18, r28
    5488:	41 15       	cp	r20, r1
    548a:	51 05       	cpc	r21, r1
    548c:	f1 f0       	breq	.+60     	; 0x54ca <free+0x92>
    548e:	ea 01       	movw	r28, r20
    5490:	f5 cf       	rjmp	.-22     	; 0x547c <free+0x44>
    5492:	d3 83       	std	Z+3, r29	; 0x03
    5494:	c2 83       	std	Z+2, r28	; 0x02
    5496:	40 81       	ld	r20, Z
    5498:	51 81       	ldd	r21, Z+1	; 0x01
    549a:	84 0f       	add	r24, r20
    549c:	95 1f       	adc	r25, r21
    549e:	c8 17       	cp	r28, r24
    54a0:	d9 07       	cpc	r29, r25
    54a2:	59 f4       	brne	.+22     	; 0x54ba <free+0x82>
    54a4:	88 81       	ld	r24, Y
    54a6:	99 81       	ldd	r25, Y+1	; 0x01
    54a8:	84 0f       	add	r24, r20
    54aa:	95 1f       	adc	r25, r21
    54ac:	02 96       	adiw	r24, 0x02	; 2
    54ae:	91 83       	std	Z+1, r25	; 0x01
    54b0:	80 83       	st	Z, r24
    54b2:	8a 81       	ldd	r24, Y+2	; 0x02
    54b4:	9b 81       	ldd	r25, Y+3	; 0x03
    54b6:	93 83       	std	Z+3, r25	; 0x03
    54b8:	82 83       	std	Z+2, r24	; 0x02
    54ba:	21 15       	cp	r18, r1
    54bc:	31 05       	cpc	r19, r1
    54be:	29 f4       	brne	.+10     	; 0x54ca <free+0x92>
    54c0:	f0 93 85 02 	sts	0x0285, r31	; 0x800285 <__flp+0x1>
    54c4:	e0 93 84 02 	sts	0x0284, r30	; 0x800284 <__flp>
    54c8:	3d c0       	rjmp	.+122    	; 0x5544 <free+0x10c>
    54ca:	e9 01       	movw	r28, r18
    54cc:	fb 83       	std	Y+3, r31	; 0x03
    54ce:	ea 83       	std	Y+2, r30	; 0x02
    54d0:	49 91       	ld	r20, Y+
    54d2:	59 91       	ld	r21, Y+
    54d4:	c4 0f       	add	r28, r20
    54d6:	d5 1f       	adc	r29, r21
    54d8:	ec 17       	cp	r30, r28
    54da:	fd 07       	cpc	r31, r29
    54dc:	61 f4       	brne	.+24     	; 0x54f6 <free+0xbe>
    54de:	80 81       	ld	r24, Z
    54e0:	91 81       	ldd	r25, Z+1	; 0x01
    54e2:	84 0f       	add	r24, r20
    54e4:	95 1f       	adc	r25, r21
    54e6:	02 96       	adiw	r24, 0x02	; 2
    54e8:	e9 01       	movw	r28, r18
    54ea:	99 83       	std	Y+1, r25	; 0x01
    54ec:	88 83       	st	Y, r24
    54ee:	82 81       	ldd	r24, Z+2	; 0x02
    54f0:	93 81       	ldd	r25, Z+3	; 0x03
    54f2:	9b 83       	std	Y+3, r25	; 0x03
    54f4:	8a 83       	std	Y+2, r24	; 0x02
    54f6:	e0 e0       	ldi	r30, 0x00	; 0
    54f8:	f0 e0       	ldi	r31, 0x00	; 0
    54fa:	12 96       	adiw	r26, 0x02	; 2
    54fc:	8d 91       	ld	r24, X+
    54fe:	9c 91       	ld	r25, X
    5500:	13 97       	sbiw	r26, 0x03	; 3
    5502:	00 97       	sbiw	r24, 0x00	; 0
    5504:	19 f0       	breq	.+6      	; 0x550c <free+0xd4>
    5506:	fd 01       	movw	r30, r26
    5508:	dc 01       	movw	r26, r24
    550a:	f7 cf       	rjmp	.-18     	; 0x54fa <free+0xc2>
    550c:	8d 91       	ld	r24, X+
    550e:	9c 91       	ld	r25, X
    5510:	11 97       	sbiw	r26, 0x01	; 1
    5512:	9d 01       	movw	r18, r26
    5514:	2e 5f       	subi	r18, 0xFE	; 254
    5516:	3f 4f       	sbci	r19, 0xFF	; 255
    5518:	82 0f       	add	r24, r18
    551a:	93 1f       	adc	r25, r19
    551c:	20 91 82 02 	lds	r18, 0x0282	; 0x800282 <__brkval>
    5520:	30 91 83 02 	lds	r19, 0x0283	; 0x800283 <__brkval+0x1>
    5524:	28 17       	cp	r18, r24
    5526:	39 07       	cpc	r19, r25
    5528:	69 f4       	brne	.+26     	; 0x5544 <free+0x10c>
    552a:	30 97       	sbiw	r30, 0x00	; 0
    552c:	29 f4       	brne	.+10     	; 0x5538 <free+0x100>
    552e:	10 92 85 02 	sts	0x0285, r1	; 0x800285 <__flp+0x1>
    5532:	10 92 84 02 	sts	0x0284, r1	; 0x800284 <__flp>
    5536:	02 c0       	rjmp	.+4      	; 0x553c <free+0x104>
    5538:	13 82       	std	Z+3, r1	; 0x03
    553a:	12 82       	std	Z+2, r1	; 0x02
    553c:	b0 93 83 02 	sts	0x0283, r27	; 0x800283 <__brkval+0x1>
    5540:	a0 93 82 02 	sts	0x0282, r26	; 0x800282 <__brkval>
    5544:	df 91       	pop	r29
    5546:	cf 91       	pop	r28
    5548:	08 95       	ret

0000554a <strtol>:
    554a:	a0 e0       	ldi	r26, 0x00	; 0
    554c:	b0 e0       	ldi	r27, 0x00	; 0
    554e:	eb ea       	ldi	r30, 0xAB	; 171
    5550:	fa e2       	ldi	r31, 0x2A	; 42
    5552:	0c 94 3a 29 	jmp	0x5274	; 0x5274 <__prologue_saves__+0x2>
    5556:	5c 01       	movw	r10, r24
    5558:	6b 01       	movw	r12, r22
    555a:	7a 01       	movw	r14, r20
    555c:	61 15       	cp	r22, r1
    555e:	71 05       	cpc	r23, r1
    5560:	19 f0       	breq	.+6      	; 0x5568 <strtol+0x1e>
    5562:	fb 01       	movw	r30, r22
    5564:	91 83       	std	Z+1, r25	; 0x01
    5566:	80 83       	st	Z, r24
    5568:	e1 14       	cp	r14, r1
    556a:	f1 04       	cpc	r15, r1
    556c:	29 f0       	breq	.+10     	; 0x5578 <strtol+0x2e>
    556e:	c7 01       	movw	r24, r14
    5570:	02 97       	sbiw	r24, 0x02	; 2
    5572:	83 97       	sbiw	r24, 0x23	; 35
    5574:	08 f0       	brcs	.+2      	; 0x5578 <strtol+0x2e>
    5576:	e5 c0       	rjmp	.+458    	; 0x5742 <strtol+0x1f8>
    5578:	e5 01       	movw	r28, r10
    557a:	21 96       	adiw	r28, 0x01	; 1
    557c:	f5 01       	movw	r30, r10
    557e:	10 81       	ld	r17, Z
    5580:	81 2f       	mov	r24, r17
    5582:	90 e0       	ldi	r25, 0x00	; 0
    5584:	0e 94 cd 2c 	call	0x599a	; 0x599a <isspace>
    5588:	89 2b       	or	r24, r25
    558a:	11 f0       	breq	.+4      	; 0x5590 <strtol+0x46>
    558c:	5e 01       	movw	r10, r28
    558e:	f4 cf       	rjmp	.-24     	; 0x5578 <strtol+0x2e>
    5590:	1d 32       	cpi	r17, 0x2D	; 45
    5592:	29 f4       	brne	.+10     	; 0x559e <strtol+0x54>
    5594:	21 96       	adiw	r28, 0x01	; 1
    5596:	f5 01       	movw	r30, r10
    5598:	11 81       	ldd	r17, Z+1	; 0x01
    559a:	01 e0       	ldi	r16, 0x01	; 1
    559c:	07 c0       	rjmp	.+14     	; 0x55ac <strtol+0x62>
    559e:	1b 32       	cpi	r17, 0x2B	; 43
    55a0:	21 f4       	brne	.+8      	; 0x55aa <strtol+0x60>
    55a2:	e5 01       	movw	r28, r10
    55a4:	22 96       	adiw	r28, 0x02	; 2
    55a6:	f5 01       	movw	r30, r10
    55a8:	11 81       	ldd	r17, Z+1	; 0x01
    55aa:	00 e0       	ldi	r16, 0x00	; 0
    55ac:	e1 14       	cp	r14, r1
    55ae:	f1 04       	cpc	r15, r1
    55b0:	09 f1       	breq	.+66     	; 0x55f4 <strtol+0xaa>
    55b2:	f0 e1       	ldi	r31, 0x10	; 16
    55b4:	ef 16       	cp	r14, r31
    55b6:	f1 04       	cpc	r15, r1
    55b8:	29 f4       	brne	.+10     	; 0x55c4 <strtol+0x7a>
    55ba:	3f c0       	rjmp	.+126    	; 0x563a <strtol+0xf0>
    55bc:	10 e3       	ldi	r17, 0x30	; 48
    55be:	e1 14       	cp	r14, r1
    55c0:	f1 04       	cpc	r15, r1
    55c2:	21 f1       	breq	.+72     	; 0x560c <strtol+0xc2>
    55c4:	28 e0       	ldi	r18, 0x08	; 8
    55c6:	e2 16       	cp	r14, r18
    55c8:	f1 04       	cpc	r15, r1
    55ca:	01 f1       	breq	.+64     	; 0x560c <strtol+0xc2>
    55cc:	54 f4       	brge	.+20     	; 0x55e2 <strtol+0x98>
    55ce:	e2 e0       	ldi	r30, 0x02	; 2
    55d0:	ee 16       	cp	r14, r30
    55d2:	f1 04       	cpc	r15, r1
    55d4:	21 f5       	brne	.+72     	; 0x561e <strtol+0xd4>
    55d6:	81 2c       	mov	r8, r1
    55d8:	91 2c       	mov	r9, r1
    55da:	a1 2c       	mov	r10, r1
    55dc:	b0 e4       	ldi	r27, 0x40	; 64
    55de:	bb 2e       	mov	r11, r27
    55e0:	3e c0       	rjmp	.+124    	; 0x565e <strtol+0x114>
    55e2:	fa e0       	ldi	r31, 0x0A	; 10
    55e4:	ef 16       	cp	r14, r31
    55e6:	f1 04       	cpc	r15, r1
    55e8:	39 f0       	breq	.+14     	; 0x55f8 <strtol+0xae>
    55ea:	20 e1       	ldi	r18, 0x10	; 16
    55ec:	e2 16       	cp	r14, r18
    55ee:	f1 04       	cpc	r15, r1
    55f0:	b1 f4       	brne	.+44     	; 0x561e <strtol+0xd4>
    55f2:	30 c0       	rjmp	.+96     	; 0x5654 <strtol+0x10a>
    55f4:	10 33       	cpi	r17, 0x30	; 48
    55f6:	19 f1       	breq	.+70     	; 0x563e <strtol+0xf4>
    55f8:	fa e0       	ldi	r31, 0x0A	; 10
    55fa:	ef 2e       	mov	r14, r31
    55fc:	f1 2c       	mov	r15, r1
    55fe:	ac ec       	ldi	r26, 0xCC	; 204
    5600:	8a 2e       	mov	r8, r26
    5602:	98 2c       	mov	r9, r8
    5604:	a8 2c       	mov	r10, r8
    5606:	ac e0       	ldi	r26, 0x0C	; 12
    5608:	ba 2e       	mov	r11, r26
    560a:	29 c0       	rjmp	.+82     	; 0x565e <strtol+0x114>
    560c:	78 e0       	ldi	r23, 0x08	; 8
    560e:	e7 2e       	mov	r14, r23
    5610:	f1 2c       	mov	r15, r1
    5612:	81 2c       	mov	r8, r1
    5614:	91 2c       	mov	r9, r1
    5616:	a1 2c       	mov	r10, r1
    5618:	e0 e1       	ldi	r30, 0x10	; 16
    561a:	be 2e       	mov	r11, r30
    561c:	20 c0       	rjmp	.+64     	; 0x565e <strtol+0x114>
    561e:	60 e0       	ldi	r22, 0x00	; 0
    5620:	70 e0       	ldi	r23, 0x00	; 0
    5622:	80 e0       	ldi	r24, 0x00	; 0
    5624:	90 e8       	ldi	r25, 0x80	; 128
    5626:	97 01       	movw	r18, r14
    5628:	0f 2c       	mov	r0, r15
    562a:	00 0c       	add	r0, r0
    562c:	44 0b       	sbc	r20, r20
    562e:	55 0b       	sbc	r21, r21
    5630:	0e 94 67 2f 	call	0x5ece	; 0x5ece <__udivmodsi4>
    5634:	49 01       	movw	r8, r18
    5636:	5a 01       	movw	r10, r20
    5638:	12 c0       	rjmp	.+36     	; 0x565e <strtol+0x114>
    563a:	10 33       	cpi	r17, 0x30	; 48
    563c:	59 f4       	brne	.+22     	; 0x5654 <strtol+0x10a>
    563e:	88 81       	ld	r24, Y
    5640:	8f 7d       	andi	r24, 0xDF	; 223
    5642:	88 35       	cpi	r24, 0x58	; 88
    5644:	09 f0       	breq	.+2      	; 0x5648 <strtol+0xfe>
    5646:	ba cf       	rjmp	.-140    	; 0x55bc <strtol+0x72>
    5648:	19 81       	ldd	r17, Y+1	; 0x01
    564a:	22 96       	adiw	r28, 0x02	; 2
    564c:	02 60       	ori	r16, 0x02	; 2
    564e:	80 e1       	ldi	r24, 0x10	; 16
    5650:	e8 2e       	mov	r14, r24
    5652:	f1 2c       	mov	r15, r1
    5654:	81 2c       	mov	r8, r1
    5656:	91 2c       	mov	r9, r1
    5658:	a1 2c       	mov	r10, r1
    565a:	68 e0       	ldi	r22, 0x08	; 8
    565c:	b6 2e       	mov	r11, r22
    565e:	40 e0       	ldi	r20, 0x00	; 0
    5660:	60 e0       	ldi	r22, 0x00	; 0
    5662:	70 e0       	ldi	r23, 0x00	; 0
    5664:	cb 01       	movw	r24, r22
    5666:	27 01       	movw	r4, r14
    5668:	0f 2c       	mov	r0, r15
    566a:	00 0c       	add	r0, r0
    566c:	66 08       	sbc	r6, r6
    566e:	77 08       	sbc	r7, r7
    5670:	fe 01       	movw	r30, r28
    5672:	50 ed       	ldi	r21, 0xD0	; 208
    5674:	35 2e       	mov	r3, r21
    5676:	31 0e       	add	r3, r17
    5678:	29 e0       	ldi	r18, 0x09	; 9
    567a:	23 15       	cp	r18, r3
    567c:	70 f4       	brcc	.+28     	; 0x569a <strtol+0x150>
    567e:	2f eb       	ldi	r18, 0xBF	; 191
    5680:	21 0f       	add	r18, r17
    5682:	2a 31       	cpi	r18, 0x1A	; 26
    5684:	18 f4       	brcc	.+6      	; 0x568c <strtol+0x142>
    5686:	39 ec       	ldi	r19, 0xC9	; 201
    5688:	33 2e       	mov	r3, r19
    568a:	06 c0       	rjmp	.+12     	; 0x5698 <strtol+0x14e>
    568c:	2f e9       	ldi	r18, 0x9F	; 159
    568e:	21 0f       	add	r18, r17
    5690:	2a 31       	cpi	r18, 0x1A	; 26
    5692:	18 f5       	brcc	.+70     	; 0x56da <strtol+0x190>
    5694:	29 ea       	ldi	r18, 0xA9	; 169
    5696:	32 2e       	mov	r3, r18
    5698:	31 0e       	add	r3, r17
    569a:	23 2d       	mov	r18, r3
    569c:	30 e0       	ldi	r19, 0x00	; 0
    569e:	2e 15       	cp	r18, r14
    56a0:	3f 05       	cpc	r19, r15
    56a2:	dc f4       	brge	.+54     	; 0x56da <strtol+0x190>
    56a4:	47 fd       	sbrc	r20, 7
    56a6:	16 c0       	rjmp	.+44     	; 0x56d4 <strtol+0x18a>
    56a8:	86 16       	cp	r8, r22
    56aa:	97 06       	cpc	r9, r23
    56ac:	a8 06       	cpc	r10, r24
    56ae:	b9 06       	cpc	r11, r25
    56b0:	70 f0       	brcs	.+28     	; 0x56ce <strtol+0x184>
    56b2:	a3 01       	movw	r20, r6
    56b4:	92 01       	movw	r18, r4
    56b6:	0e 94 57 2f 	call	0x5eae	; 0x5eae <__mulsi3>
    56ba:	63 0d       	add	r22, r3
    56bc:	71 1d       	adc	r23, r1
    56be:	81 1d       	adc	r24, r1
    56c0:	91 1d       	adc	r25, r1
    56c2:	61 30       	cpi	r22, 0x01	; 1
    56c4:	71 05       	cpc	r23, r1
    56c6:	81 05       	cpc	r24, r1
    56c8:	20 e8       	ldi	r18, 0x80	; 128
    56ca:	92 07       	cpc	r25, r18
    56cc:	10 f0       	brcs	.+4      	; 0x56d2 <strtol+0x188>
    56ce:	4f ef       	ldi	r20, 0xFF	; 255
    56d0:	01 c0       	rjmp	.+2      	; 0x56d4 <strtol+0x18a>
    56d2:	41 e0       	ldi	r20, 0x01	; 1
    56d4:	21 96       	adiw	r28, 0x01	; 1
    56d6:	10 81       	ld	r17, Z
    56d8:	cb cf       	rjmp	.-106    	; 0x5670 <strtol+0x126>
    56da:	20 2f       	mov	r18, r16
    56dc:	21 70       	andi	r18, 0x01	; 1
    56de:	c1 14       	cp	r12, r1
    56e0:	d1 04       	cpc	r13, r1
    56e2:	71 f0       	breq	.+28     	; 0x5700 <strtol+0x1b6>
    56e4:	44 23       	and	r20, r20
    56e6:	29 f0       	breq	.+10     	; 0x56f2 <strtol+0x1a8>
    56e8:	21 97       	sbiw	r28, 0x01	; 1
    56ea:	f6 01       	movw	r30, r12
    56ec:	d1 83       	std	Z+1, r29	; 0x01
    56ee:	c0 83       	st	Z, r28
    56f0:	07 c0       	rjmp	.+14     	; 0x5700 <strtol+0x1b6>
    56f2:	01 ff       	sbrs	r16, 1
    56f4:	19 c0       	rjmp	.+50     	; 0x5728 <strtol+0x1de>
    56f6:	22 97       	sbiw	r28, 0x02	; 2
    56f8:	f6 01       	movw	r30, r12
    56fa:	d1 83       	std	Z+1, r29	; 0x01
    56fc:	c0 83       	st	Z, r28
    56fe:	14 c0       	rjmp	.+40     	; 0x5728 <strtol+0x1de>
    5700:	47 ff       	sbrs	r20, 7
    5702:	12 c0       	rjmp	.+36     	; 0x5728 <strtol+0x1de>
    5704:	22 23       	and	r18, r18
    5706:	29 f0       	breq	.+10     	; 0x5712 <strtol+0x1c8>
    5708:	60 e0       	ldi	r22, 0x00	; 0
    570a:	70 e0       	ldi	r23, 0x00	; 0
    570c:	80 e0       	ldi	r24, 0x00	; 0
    570e:	90 e8       	ldi	r25, 0x80	; 128
    5710:	04 c0       	rjmp	.+8      	; 0x571a <strtol+0x1d0>
    5712:	6f ef       	ldi	r22, 0xFF	; 255
    5714:	7f ef       	ldi	r23, 0xFF	; 255
    5716:	8f ef       	ldi	r24, 0xFF	; 255
    5718:	9f e7       	ldi	r25, 0x7F	; 127
    571a:	22 e2       	ldi	r18, 0x22	; 34
    571c:	30 e0       	ldi	r19, 0x00	; 0
    571e:	30 93 87 02 	sts	0x0287, r19	; 0x800287 <errno+0x1>
    5722:	20 93 86 02 	sts	0x0286, r18	; 0x800286 <errno>
    5726:	09 c0       	rjmp	.+18     	; 0x573a <strtol+0x1f0>
    5728:	22 23       	and	r18, r18
    572a:	81 f0       	breq	.+32     	; 0x574c <strtol+0x202>
    572c:	90 95       	com	r25
    572e:	80 95       	com	r24
    5730:	70 95       	com	r23
    5732:	61 95       	neg	r22
    5734:	7f 4f       	sbci	r23, 0xFF	; 255
    5736:	8f 4f       	sbci	r24, 0xFF	; 255
    5738:	9f 4f       	sbci	r25, 0xFF	; 255
    573a:	46 2f       	mov	r20, r22
    573c:	37 2f       	mov	r19, r23
    573e:	28 2f       	mov	r18, r24
    5740:	12 c0       	rjmp	.+36     	; 0x5766 <strtol+0x21c>
    5742:	40 e0       	ldi	r20, 0x00	; 0
    5744:	30 e0       	ldi	r19, 0x00	; 0
    5746:	20 e0       	ldi	r18, 0x00	; 0
    5748:	90 e0       	ldi	r25, 0x00	; 0
    574a:	0d c0       	rjmp	.+26     	; 0x5766 <strtol+0x21c>
    574c:	97 ff       	sbrs	r25, 7
    574e:	f5 cf       	rjmp	.-22     	; 0x573a <strtol+0x1f0>
    5750:	82 e2       	ldi	r24, 0x22	; 34
    5752:	90 e0       	ldi	r25, 0x00	; 0
    5754:	90 93 87 02 	sts	0x0287, r25	; 0x800287 <errno+0x1>
    5758:	80 93 86 02 	sts	0x0286, r24	; 0x800286 <errno>
    575c:	6f ef       	ldi	r22, 0xFF	; 255
    575e:	7f ef       	ldi	r23, 0xFF	; 255
    5760:	8f ef       	ldi	r24, 0xFF	; 255
    5762:	9f e7       	ldi	r25, 0x7F	; 127
    5764:	ea cf       	rjmp	.-44     	; 0x573a <strtol+0x1f0>
    5766:	64 2f       	mov	r22, r20
    5768:	73 2f       	mov	r23, r19
    576a:	82 2f       	mov	r24, r18
    576c:	cd b7       	in	r28, 0x3d	; 61
    576e:	de b7       	in	r29, 0x3e	; 62
    5770:	e1 e1       	ldi	r30, 0x11	; 17
    5772:	0c 94 56 29 	jmp	0x52ac	; 0x52ac <__epilogue_restores__+0x2>

00005776 <atof>:
    5776:	66 27       	eor	r22, r22
    5778:	77 27       	eor	r23, r23
    577a:	0c 94 dc 2d 	jmp	0x5bb8	; 0x5bb8 <strtod>

0000577e <atoi>:
    577e:	fc 01       	movw	r30, r24
    5780:	88 27       	eor	r24, r24
    5782:	99 27       	eor	r25, r25
    5784:	e8 94       	clt
    5786:	21 91       	ld	r18, Z+
    5788:	20 32       	cpi	r18, 0x20	; 32
    578a:	e9 f3       	breq	.-6      	; 0x5786 <atoi+0x8>
    578c:	29 30       	cpi	r18, 0x09	; 9
    578e:	10 f0       	brcs	.+4      	; 0x5794 <atoi+0x16>
    5790:	2e 30       	cpi	r18, 0x0E	; 14
    5792:	c8 f3       	brcs	.-14     	; 0x5786 <atoi+0x8>
    5794:	2b 32       	cpi	r18, 0x2B	; 43
    5796:	41 f0       	breq	.+16     	; 0x57a8 <atoi+0x2a>
    5798:	2d 32       	cpi	r18, 0x2D	; 45
    579a:	39 f4       	brne	.+14     	; 0x57aa <atoi+0x2c>
    579c:	68 94       	set
    579e:	04 c0       	rjmp	.+8      	; 0x57a8 <atoi+0x2a>
    57a0:	0e 94 18 2d 	call	0x5a30	; 0x5a30 <__mulhi_const_10>
    57a4:	82 0f       	add	r24, r18
    57a6:	91 1d       	adc	r25, r1
    57a8:	21 91       	ld	r18, Z+
    57aa:	20 53       	subi	r18, 0x30	; 48
    57ac:	2a 30       	cpi	r18, 0x0A	; 10
    57ae:	c0 f3       	brcs	.-16     	; 0x57a0 <atoi+0x22>
    57b0:	1e f4       	brtc	.+6      	; 0x57b8 <atoi+0x3a>
    57b2:	90 95       	com	r25
    57b4:	81 95       	neg	r24
    57b6:	9f 4f       	sbci	r25, 0xFF	; 255
    57b8:	08 95       	ret

000057ba <__ftoa_engine>:
    57ba:	28 30       	cpi	r18, 0x08	; 8
    57bc:	08 f0       	brcs	.+2      	; 0x57c0 <__ftoa_engine+0x6>
    57be:	27 e0       	ldi	r18, 0x07	; 7
    57c0:	33 27       	eor	r19, r19
    57c2:	da 01       	movw	r26, r20
    57c4:	99 0f       	add	r25, r25
    57c6:	31 1d       	adc	r19, r1
    57c8:	87 fd       	sbrc	r24, 7
    57ca:	91 60       	ori	r25, 0x01	; 1
    57cc:	00 96       	adiw	r24, 0x00	; 0
    57ce:	61 05       	cpc	r22, r1
    57d0:	71 05       	cpc	r23, r1
    57d2:	39 f4       	brne	.+14     	; 0x57e2 <__ftoa_engine+0x28>
    57d4:	32 60       	ori	r19, 0x02	; 2
    57d6:	2e 5f       	subi	r18, 0xFE	; 254
    57d8:	3d 93       	st	X+, r19
    57da:	30 e3       	ldi	r19, 0x30	; 48
    57dc:	2a 95       	dec	r18
    57de:	e1 f7       	brne	.-8      	; 0x57d8 <__ftoa_engine+0x1e>
    57e0:	08 95       	ret
    57e2:	9f 3f       	cpi	r25, 0xFF	; 255
    57e4:	30 f0       	brcs	.+12     	; 0x57f2 <__ftoa_engine+0x38>
    57e6:	80 38       	cpi	r24, 0x80	; 128
    57e8:	71 05       	cpc	r23, r1
    57ea:	61 05       	cpc	r22, r1
    57ec:	09 f0       	breq	.+2      	; 0x57f0 <__ftoa_engine+0x36>
    57ee:	3c 5f       	subi	r19, 0xFC	; 252
    57f0:	3c 5f       	subi	r19, 0xFC	; 252
    57f2:	3d 93       	st	X+, r19
    57f4:	91 30       	cpi	r25, 0x01	; 1
    57f6:	08 f0       	brcs	.+2      	; 0x57fa <__ftoa_engine+0x40>
    57f8:	80 68       	ori	r24, 0x80	; 128
    57fa:	91 1d       	adc	r25, r1
    57fc:	df 93       	push	r29
    57fe:	cf 93       	push	r28
    5800:	1f 93       	push	r17
    5802:	0f 93       	push	r16
    5804:	ff 92       	push	r15
    5806:	ef 92       	push	r14
    5808:	19 2f       	mov	r17, r25
    580a:	98 7f       	andi	r25, 0xF8	; 248
    580c:	96 95       	lsr	r25
    580e:	e9 2f       	mov	r30, r25
    5810:	96 95       	lsr	r25
    5812:	96 95       	lsr	r25
    5814:	e9 0f       	add	r30, r25
    5816:	ff 27       	eor	r31, r31
    5818:	ea 54       	subi	r30, 0x4A	; 74
    581a:	ff 4f       	sbci	r31, 0xFF	; 255
    581c:	99 27       	eor	r25, r25
    581e:	33 27       	eor	r19, r19
    5820:	ee 24       	eor	r14, r14
    5822:	ff 24       	eor	r15, r15
    5824:	a7 01       	movw	r20, r14
    5826:	e7 01       	movw	r28, r14
    5828:	05 90       	lpm	r0, Z+
    582a:	08 94       	sec
    582c:	07 94       	ror	r0
    582e:	28 f4       	brcc	.+10     	; 0x583a <__ftoa_engine+0x80>
    5830:	36 0f       	add	r19, r22
    5832:	e7 1e       	adc	r14, r23
    5834:	f8 1e       	adc	r15, r24
    5836:	49 1f       	adc	r20, r25
    5838:	51 1d       	adc	r21, r1
    583a:	66 0f       	add	r22, r22
    583c:	77 1f       	adc	r23, r23
    583e:	88 1f       	adc	r24, r24
    5840:	99 1f       	adc	r25, r25
    5842:	06 94       	lsr	r0
    5844:	a1 f7       	brne	.-24     	; 0x582e <__ftoa_engine+0x74>
    5846:	05 90       	lpm	r0, Z+
    5848:	07 94       	ror	r0
    584a:	28 f4       	brcc	.+10     	; 0x5856 <__ftoa_engine+0x9c>
    584c:	e7 0e       	add	r14, r23
    584e:	f8 1e       	adc	r15, r24
    5850:	49 1f       	adc	r20, r25
    5852:	56 1f       	adc	r21, r22
    5854:	c1 1d       	adc	r28, r1
    5856:	77 0f       	add	r23, r23
    5858:	88 1f       	adc	r24, r24
    585a:	99 1f       	adc	r25, r25
    585c:	66 1f       	adc	r22, r22
    585e:	06 94       	lsr	r0
    5860:	a1 f7       	brne	.-24     	; 0x584a <__ftoa_engine+0x90>
    5862:	05 90       	lpm	r0, Z+
    5864:	07 94       	ror	r0
    5866:	28 f4       	brcc	.+10     	; 0x5872 <__ftoa_engine+0xb8>
    5868:	f8 0e       	add	r15, r24
    586a:	49 1f       	adc	r20, r25
    586c:	56 1f       	adc	r21, r22
    586e:	c7 1f       	adc	r28, r23
    5870:	d1 1d       	adc	r29, r1
    5872:	88 0f       	add	r24, r24
    5874:	99 1f       	adc	r25, r25
    5876:	66 1f       	adc	r22, r22
    5878:	77 1f       	adc	r23, r23
    587a:	06 94       	lsr	r0
    587c:	a1 f7       	brne	.-24     	; 0x5866 <__ftoa_engine+0xac>
    587e:	05 90       	lpm	r0, Z+
    5880:	07 94       	ror	r0
    5882:	20 f4       	brcc	.+8      	; 0x588c <__ftoa_engine+0xd2>
    5884:	49 0f       	add	r20, r25
    5886:	56 1f       	adc	r21, r22
    5888:	c7 1f       	adc	r28, r23
    588a:	d8 1f       	adc	r29, r24
    588c:	99 0f       	add	r25, r25
    588e:	66 1f       	adc	r22, r22
    5890:	77 1f       	adc	r23, r23
    5892:	88 1f       	adc	r24, r24
    5894:	06 94       	lsr	r0
    5896:	a9 f7       	brne	.-22     	; 0x5882 <__ftoa_engine+0xc8>
    5898:	84 91       	lpm	r24, Z
    589a:	10 95       	com	r17
    589c:	17 70       	andi	r17, 0x07	; 7
    589e:	41 f0       	breq	.+16     	; 0x58b0 <__ftoa_engine+0xf6>
    58a0:	d6 95       	lsr	r29
    58a2:	c7 95       	ror	r28
    58a4:	57 95       	ror	r21
    58a6:	47 95       	ror	r20
    58a8:	f7 94       	ror	r15
    58aa:	e7 94       	ror	r14
    58ac:	1a 95       	dec	r17
    58ae:	c1 f7       	brne	.-16     	; 0x58a0 <__ftoa_engine+0xe6>
    58b0:	ec e5       	ldi	r30, 0x5C	; 92
    58b2:	f0 e0       	ldi	r31, 0x00	; 0
    58b4:	68 94       	set
    58b6:	15 90       	lpm	r1, Z+
    58b8:	15 91       	lpm	r17, Z+
    58ba:	35 91       	lpm	r19, Z+
    58bc:	65 91       	lpm	r22, Z+
    58be:	95 91       	lpm	r25, Z+
    58c0:	05 90       	lpm	r0, Z+
    58c2:	7f e2       	ldi	r23, 0x2F	; 47
    58c4:	73 95       	inc	r23
    58c6:	e1 18       	sub	r14, r1
    58c8:	f1 0a       	sbc	r15, r17
    58ca:	43 0b       	sbc	r20, r19
    58cc:	56 0b       	sbc	r21, r22
    58ce:	c9 0b       	sbc	r28, r25
    58d0:	d0 09       	sbc	r29, r0
    58d2:	c0 f7       	brcc	.-16     	; 0x58c4 <__ftoa_engine+0x10a>
    58d4:	e1 0c       	add	r14, r1
    58d6:	f1 1e       	adc	r15, r17
    58d8:	43 1f       	adc	r20, r19
    58da:	56 1f       	adc	r21, r22
    58dc:	c9 1f       	adc	r28, r25
    58de:	d0 1d       	adc	r29, r0
    58e0:	7e f4       	brtc	.+30     	; 0x5900 <__ftoa_engine+0x146>
    58e2:	70 33       	cpi	r23, 0x30	; 48
    58e4:	11 f4       	brne	.+4      	; 0x58ea <__ftoa_engine+0x130>
    58e6:	8a 95       	dec	r24
    58e8:	e6 cf       	rjmp	.-52     	; 0x58b6 <__ftoa_engine+0xfc>
    58ea:	e8 94       	clt
    58ec:	01 50       	subi	r16, 0x01	; 1
    58ee:	30 f0       	brcs	.+12     	; 0x58fc <__ftoa_engine+0x142>
    58f0:	08 0f       	add	r16, r24
    58f2:	0a f4       	brpl	.+2      	; 0x58f6 <__ftoa_engine+0x13c>
    58f4:	00 27       	eor	r16, r16
    58f6:	02 17       	cp	r16, r18
    58f8:	08 f4       	brcc	.+2      	; 0x58fc <__ftoa_engine+0x142>
    58fa:	20 2f       	mov	r18, r16
    58fc:	23 95       	inc	r18
    58fe:	02 2f       	mov	r16, r18
    5900:	7a 33       	cpi	r23, 0x3A	; 58
    5902:	28 f0       	brcs	.+10     	; 0x590e <__ftoa_engine+0x154>
    5904:	79 e3       	ldi	r23, 0x39	; 57
    5906:	7d 93       	st	X+, r23
    5908:	2a 95       	dec	r18
    590a:	e9 f7       	brne	.-6      	; 0x5906 <__ftoa_engine+0x14c>
    590c:	10 c0       	rjmp	.+32     	; 0x592e <__ftoa_engine+0x174>
    590e:	7d 93       	st	X+, r23
    5910:	2a 95       	dec	r18
    5912:	89 f6       	brne	.-94     	; 0x58b6 <__ftoa_engine+0xfc>
    5914:	06 94       	lsr	r0
    5916:	97 95       	ror	r25
    5918:	67 95       	ror	r22
    591a:	37 95       	ror	r19
    591c:	17 95       	ror	r17
    591e:	17 94       	ror	r1
    5920:	e1 18       	sub	r14, r1
    5922:	f1 0a       	sbc	r15, r17
    5924:	43 0b       	sbc	r20, r19
    5926:	56 0b       	sbc	r21, r22
    5928:	c9 0b       	sbc	r28, r25
    592a:	d0 09       	sbc	r29, r0
    592c:	98 f0       	brcs	.+38     	; 0x5954 <__ftoa_engine+0x19a>
    592e:	23 95       	inc	r18
    5930:	7e 91       	ld	r23, -X
    5932:	73 95       	inc	r23
    5934:	7a 33       	cpi	r23, 0x3A	; 58
    5936:	08 f0       	brcs	.+2      	; 0x593a <__ftoa_engine+0x180>
    5938:	70 e3       	ldi	r23, 0x30	; 48
    593a:	7c 93       	st	X, r23
    593c:	20 13       	cpse	r18, r16
    593e:	b8 f7       	brcc	.-18     	; 0x592e <__ftoa_engine+0x174>
    5940:	7e 91       	ld	r23, -X
    5942:	70 61       	ori	r23, 0x10	; 16
    5944:	7d 93       	st	X+, r23
    5946:	30 f0       	brcs	.+12     	; 0x5954 <__ftoa_engine+0x19a>
    5948:	83 95       	inc	r24
    594a:	71 e3       	ldi	r23, 0x31	; 49
    594c:	7d 93       	st	X+, r23
    594e:	70 e3       	ldi	r23, 0x30	; 48
    5950:	2a 95       	dec	r18
    5952:	e1 f7       	brne	.-8      	; 0x594c <__ftoa_engine+0x192>
    5954:	11 24       	eor	r1, r1
    5956:	ef 90       	pop	r14
    5958:	ff 90       	pop	r15
    595a:	0f 91       	pop	r16
    595c:	1f 91       	pop	r17
    595e:	cf 91       	pop	r28
    5960:	df 91       	pop	r29
    5962:	99 27       	eor	r25, r25
    5964:	87 fd       	sbrc	r24, 7
    5966:	90 95       	com	r25
    5968:	08 95       	ret

0000596a <isalnum>:
    596a:	91 11       	cpse	r25, r1
    596c:	0c 94 bf 2c 	jmp	0x597e	; 0x597e <__ctype_isfalse>
    5970:	80 53       	subi	r24, 0x30	; 48
    5972:	8a 50       	subi	r24, 0x0A	; 10
    5974:	18 f0       	brcs	.+6      	; 0x597c <isalnum+0x12>
    5976:	86 5c       	subi	r24, 0xC6	; 198
    5978:	0c 94 c5 2c 	jmp	0x598a	; 0x598a <isalpha>
    597c:	08 95       	ret

0000597e <__ctype_isfalse>:
    597e:	99 27       	eor	r25, r25
    5980:	88 27       	eor	r24, r24

00005982 <__ctype_istrue>:
    5982:	08 95       	ret

00005984 <isupper>:
    5984:	85 fd       	sbrc	r24, 5
    5986:	0c 94 bf 2c 	jmp	0x597e	; 0x597e <__ctype_isfalse>

0000598a <isalpha>:
    598a:	80 62       	ori	r24, 0x20	; 32

0000598c <islower>:
    598c:	91 11       	cpse	r25, r1
    598e:	0c 94 bf 2c 	jmp	0x597e	; 0x597e <__ctype_isfalse>
    5992:	81 56       	subi	r24, 0x61	; 97
    5994:	8a 51       	subi	r24, 0x1A	; 26
    5996:	d8 f7       	brcc	.-10     	; 0x598e <islower+0x2>
    5998:	08 95       	ret

0000599a <isspace>:
    599a:	91 11       	cpse	r25, r1
    599c:	0c 94 bf 2c 	jmp	0x597e	; 0x597e <__ctype_isfalse>
    59a0:	80 32       	cpi	r24, 0x20	; 32
    59a2:	19 f0       	breq	.+6      	; 0x59aa <isspace+0x10>
    59a4:	89 50       	subi	r24, 0x09	; 9
    59a6:	85 50       	subi	r24, 0x05	; 5
    59a8:	c8 f7       	brcc	.-14     	; 0x599c <isspace+0x2>
    59aa:	08 95       	ret

000059ac <toupper>:
    59ac:	91 11       	cpse	r25, r1
    59ae:	08 95       	ret
    59b0:	81 56       	subi	r24, 0x61	; 97
    59b2:	8a 51       	subi	r24, 0x1A	; 26
    59b4:	08 f4       	brcc	.+2      	; 0x59b8 <toupper+0xc>
    59b6:	80 52       	subi	r24, 0x20	; 32
    59b8:	85 58       	subi	r24, 0x85	; 133
    59ba:	08 95       	ret

000059bc <strnlen_P>:
    59bc:	fc 01       	movw	r30, r24
    59be:	05 90       	lpm	r0, Z+
    59c0:	61 50       	subi	r22, 0x01	; 1
    59c2:	70 40       	sbci	r23, 0x00	; 0
    59c4:	01 10       	cpse	r0, r1
    59c6:	d8 f7       	brcc	.-10     	; 0x59be <strnlen_P+0x2>
    59c8:	80 95       	com	r24
    59ca:	90 95       	com	r25
    59cc:	8e 0f       	add	r24, r30
    59ce:	9f 1f       	adc	r25, r31
    59d0:	08 95       	ret

000059d2 <memcpy>:
    59d2:	fb 01       	movw	r30, r22
    59d4:	dc 01       	movw	r26, r24
    59d6:	02 c0       	rjmp	.+4      	; 0x59dc <memcpy+0xa>
    59d8:	01 90       	ld	r0, Z+
    59da:	0d 92       	st	X+, r0
    59dc:	41 50       	subi	r20, 0x01	; 1
    59de:	50 40       	sbci	r21, 0x00	; 0
    59e0:	d8 f7       	brcc	.-10     	; 0x59d8 <memcpy+0x6>
    59e2:	08 95       	ret

000059e4 <strcat>:
    59e4:	fb 01       	movw	r30, r22
    59e6:	dc 01       	movw	r26, r24
    59e8:	0d 90       	ld	r0, X+
    59ea:	00 20       	and	r0, r0
    59ec:	e9 f7       	brne	.-6      	; 0x59e8 <strcat+0x4>
    59ee:	11 97       	sbiw	r26, 0x01	; 1
    59f0:	01 90       	ld	r0, Z+
    59f2:	0d 92       	st	X+, r0
    59f4:	00 20       	and	r0, r0
    59f6:	e1 f7       	brne	.-8      	; 0x59f0 <strcat+0xc>
    59f8:	08 95       	ret

000059fa <strcmp>:
    59fa:	fb 01       	movw	r30, r22
    59fc:	dc 01       	movw	r26, r24
    59fe:	8d 91       	ld	r24, X+
    5a00:	01 90       	ld	r0, Z+
    5a02:	80 19       	sub	r24, r0
    5a04:	01 10       	cpse	r0, r1
    5a06:	d9 f3       	breq	.-10     	; 0x59fe <strcmp+0x4>
    5a08:	99 0b       	sbc	r25, r25
    5a0a:	08 95       	ret

00005a0c <strcpy>:
    5a0c:	fb 01       	movw	r30, r22
    5a0e:	dc 01       	movw	r26, r24
    5a10:	01 90       	ld	r0, Z+
    5a12:	0d 92       	st	X+, r0
    5a14:	00 20       	and	r0, r0
    5a16:	e1 f7       	brne	.-8      	; 0x5a10 <strcpy+0x4>
    5a18:	08 95       	ret

00005a1a <strnlen>:
    5a1a:	fc 01       	movw	r30, r24
    5a1c:	61 50       	subi	r22, 0x01	; 1
    5a1e:	70 40       	sbci	r23, 0x00	; 0
    5a20:	01 90       	ld	r0, Z+
    5a22:	01 10       	cpse	r0, r1
    5a24:	d8 f7       	brcc	.-10     	; 0x5a1c <strnlen+0x2>
    5a26:	80 95       	com	r24
    5a28:	90 95       	com	r25
    5a2a:	8e 0f       	add	r24, r30
    5a2c:	9f 1f       	adc	r25, r31
    5a2e:	08 95       	ret

00005a30 <__mulhi_const_10>:
    5a30:	7a e0       	ldi	r23, 0x0A	; 10
    5a32:	97 9f       	mul	r25, r23
    5a34:	90 2d       	mov	r25, r0
    5a36:	87 9f       	mul	r24, r23
    5a38:	80 2d       	mov	r24, r0
    5a3a:	91 0d       	add	r25, r1
    5a3c:	11 24       	eor	r1, r1
    5a3e:	08 95       	ret

00005a40 <fputc>:
    5a40:	0f 93       	push	r16
    5a42:	1f 93       	push	r17
    5a44:	cf 93       	push	r28
    5a46:	df 93       	push	r29
    5a48:	fb 01       	movw	r30, r22
    5a4a:	23 81       	ldd	r18, Z+3	; 0x03
    5a4c:	21 fd       	sbrc	r18, 1
    5a4e:	03 c0       	rjmp	.+6      	; 0x5a56 <fputc+0x16>
    5a50:	8f ef       	ldi	r24, 0xFF	; 255
    5a52:	9f ef       	ldi	r25, 0xFF	; 255
    5a54:	2c c0       	rjmp	.+88     	; 0x5aae <fputc+0x6e>
    5a56:	22 ff       	sbrs	r18, 2
    5a58:	16 c0       	rjmp	.+44     	; 0x5a86 <fputc+0x46>
    5a5a:	46 81       	ldd	r20, Z+6	; 0x06
    5a5c:	57 81       	ldd	r21, Z+7	; 0x07
    5a5e:	24 81       	ldd	r18, Z+4	; 0x04
    5a60:	35 81       	ldd	r19, Z+5	; 0x05
    5a62:	42 17       	cp	r20, r18
    5a64:	53 07       	cpc	r21, r19
    5a66:	44 f4       	brge	.+16     	; 0x5a78 <fputc+0x38>
    5a68:	a0 81       	ld	r26, Z
    5a6a:	b1 81       	ldd	r27, Z+1	; 0x01
    5a6c:	9d 01       	movw	r18, r26
    5a6e:	2f 5f       	subi	r18, 0xFF	; 255
    5a70:	3f 4f       	sbci	r19, 0xFF	; 255
    5a72:	31 83       	std	Z+1, r19	; 0x01
    5a74:	20 83       	st	Z, r18
    5a76:	8c 93       	st	X, r24
    5a78:	26 81       	ldd	r18, Z+6	; 0x06
    5a7a:	37 81       	ldd	r19, Z+7	; 0x07
    5a7c:	2f 5f       	subi	r18, 0xFF	; 255
    5a7e:	3f 4f       	sbci	r19, 0xFF	; 255
    5a80:	37 83       	std	Z+7, r19	; 0x07
    5a82:	26 83       	std	Z+6, r18	; 0x06
    5a84:	14 c0       	rjmp	.+40     	; 0x5aae <fputc+0x6e>
    5a86:	8b 01       	movw	r16, r22
    5a88:	ec 01       	movw	r28, r24
    5a8a:	fb 01       	movw	r30, r22
    5a8c:	00 84       	ldd	r0, Z+8	; 0x08
    5a8e:	f1 85       	ldd	r31, Z+9	; 0x09
    5a90:	e0 2d       	mov	r30, r0
    5a92:	09 95       	icall
    5a94:	89 2b       	or	r24, r25
    5a96:	e1 f6       	brne	.-72     	; 0x5a50 <fputc+0x10>
    5a98:	d8 01       	movw	r26, r16
    5a9a:	16 96       	adiw	r26, 0x06	; 6
    5a9c:	8d 91       	ld	r24, X+
    5a9e:	9c 91       	ld	r25, X
    5aa0:	17 97       	sbiw	r26, 0x07	; 7
    5aa2:	01 96       	adiw	r24, 0x01	; 1
    5aa4:	17 96       	adiw	r26, 0x07	; 7
    5aa6:	9c 93       	st	X, r25
    5aa8:	8e 93       	st	-X, r24
    5aaa:	16 97       	sbiw	r26, 0x06	; 6
    5aac:	ce 01       	movw	r24, r28
    5aae:	df 91       	pop	r29
    5ab0:	cf 91       	pop	r28
    5ab2:	1f 91       	pop	r17
    5ab4:	0f 91       	pop	r16
    5ab6:	08 95       	ret

00005ab8 <sprintf>:
    5ab8:	ae e0       	ldi	r26, 0x0E	; 14
    5aba:	b0 e0       	ldi	r27, 0x00	; 0
    5abc:	e2 e6       	ldi	r30, 0x62	; 98
    5abe:	fd e2       	ldi	r31, 0x2D	; 45
    5ac0:	0c 94 47 29 	jmp	0x528e	; 0x528e <__prologue_saves__+0x1c>
    5ac4:	0d 89       	ldd	r16, Y+21	; 0x15
    5ac6:	1e 89       	ldd	r17, Y+22	; 0x16
    5ac8:	86 e0       	ldi	r24, 0x06	; 6
    5aca:	8c 83       	std	Y+4, r24	; 0x04
    5acc:	1a 83       	std	Y+2, r17	; 0x02
    5ace:	09 83       	std	Y+1, r16	; 0x01
    5ad0:	8f ef       	ldi	r24, 0xFF	; 255
    5ad2:	9f e7       	ldi	r25, 0x7F	; 127
    5ad4:	9e 83       	std	Y+6, r25	; 0x06
    5ad6:	8d 83       	std	Y+5, r24	; 0x05
    5ad8:	ae 01       	movw	r20, r28
    5ada:	47 5e       	subi	r20, 0xE7	; 231
    5adc:	5f 4f       	sbci	r21, 0xFF	; 255
    5ade:	6f 89       	ldd	r22, Y+23	; 0x17
    5ae0:	78 8d       	ldd	r23, Y+24	; 0x18
    5ae2:	ce 01       	movw	r24, r28
    5ae4:	01 96       	adiw	r24, 0x01	; 1
    5ae6:	0e 94 a8 25 	call	0x4b50	; 0x4b50 <vfprintf>
    5aea:	ef 81       	ldd	r30, Y+7	; 0x07
    5aec:	f8 85       	ldd	r31, Y+8	; 0x08
    5aee:	e0 0f       	add	r30, r16
    5af0:	f1 1f       	adc	r31, r17
    5af2:	10 82       	st	Z, r1
    5af4:	2e 96       	adiw	r28, 0x0e	; 14
    5af6:	e4 e0       	ldi	r30, 0x04	; 4
    5af8:	0c 94 63 29 	jmp	0x52c6	; 0x52c6 <__epilogue_restores__+0x1c>

00005afc <__ultoa_invert>:
    5afc:	fa 01       	movw	r30, r20
    5afe:	aa 27       	eor	r26, r26
    5b00:	28 30       	cpi	r18, 0x08	; 8
    5b02:	51 f1       	breq	.+84     	; 0x5b58 <__ultoa_invert+0x5c>
    5b04:	20 31       	cpi	r18, 0x10	; 16
    5b06:	81 f1       	breq	.+96     	; 0x5b68 <__ultoa_invert+0x6c>
    5b08:	e8 94       	clt
    5b0a:	6f 93       	push	r22
    5b0c:	6e 7f       	andi	r22, 0xFE	; 254
    5b0e:	6e 5f       	subi	r22, 0xFE	; 254
    5b10:	7f 4f       	sbci	r23, 0xFF	; 255
    5b12:	8f 4f       	sbci	r24, 0xFF	; 255
    5b14:	9f 4f       	sbci	r25, 0xFF	; 255
    5b16:	af 4f       	sbci	r26, 0xFF	; 255
    5b18:	b1 e0       	ldi	r27, 0x01	; 1
    5b1a:	3e d0       	rcall	.+124    	; 0x5b98 <__ultoa_invert+0x9c>
    5b1c:	b4 e0       	ldi	r27, 0x04	; 4
    5b1e:	3c d0       	rcall	.+120    	; 0x5b98 <__ultoa_invert+0x9c>
    5b20:	67 0f       	add	r22, r23
    5b22:	78 1f       	adc	r23, r24
    5b24:	89 1f       	adc	r24, r25
    5b26:	9a 1f       	adc	r25, r26
    5b28:	a1 1d       	adc	r26, r1
    5b2a:	68 0f       	add	r22, r24
    5b2c:	79 1f       	adc	r23, r25
    5b2e:	8a 1f       	adc	r24, r26
    5b30:	91 1d       	adc	r25, r1
    5b32:	a1 1d       	adc	r26, r1
    5b34:	6a 0f       	add	r22, r26
    5b36:	71 1d       	adc	r23, r1
    5b38:	81 1d       	adc	r24, r1
    5b3a:	91 1d       	adc	r25, r1
    5b3c:	a1 1d       	adc	r26, r1
    5b3e:	20 d0       	rcall	.+64     	; 0x5b80 <__ultoa_invert+0x84>
    5b40:	09 f4       	brne	.+2      	; 0x5b44 <__ultoa_invert+0x48>
    5b42:	68 94       	set
    5b44:	3f 91       	pop	r19
    5b46:	2a e0       	ldi	r18, 0x0A	; 10
    5b48:	26 9f       	mul	r18, r22
    5b4a:	11 24       	eor	r1, r1
    5b4c:	30 19       	sub	r19, r0
    5b4e:	30 5d       	subi	r19, 0xD0	; 208
    5b50:	31 93       	st	Z+, r19
    5b52:	de f6       	brtc	.-74     	; 0x5b0a <__ultoa_invert+0xe>
    5b54:	cf 01       	movw	r24, r30
    5b56:	08 95       	ret
    5b58:	46 2f       	mov	r20, r22
    5b5a:	47 70       	andi	r20, 0x07	; 7
    5b5c:	40 5d       	subi	r20, 0xD0	; 208
    5b5e:	41 93       	st	Z+, r20
    5b60:	b3 e0       	ldi	r27, 0x03	; 3
    5b62:	0f d0       	rcall	.+30     	; 0x5b82 <__ultoa_invert+0x86>
    5b64:	c9 f7       	brne	.-14     	; 0x5b58 <__ultoa_invert+0x5c>
    5b66:	f6 cf       	rjmp	.-20     	; 0x5b54 <__ultoa_invert+0x58>
    5b68:	46 2f       	mov	r20, r22
    5b6a:	4f 70       	andi	r20, 0x0F	; 15
    5b6c:	40 5d       	subi	r20, 0xD0	; 208
    5b6e:	4a 33       	cpi	r20, 0x3A	; 58
    5b70:	18 f0       	brcs	.+6      	; 0x5b78 <__ultoa_invert+0x7c>
    5b72:	49 5d       	subi	r20, 0xD9	; 217
    5b74:	31 fd       	sbrc	r19, 1
    5b76:	40 52       	subi	r20, 0x20	; 32
    5b78:	41 93       	st	Z+, r20
    5b7a:	02 d0       	rcall	.+4      	; 0x5b80 <__ultoa_invert+0x84>
    5b7c:	a9 f7       	brne	.-22     	; 0x5b68 <__ultoa_invert+0x6c>
    5b7e:	ea cf       	rjmp	.-44     	; 0x5b54 <__ultoa_invert+0x58>
    5b80:	b4 e0       	ldi	r27, 0x04	; 4
    5b82:	a6 95       	lsr	r26
    5b84:	97 95       	ror	r25
    5b86:	87 95       	ror	r24
    5b88:	77 95       	ror	r23
    5b8a:	67 95       	ror	r22
    5b8c:	ba 95       	dec	r27
    5b8e:	c9 f7       	brne	.-14     	; 0x5b82 <__ultoa_invert+0x86>
    5b90:	00 97       	sbiw	r24, 0x00	; 0
    5b92:	61 05       	cpc	r22, r1
    5b94:	71 05       	cpc	r23, r1
    5b96:	08 95       	ret
    5b98:	9b 01       	movw	r18, r22
    5b9a:	ac 01       	movw	r20, r24
    5b9c:	0a 2e       	mov	r0, r26
    5b9e:	06 94       	lsr	r0
    5ba0:	57 95       	ror	r21
    5ba2:	47 95       	ror	r20
    5ba4:	37 95       	ror	r19
    5ba6:	27 95       	ror	r18
    5ba8:	ba 95       	dec	r27
    5baa:	c9 f7       	brne	.-14     	; 0x5b9e <__ultoa_invert+0xa2>
    5bac:	62 0f       	add	r22, r18
    5bae:	73 1f       	adc	r23, r19
    5bb0:	84 1f       	adc	r24, r20
    5bb2:	95 1f       	adc	r25, r21
    5bb4:	a0 1d       	adc	r26, r0
    5bb6:	08 95       	ret

00005bb8 <strtod>:
    5bb8:	a0 e0       	ldi	r26, 0x00	; 0
    5bba:	b0 e0       	ldi	r27, 0x00	; 0
    5bbc:	e2 ee       	ldi	r30, 0xE2	; 226
    5bbe:	fd e2       	ldi	r31, 0x2D	; 45
    5bc0:	0c 94 3f 29 	jmp	0x527e	; 0x527e <__prologue_saves__+0xc>
    5bc4:	ec 01       	movw	r28, r24
    5bc6:	6b 01       	movw	r12, r22
    5bc8:	61 15       	cp	r22, r1
    5bca:	71 05       	cpc	r23, r1
    5bcc:	19 f0       	breq	.+6      	; 0x5bd4 <strtod+0x1c>
    5bce:	fb 01       	movw	r30, r22
    5bd0:	91 83       	std	Z+1, r25	; 0x01
    5bd2:	80 83       	st	Z, r24
    5bd4:	7e 01       	movw	r14, r28
    5bd6:	ff ef       	ldi	r31, 0xFF	; 255
    5bd8:	ef 1a       	sub	r14, r31
    5bda:	ff 0a       	sbc	r15, r31
    5bdc:	08 81       	ld	r16, Y
    5bde:	80 2f       	mov	r24, r16
    5be0:	90 e0       	ldi	r25, 0x00	; 0
    5be2:	0e 94 cd 2c 	call	0x599a	; 0x599a <isspace>
    5be6:	89 2b       	or	r24, r25
    5be8:	11 f0       	breq	.+4      	; 0x5bee <strtod+0x36>
    5bea:	e7 01       	movw	r28, r14
    5bec:	f3 cf       	rjmp	.-26     	; 0x5bd4 <strtod+0x1c>
    5bee:	0d 32       	cpi	r16, 0x2D	; 45
    5bf0:	39 f4       	brne	.+14     	; 0x5c00 <strtod+0x48>
    5bf2:	7e 01       	movw	r14, r28
    5bf4:	82 e0       	ldi	r24, 0x02	; 2
    5bf6:	e8 0e       	add	r14, r24
    5bf8:	f1 1c       	adc	r15, r1
    5bfa:	09 81       	ldd	r16, Y+1	; 0x01
    5bfc:	11 e0       	ldi	r17, 0x01	; 1
    5bfe:	08 c0       	rjmp	.+16     	; 0x5c10 <strtod+0x58>
    5c00:	0b 32       	cpi	r16, 0x2B	; 43
    5c02:	29 f4       	brne	.+10     	; 0x5c0e <strtod+0x56>
    5c04:	7e 01       	movw	r14, r28
    5c06:	92 e0       	ldi	r25, 0x02	; 2
    5c08:	e9 0e       	add	r14, r25
    5c0a:	f1 1c       	adc	r15, r1
    5c0c:	09 81       	ldd	r16, Y+1	; 0x01
    5c0e:	10 e0       	ldi	r17, 0x00	; 0
    5c10:	e7 01       	movw	r28, r14
    5c12:	21 97       	sbiw	r28, 0x01	; 1
    5c14:	43 e0       	ldi	r20, 0x03	; 3
    5c16:	50 e0       	ldi	r21, 0x00	; 0
    5c18:	6e e5       	ldi	r22, 0x5E	; 94
    5c1a:	71 e0       	ldi	r23, 0x01	; 1
    5c1c:	ce 01       	movw	r24, r28
    5c1e:	0e 94 2a 2f 	call	0x5e54	; 0x5e54 <strncasecmp_P>
    5c22:	89 2b       	or	r24, r25
    5c24:	c1 f4       	brne	.+48     	; 0x5c56 <strtod+0x9e>
    5c26:	23 96       	adiw	r28, 0x03	; 3
    5c28:	45 e0       	ldi	r20, 0x05	; 5
    5c2a:	50 e0       	ldi	r21, 0x00	; 0
    5c2c:	69 e5       	ldi	r22, 0x59	; 89
    5c2e:	71 e0       	ldi	r23, 0x01	; 1
    5c30:	ce 01       	movw	r24, r28
    5c32:	0e 94 2a 2f 	call	0x5e54	; 0x5e54 <strncasecmp_P>
    5c36:	89 2b       	or	r24, r25
    5c38:	09 f4       	brne	.+2      	; 0x5c3c <strtod+0x84>
    5c3a:	25 96       	adiw	r28, 0x05	; 5
    5c3c:	c1 14       	cp	r12, r1
    5c3e:	d1 04       	cpc	r13, r1
    5c40:	19 f0       	breq	.+6      	; 0x5c48 <strtod+0x90>
    5c42:	f6 01       	movw	r30, r12
    5c44:	d1 83       	std	Z+1, r29	; 0x01
    5c46:	c0 83       	st	Z, r28
    5c48:	11 11       	cpse	r17, r1
    5c4a:	f6 c0       	rjmp	.+492    	; 0x5e38 <strtod+0x280>
    5c4c:	60 e0       	ldi	r22, 0x00	; 0
    5c4e:	70 e0       	ldi	r23, 0x00	; 0
    5c50:	80 e8       	ldi	r24, 0x80	; 128
    5c52:	9f e7       	ldi	r25, 0x7F	; 127
    5c54:	fa c0       	rjmp	.+500    	; 0x5e4a <strtod+0x292>
    5c56:	43 e0       	ldi	r20, 0x03	; 3
    5c58:	50 e0       	ldi	r21, 0x00	; 0
    5c5a:	66 e5       	ldi	r22, 0x56	; 86
    5c5c:	71 e0       	ldi	r23, 0x01	; 1
    5c5e:	ce 01       	movw	r24, r28
    5c60:	0e 94 2a 2f 	call	0x5e54	; 0x5e54 <strncasecmp_P>
    5c64:	89 2b       	or	r24, r25
    5c66:	59 f4       	brne	.+22     	; 0x5c7e <strtod+0xc6>
    5c68:	c1 14       	cp	r12, r1
    5c6a:	d1 04       	cpc	r13, r1
    5c6c:	09 f4       	brne	.+2      	; 0x5c70 <strtod+0xb8>
    5c6e:	e9 c0       	rjmp	.+466    	; 0x5e42 <strtod+0x28a>
    5c70:	f2 e0       	ldi	r31, 0x02	; 2
    5c72:	ef 0e       	add	r14, r31
    5c74:	f1 1c       	adc	r15, r1
    5c76:	f6 01       	movw	r30, r12
    5c78:	f1 82       	std	Z+1, r15	; 0x01
    5c7a:	e0 82       	st	Z, r14
    5c7c:	e2 c0       	rjmp	.+452    	; 0x5e42 <strtod+0x28a>
    5c7e:	20 e0       	ldi	r18, 0x00	; 0
    5c80:	30 e0       	ldi	r19, 0x00	; 0
    5c82:	a9 01       	movw	r20, r18
    5c84:	c0 e0       	ldi	r28, 0x00	; 0
    5c86:	d0 e0       	ldi	r29, 0x00	; 0
    5c88:	f7 01       	movw	r30, r14
    5c8a:	80 ed       	ldi	r24, 0xD0	; 208
    5c8c:	a8 2e       	mov	r10, r24
    5c8e:	a0 0e       	add	r10, r16
    5c90:	89 e0       	ldi	r24, 0x09	; 9
    5c92:	8a 15       	cp	r24, r10
    5c94:	30 f1       	brcs	.+76     	; 0x5ce2 <strtod+0x12a>
    5c96:	91 2f       	mov	r25, r17
    5c98:	92 60       	ori	r25, 0x02	; 2
    5c9a:	b9 2e       	mov	r11, r25
    5c9c:	81 2f       	mov	r24, r17
    5c9e:	88 70       	andi	r24, 0x08	; 8
    5ca0:	12 ff       	sbrs	r17, 2
    5ca2:	04 c0       	rjmp	.+8      	; 0x5cac <strtod+0xf4>
    5ca4:	81 11       	cpse	r24, r1
    5ca6:	24 c0       	rjmp	.+72     	; 0x5cf0 <strtod+0x138>
    5ca8:	21 96       	adiw	r28, 0x01	; 1
    5caa:	22 c0       	rjmp	.+68     	; 0x5cf0 <strtod+0x138>
    5cac:	81 11       	cpse	r24, r1
    5cae:	21 97       	sbiw	r28, 0x01	; 1
    5cb0:	a5 e0       	ldi	r26, 0x05	; 5
    5cb2:	b0 e0       	ldi	r27, 0x00	; 0
    5cb4:	0e 94 89 2f 	call	0x5f12	; 0x5f12 <__muluhisi3>
    5cb8:	dc 01       	movw	r26, r24
    5cba:	cb 01       	movw	r24, r22
    5cbc:	88 0f       	add	r24, r24
    5cbe:	99 1f       	adc	r25, r25
    5cc0:	aa 1f       	adc	r26, r26
    5cc2:	bb 1f       	adc	r27, r27
    5cc4:	9c 01       	movw	r18, r24
    5cc6:	ad 01       	movw	r20, r26
    5cc8:	2a 0d       	add	r18, r10
    5cca:	31 1d       	adc	r19, r1
    5ccc:	41 1d       	adc	r20, r1
    5cce:	51 1d       	adc	r21, r1
    5cd0:	28 39       	cpi	r18, 0x98	; 152
    5cd2:	89 e9       	ldi	r24, 0x99	; 153
    5cd4:	38 07       	cpc	r19, r24
    5cd6:	48 07       	cpc	r20, r24
    5cd8:	89 e1       	ldi	r24, 0x19	; 25
    5cda:	58 07       	cpc	r21, r24
    5cdc:	48 f0       	brcs	.+18     	; 0x5cf0 <strtod+0x138>
    5cde:	16 60       	ori	r17, 0x06	; 6
    5ce0:	06 c0       	rjmp	.+12     	; 0x5cee <strtod+0x136>
    5ce2:	9e ef       	ldi	r25, 0xFE	; 254
    5ce4:	a9 12       	cpse	r10, r25
    5ce6:	0a c0       	rjmp	.+20     	; 0x5cfc <strtod+0x144>
    5ce8:	13 fd       	sbrc	r17, 3
    5cea:	40 c0       	rjmp	.+128    	; 0x5d6c <strtod+0x1b4>
    5cec:	18 60       	ori	r17, 0x08	; 8
    5cee:	b1 2e       	mov	r11, r17
    5cf0:	8f ef       	ldi	r24, 0xFF	; 255
    5cf2:	e8 1a       	sub	r14, r24
    5cf4:	f8 0a       	sbc	r15, r24
    5cf6:	00 81       	ld	r16, Z
    5cf8:	1b 2d       	mov	r17, r11
    5cfa:	c6 cf       	rjmp	.-116    	; 0x5c88 <strtod+0xd0>
    5cfc:	80 2f       	mov	r24, r16
    5cfe:	8f 7d       	andi	r24, 0xDF	; 223
    5d00:	85 34       	cpi	r24, 0x45	; 69
    5d02:	a1 f5       	brne	.+104    	; 0x5d6c <strtod+0x1b4>
    5d04:	80 81       	ld	r24, Z
    5d06:	8d 32       	cpi	r24, 0x2D	; 45
    5d08:	11 f4       	brne	.+4      	; 0x5d0e <strtod+0x156>
    5d0a:	10 61       	ori	r17, 0x10	; 16
    5d0c:	06 c0       	rjmp	.+12     	; 0x5d1a <strtod+0x162>
    5d0e:	8b 32       	cpi	r24, 0x2B	; 43
    5d10:	21 f0       	breq	.+8      	; 0x5d1a <strtod+0x162>
    5d12:	31 96       	adiw	r30, 0x01	; 1
    5d14:	61 e0       	ldi	r22, 0x01	; 1
    5d16:	70 e0       	ldi	r23, 0x00	; 0
    5d18:	04 c0       	rjmp	.+8      	; 0x5d22 <strtod+0x16a>
    5d1a:	81 81       	ldd	r24, Z+1	; 0x01
    5d1c:	32 96       	adiw	r30, 0x02	; 2
    5d1e:	62 e0       	ldi	r22, 0x02	; 2
    5d20:	70 e0       	ldi	r23, 0x00	; 0
    5d22:	80 53       	subi	r24, 0x30	; 48
    5d24:	8a 30       	cpi	r24, 0x0A	; 10
    5d26:	18 f0       	brcs	.+6      	; 0x5d2e <strtod+0x176>
    5d28:	e6 1b       	sub	r30, r22
    5d2a:	f7 0b       	sbc	r31, r23
    5d2c:	1f c0       	rjmp	.+62     	; 0x5d6c <strtod+0x1b4>
    5d2e:	60 e0       	ldi	r22, 0x00	; 0
    5d30:	70 e0       	ldi	r23, 0x00	; 0
    5d32:	60 38       	cpi	r22, 0x80	; 128
    5d34:	9c e0       	ldi	r25, 0x0C	; 12
    5d36:	79 07       	cpc	r23, r25
    5d38:	5c f4       	brge	.+22     	; 0x5d50 <strtod+0x198>
    5d3a:	db 01       	movw	r26, r22
    5d3c:	aa 0f       	add	r26, r26
    5d3e:	bb 1f       	adc	r27, r27
    5d40:	aa 0f       	add	r26, r26
    5d42:	bb 1f       	adc	r27, r27
    5d44:	6a 0f       	add	r22, r26
    5d46:	7b 1f       	adc	r23, r27
    5d48:	66 0f       	add	r22, r22
    5d4a:	77 1f       	adc	r23, r23
    5d4c:	68 0f       	add	r22, r24
    5d4e:	71 1d       	adc	r23, r1
    5d50:	31 96       	adiw	r30, 0x01	; 1
    5d52:	df 01       	movw	r26, r30
    5d54:	11 97       	sbiw	r26, 0x01	; 1
    5d56:	8c 91       	ld	r24, X
    5d58:	80 53       	subi	r24, 0x30	; 48
    5d5a:	8a 30       	cpi	r24, 0x0A	; 10
    5d5c:	50 f3       	brcs	.-44     	; 0x5d32 <strtod+0x17a>
    5d5e:	14 ff       	sbrs	r17, 4
    5d60:	03 c0       	rjmp	.+6      	; 0x5d68 <strtod+0x1b0>
    5d62:	71 95       	neg	r23
    5d64:	61 95       	neg	r22
    5d66:	71 09       	sbc	r23, r1
    5d68:	c6 0f       	add	r28, r22
    5d6a:	d7 1f       	adc	r29, r23
    5d6c:	11 ff       	sbrs	r17, 1
    5d6e:	08 c0       	rjmp	.+16     	; 0x5d80 <strtod+0x1c8>
    5d70:	c1 14       	cp	r12, r1
    5d72:	d1 04       	cpc	r13, r1
    5d74:	29 f0       	breq	.+10     	; 0x5d80 <strtod+0x1c8>
    5d76:	cf 01       	movw	r24, r30
    5d78:	01 97       	sbiw	r24, 0x01	; 1
    5d7a:	f6 01       	movw	r30, r12
    5d7c:	91 83       	std	Z+1, r25	; 0x01
    5d7e:	80 83       	st	Z, r24
    5d80:	ca 01       	movw	r24, r20
    5d82:	b9 01       	movw	r22, r18
    5d84:	0e 94 84 24 	call	0x4908	; 0x4908 <__floatunsisf>
    5d88:	21 2f       	mov	r18, r17
    5d8a:	23 70       	andi	r18, 0x03	; 3
    5d8c:	23 30       	cpi	r18, 0x03	; 3
    5d8e:	19 f0       	breq	.+6      	; 0x5d96 <strtod+0x1de>
    5d90:	4b 01       	movw	r8, r22
    5d92:	5c 01       	movw	r10, r24
    5d94:	06 c0       	rjmp	.+12     	; 0x5da2 <strtod+0x1ea>
    5d96:	4b 01       	movw	r8, r22
    5d98:	5c 01       	movw	r10, r24
    5d9a:	b7 fa       	bst	r11, 7
    5d9c:	b0 94       	com	r11
    5d9e:	b7 f8       	bld	r11, 7
    5da0:	b0 94       	com	r11
    5da2:	20 e0       	ldi	r18, 0x00	; 0
    5da4:	30 e0       	ldi	r19, 0x00	; 0
    5da6:	a9 01       	movw	r20, r18
    5da8:	c5 01       	movw	r24, r10
    5daa:	b4 01       	movw	r22, r8
    5dac:	0e 94 d7 23 	call	0x47ae	; 0x47ae <__cmpsf2>
    5db0:	88 23       	and	r24, r24
    5db2:	09 f4       	brne	.+2      	; 0x5db6 <strtod+0x1fe>
    5db4:	3e c0       	rjmp	.+124    	; 0x5e32 <strtod+0x27a>
    5db6:	d7 ff       	sbrs	r29, 7
    5db8:	06 c0       	rjmp	.+12     	; 0x5dc6 <strtod+0x20e>
    5dba:	d1 95       	neg	r29
    5dbc:	c1 95       	neg	r28
    5dbe:	d1 09       	sbc	r29, r1
    5dc0:	05 e7       	ldi	r16, 0x75	; 117
    5dc2:	11 e0       	ldi	r17, 0x01	; 1
    5dc4:	02 c0       	rjmp	.+4      	; 0x5dca <strtod+0x212>
    5dc6:	0d e8       	ldi	r16, 0x8D	; 141
    5dc8:	11 e0       	ldi	r17, 0x01	; 1
    5dca:	68 01       	movw	r12, r16
    5dcc:	f8 e1       	ldi	r31, 0x18	; 24
    5dce:	cf 1a       	sub	r12, r31
    5dd0:	d1 08       	sbc	r13, r1
    5dd2:	90 e2       	ldi	r25, 0x20	; 32
    5dd4:	e9 2e       	mov	r14, r25
    5dd6:	f1 2c       	mov	r15, r1
    5dd8:	ce 15       	cp	r28, r14
    5dda:	df 05       	cpc	r29, r15
    5ddc:	74 f0       	brlt	.+28     	; 0x5dfa <strtod+0x242>
    5dde:	f8 01       	movw	r30, r16
    5de0:	25 91       	lpm	r18, Z+
    5de2:	35 91       	lpm	r19, Z+
    5de4:	45 91       	lpm	r20, Z+
    5de6:	54 91       	lpm	r21, Z
    5de8:	c5 01       	movw	r24, r10
    5dea:	b4 01       	movw	r22, r8
    5dec:	0e 94 3b 25 	call	0x4a76	; 0x4a76 <__mulsf3>
    5df0:	4b 01       	movw	r8, r22
    5df2:	5c 01       	movw	r10, r24
    5df4:	ce 19       	sub	r28, r14
    5df6:	df 09       	sbc	r29, r15
    5df8:	ef cf       	rjmp	.-34     	; 0x5dd8 <strtod+0x220>
    5dfa:	04 50       	subi	r16, 0x04	; 4
    5dfc:	11 09       	sbc	r17, r1
    5dfe:	f5 94       	asr	r15
    5e00:	e7 94       	ror	r14
    5e02:	0c 15       	cp	r16, r12
    5e04:	1d 05       	cpc	r17, r13
    5e06:	41 f7       	brne	.-48     	; 0x5dd8 <strtod+0x220>
    5e08:	8a 2d       	mov	r24, r10
    5e0a:	88 0f       	add	r24, r24
    5e0c:	8b 2d       	mov	r24, r11
    5e0e:	88 1f       	adc	r24, r24
    5e10:	8f 3f       	cpi	r24, 0xFF	; 255
    5e12:	49 f0       	breq	.+18     	; 0x5e26 <strtod+0x26e>
    5e14:	20 e0       	ldi	r18, 0x00	; 0
    5e16:	30 e0       	ldi	r19, 0x00	; 0
    5e18:	a9 01       	movw	r20, r18
    5e1a:	c5 01       	movw	r24, r10
    5e1c:	b4 01       	movw	r22, r8
    5e1e:	0e 94 d7 23 	call	0x47ae	; 0x47ae <__cmpsf2>
    5e22:	81 11       	cpse	r24, r1
    5e24:	06 c0       	rjmp	.+12     	; 0x5e32 <strtod+0x27a>
    5e26:	82 e2       	ldi	r24, 0x22	; 34
    5e28:	90 e0       	ldi	r25, 0x00	; 0
    5e2a:	90 93 87 02 	sts	0x0287, r25	; 0x800287 <errno+0x1>
    5e2e:	80 93 86 02 	sts	0x0286, r24	; 0x800286 <errno>
    5e32:	c5 01       	movw	r24, r10
    5e34:	b4 01       	movw	r22, r8
    5e36:	09 c0       	rjmp	.+18     	; 0x5e4a <strtod+0x292>
    5e38:	60 e0       	ldi	r22, 0x00	; 0
    5e3a:	70 e0       	ldi	r23, 0x00	; 0
    5e3c:	80 e8       	ldi	r24, 0x80	; 128
    5e3e:	9f ef       	ldi	r25, 0xFF	; 255
    5e40:	04 c0       	rjmp	.+8      	; 0x5e4a <strtod+0x292>
    5e42:	60 e0       	ldi	r22, 0x00	; 0
    5e44:	70 e0       	ldi	r23, 0x00	; 0
    5e46:	80 ec       	ldi	r24, 0xC0	; 192
    5e48:	9f e7       	ldi	r25, 0x7F	; 127
    5e4a:	cd b7       	in	r28, 0x3d	; 61
    5e4c:	de b7       	in	r29, 0x3e	; 62
    5e4e:	ec e0       	ldi	r30, 0x0C	; 12
    5e50:	0c 94 5b 29 	jmp	0x52b6	; 0x52b6 <__epilogue_restores__+0xc>

00005e54 <strncasecmp_P>:
    5e54:	fb 01       	movw	r30, r22
    5e56:	dc 01       	movw	r26, r24
    5e58:	41 50       	subi	r20, 0x01	; 1
    5e5a:	50 40       	sbci	r21, 0x00	; 0
    5e5c:	88 f0       	brcs	.+34     	; 0x5e80 <strncasecmp_P+0x2c>
    5e5e:	8d 91       	ld	r24, X+
    5e60:	81 34       	cpi	r24, 0x41	; 65
    5e62:	1c f0       	brlt	.+6      	; 0x5e6a <strncasecmp_P+0x16>
    5e64:	8b 35       	cpi	r24, 0x5B	; 91
    5e66:	0c f4       	brge	.+2      	; 0x5e6a <strncasecmp_P+0x16>
    5e68:	80 5e       	subi	r24, 0xE0	; 224
    5e6a:	65 91       	lpm	r22, Z+
    5e6c:	61 34       	cpi	r22, 0x41	; 65
    5e6e:	1c f0       	brlt	.+6      	; 0x5e76 <strncasecmp_P+0x22>
    5e70:	6b 35       	cpi	r22, 0x5B	; 91
    5e72:	0c f4       	brge	.+2      	; 0x5e76 <strncasecmp_P+0x22>
    5e74:	60 5e       	subi	r22, 0xE0	; 224
    5e76:	86 1b       	sub	r24, r22
    5e78:	61 11       	cpse	r22, r1
    5e7a:	71 f3       	breq	.-36     	; 0x5e58 <strncasecmp_P+0x4>
    5e7c:	99 0b       	sbc	r25, r25
    5e7e:	08 95       	ret
    5e80:	88 1b       	sub	r24, r24
    5e82:	fc cf       	rjmp	.-8      	; 0x5e7c <strncasecmp_P+0x28>

00005e84 <eeprom_read_byte>:
    5e84:	e1 99       	sbic	0x1c, 1	; 28
    5e86:	fe cf       	rjmp	.-4      	; 0x5e84 <eeprom_read_byte>
    5e88:	9f bb       	out	0x1f, r25	; 31
    5e8a:	8e bb       	out	0x1e, r24	; 30
    5e8c:	e0 9a       	sbi	0x1c, 0	; 28
    5e8e:	99 27       	eor	r25, r25
    5e90:	8d b3       	in	r24, 0x1d	; 29
    5e92:	08 95       	ret

00005e94 <eeprom_write_byte>:
    5e94:	26 2f       	mov	r18, r22

00005e96 <eeprom_write_r18>:
    5e96:	e1 99       	sbic	0x1c, 1	; 28
    5e98:	fe cf       	rjmp	.-4      	; 0x5e96 <eeprom_write_r18>
    5e9a:	9f bb       	out	0x1f, r25	; 31
    5e9c:	8e bb       	out	0x1e, r24	; 30
    5e9e:	2d bb       	out	0x1d, r18	; 29
    5ea0:	0f b6       	in	r0, 0x3f	; 63
    5ea2:	f8 94       	cli
    5ea4:	e2 9a       	sbi	0x1c, 2	; 28
    5ea6:	e1 9a       	sbi	0x1c, 1	; 28
    5ea8:	0f be       	out	0x3f, r0	; 63
    5eaa:	01 96       	adiw	r24, 0x01	; 1
    5eac:	08 95       	ret

00005eae <__mulsi3>:
    5eae:	db 01       	movw	r26, r22
    5eb0:	8f 93       	push	r24
    5eb2:	9f 93       	push	r25
    5eb4:	0e 94 89 2f 	call	0x5f12	; 0x5f12 <__muluhisi3>
    5eb8:	bf 91       	pop	r27
    5eba:	af 91       	pop	r26
    5ebc:	a2 9f       	mul	r26, r18
    5ebe:	80 0d       	add	r24, r0
    5ec0:	91 1d       	adc	r25, r1
    5ec2:	a3 9f       	mul	r26, r19
    5ec4:	90 0d       	add	r25, r0
    5ec6:	b2 9f       	mul	r27, r18
    5ec8:	90 0d       	add	r25, r0
    5eca:	11 24       	eor	r1, r1
    5ecc:	08 95       	ret

00005ece <__udivmodsi4>:
    5ece:	a1 e2       	ldi	r26, 0x21	; 33
    5ed0:	1a 2e       	mov	r1, r26
    5ed2:	aa 1b       	sub	r26, r26
    5ed4:	bb 1b       	sub	r27, r27
    5ed6:	fd 01       	movw	r30, r26
    5ed8:	0d c0       	rjmp	.+26     	; 0x5ef4 <__udivmodsi4_ep>

00005eda <__udivmodsi4_loop>:
    5eda:	aa 1f       	adc	r26, r26
    5edc:	bb 1f       	adc	r27, r27
    5ede:	ee 1f       	adc	r30, r30
    5ee0:	ff 1f       	adc	r31, r31
    5ee2:	a2 17       	cp	r26, r18
    5ee4:	b3 07       	cpc	r27, r19
    5ee6:	e4 07       	cpc	r30, r20
    5ee8:	f5 07       	cpc	r31, r21
    5eea:	20 f0       	brcs	.+8      	; 0x5ef4 <__udivmodsi4_ep>
    5eec:	a2 1b       	sub	r26, r18
    5eee:	b3 0b       	sbc	r27, r19
    5ef0:	e4 0b       	sbc	r30, r20
    5ef2:	f5 0b       	sbc	r31, r21

00005ef4 <__udivmodsi4_ep>:
    5ef4:	66 1f       	adc	r22, r22
    5ef6:	77 1f       	adc	r23, r23
    5ef8:	88 1f       	adc	r24, r24
    5efa:	99 1f       	adc	r25, r25
    5efc:	1a 94       	dec	r1
    5efe:	69 f7       	brne	.-38     	; 0x5eda <__udivmodsi4_loop>
    5f00:	60 95       	com	r22
    5f02:	70 95       	com	r23
    5f04:	80 95       	com	r24
    5f06:	90 95       	com	r25
    5f08:	9b 01       	movw	r18, r22
    5f0a:	ac 01       	movw	r20, r24
    5f0c:	bd 01       	movw	r22, r26
    5f0e:	cf 01       	movw	r24, r30
    5f10:	08 95       	ret

00005f12 <__muluhisi3>:
    5f12:	0e 94 94 2f 	call	0x5f28	; 0x5f28 <__umulhisi3>
    5f16:	a5 9f       	mul	r26, r21
    5f18:	90 0d       	add	r25, r0
    5f1a:	b4 9f       	mul	r27, r20
    5f1c:	90 0d       	add	r25, r0
    5f1e:	a4 9f       	mul	r26, r20
    5f20:	80 0d       	add	r24, r0
    5f22:	91 1d       	adc	r25, r1
    5f24:	11 24       	eor	r1, r1
    5f26:	08 95       	ret

00005f28 <__umulhisi3>:
    5f28:	a2 9f       	mul	r26, r18
    5f2a:	b0 01       	movw	r22, r0
    5f2c:	b3 9f       	mul	r27, r19
    5f2e:	c0 01       	movw	r24, r0
    5f30:	a3 9f       	mul	r26, r19
    5f32:	70 0d       	add	r23, r0
    5f34:	81 1d       	adc	r24, r1
    5f36:	11 24       	eor	r1, r1
    5f38:	91 1d       	adc	r25, r1
    5f3a:	b2 9f       	mul	r27, r18
    5f3c:	70 0d       	add	r23, r0
    5f3e:	81 1d       	adc	r24, r1
    5f40:	11 24       	eor	r1, r1
    5f42:	91 1d       	adc	r25, r1
    5f44:	08 95       	ret

00005f46 <_exit>:
    5f46:	f8 94       	cli

00005f48 <__stop_program>:
    5f48:	ff cf       	rjmp	.-2      	; 0x5f48 <__stop_program>
