
cc1284.elf:     file format elf32-avr

Sections:
Idx Name          Size      VMA       LMA       File off  Algn
  0 .data         00000258  00800100  00006946  000069fa  2**0
                  CONTENTS, ALLOC, LOAD, DATA
  1 .text         00006946  00000000  00000000  000000b4  2**1
                  CONTENTS, ALLOC, LOAD, READONLY, CODE
  2 .bss          000000e0  00800358  00800358  00006c52  2**0
                  ALLOC
  3 .eeprom       00001000  00810000  00810000  00006c52  2**0
                  CONTENTS, ALLOC, LOAD, DATA
  4 .comment      0000005c  00000000  00000000  00007c52  2**0
                  CONTENTS, READONLY
  5 .note.gnu.avr.deviceinfo 00000040  00000000  00000000  00007cb0  2**2
                  CONTENTS, READONLY
  6 .debug_aranges 00000040  00000000  00000000  00007cf0  2**3
                  CONTENTS, READONLY, DEBUGGING
  7 .debug_info   000008ec  00000000  00000000  00007d30  2**0
                  CONTENTS, READONLY, DEBUGGING
  8 .debug_abbrev 00000751  00000000  00000000  0000861c  2**0
                  CONTENTS, READONLY, DEBUGGING
  9 .debug_line   00000281  00000000  00000000  00008d6d  2**0
                  CONTENTS, READONLY, DEBUGGING
 10 .debug_str    00000296  00000000  00000000  00008fee  2**0
                  CONTENTS, READONLY, DEBUGGING

Disassembly of section .text:

00000000 <__vectors>:
       0:	e4 c0       	rjmp	.+456    	; 0x1ca <__ctors_end>
       2:	00 00       	nop
       4:	0d c1       	rjmp	.+538    	; 0x220 <__bad_interrupt>
       6:	00 00       	nop
       8:	0b c1       	rjmp	.+534    	; 0x220 <__bad_interrupt>
       a:	00 00       	nop
       c:	09 c1       	rjmp	.+530    	; 0x220 <__bad_interrupt>
       e:	00 00       	nop
      10:	07 c1       	rjmp	.+526    	; 0x220 <__bad_interrupt>
      12:	00 00       	nop
      14:	05 c1       	rjmp	.+522    	; 0x220 <__bad_interrupt>
      16:	00 00       	nop
      18:	03 c1       	rjmp	.+518    	; 0x220 <__bad_interrupt>
      1a:	00 00       	nop
      1c:	01 c1       	rjmp	.+514    	; 0x220 <__bad_interrupt>
      1e:	00 00       	nop
      20:	ff c0       	rjmp	.+510    	; 0x220 <__bad_interrupt>
      22:	00 00       	nop
      24:	fd c0       	rjmp	.+506    	; 0x220 <__bad_interrupt>
      26:	00 00       	nop
      28:	fb c0       	rjmp	.+502    	; 0x220 <__bad_interrupt>
      2a:	00 00       	nop
      2c:	f9 c0       	rjmp	.+498    	; 0x220 <__bad_interrupt>
      2e:	00 00       	nop
      30:	f7 c0       	rjmp	.+494    	; 0x220 <__bad_interrupt>
      32:	00 00       	nop
      34:	f5 c0       	rjmp	.+490    	; 0x220 <__bad_interrupt>
      36:	00 00       	nop
      38:	f3 c0       	rjmp	.+486    	; 0x220 <__bad_interrupt>
      3a:	00 00       	nop
      3c:	f1 c0       	rjmp	.+482    	; 0x220 <__bad_interrupt>
      3e:	00 00       	nop
      40:	ef c0       	rjmp	.+478    	; 0x220 <__bad_interrupt>
      42:	00 00       	nop
      44:	ed c0       	rjmp	.+474    	; 0x220 <__bad_interrupt>
      46:	00 00       	nop
      48:	eb c0       	rjmp	.+470    	; 0x220 <__bad_interrupt>
      4a:	00 00       	nop
      4c:	e9 c0       	rjmp	.+466    	; 0x220 <__bad_interrupt>
      4e:	00 00       	nop
      50:	0c 94 c4 18 	jmp	0x3188	; 0x3188 <__vector_20>
      54:	e5 c0       	rjmp	.+458    	; 0x220 <__bad_interrupt>
      56:	00 00       	nop
      58:	e3 c0       	rjmp	.+454    	; 0x220 <__bad_interrupt>
      5a:	00 00       	nop
      5c:	e1 c0       	rjmp	.+450    	; 0x220 <__bad_interrupt>
      5e:	00 00       	nop
      60:	df c0       	rjmp	.+446    	; 0x220 <__bad_interrupt>
      62:	00 00       	nop
      64:	dd c0       	rjmp	.+442    	; 0x220 <__bad_interrupt>
      66:	00 00       	nop
      68:	db c0       	rjmp	.+438    	; 0x220 <__bad_interrupt>
      6a:	00 00       	nop
      6c:	d9 c0       	rjmp	.+434    	; 0x220 <__bad_interrupt>
      6e:	00 00       	nop
      70:	0c 94 f8 18 	jmp	0x31f0	; 0x31f0 <__vector_28>
      74:	d5 c0       	rjmp	.+426    	; 0x220 <__bad_interrupt>
      76:	00 00       	nop
      78:	d3 c0       	rjmp	.+422    	; 0x220 <__bad_interrupt>
      7a:	00 00       	nop
      7c:	d1 c0       	rjmp	.+418    	; 0x220 <__bad_interrupt>
      7e:	00 00       	nop
      80:	cf c0       	rjmp	.+414    	; 0x220 <__bad_interrupt>
      82:	00 00       	nop
      84:	cd c0       	rjmp	.+410    	; 0x220 <__bad_interrupt>
      86:	00 00       	nop
      88:	cb c0       	rjmp	.+406    	; 0x220 <__bad_interrupt>
	...

0000008c <__trampolines_end>:
      8c:	6e 61       	ori	r22, 0x1E	; 30
      8e:	6e 00       	.word	0x006e	; ????

00000090 <__c.2332>:
      90:	69 6e 66 00 00 40 7a 10 f3 5a 00 a0 72 4e 18 09     inf..@z..Z..rN..
      a0:	00 10 a5 d4 e8 00 00 e8 76 48 17 00 00 e4 0b 54     ........vH.....T
      b0:	02 00 00 ca 9a 3b 00 00 00 e1 f5 05 00 00 80 96     .....;..........
      c0:	98 00 00 00 40 42 0f 00 00 00 a0 86 01 00 00 00     ....@B..........
      d0:	10 27 00 00 00 00 e8 03 00 00 00 00 64 00 00 00     .'..........d...
      e0:	00 00 0a 00 00 00 00 00 01 00 00 00 00 00 2c 76     ..............,v
      f0:	d8 88 dc 67 4f 08 23 df c1 df ae 59 e1 b1 b7 96     ...gO.#....Y....
     100:	e5 e3 e4 53 c6 3a e6 51 99 76 96 e8 e6 c2 84 26     ...S.:.Q.v.....&
     110:	eb 89 8c 9b 62 ed 40 7c 6f fc ef bc 9c 9f 40 f2     ....b.@|o.....@.
     120:	ba a5 6f a5 f4 90 05 5a 2a f7 5c 93 6b 6c f9 67     ..o....Z*.\.kl.g
     130:	6d c1 1b fc e0 e4 0d 47 fe f5 20 e6 b5 00 d0 ed     m......G.. .....
     140:	90 2e 03 00 94 35 77 05 00 80 84 1e 08 00 00 20     .....5w........ 
     150:	4e 0a 00 00 00 c8 0c 33 33 33 33 0f 98 6e 12 83     N......3333..n..
     160:	11 41 ef 8d 21 14 89 3b e6 55 16 cf fe e6 db 18     .A..!..;.U......
     170:	d1 84 4b 38 1b f7 7c 1d 90 1d a4 bb e4 24 20 32     ..K8..|......$ 2
     180:	84 72 5e 22 81 00 c9 f1 24 ec a1 e5 3d 27           .r^"....$...='

0000018e <pstr_nan>:
     18e:	4e 41 4e                                            NAN

00000191 <pstr_inity>:
     191:	49 4e 49 54 59                                      INITY

00000196 <pstr_inf>:
     196:	49 4e 46                                            INF

00000199 <pwr_m10>:
     199:	cd cc cc 3d 0a d7 23 3c 17 b7 d1 38 77 cc 2b 32     ...=..#<...8w.+2
     1a9:	95 95 e6 24 1f b1 4f 0a                             ...$..O.

000001b1 <pwr_p10>:
     1b1:	00 00 20 41 00 00 c8 42 00 40 1c 46 20 bc be 4c     .. A...B.@.F ..L
     1c1:	ca 1b 0e 5a ae c5 9d 74 00                          ...Z...t.

000001ca <__ctors_end>:
     1ca:	11 24       	eor	r1, r1
     1cc:	1f be       	out	0x3f, r1	; 63
     1ce:	cf ef       	ldi	r28, 0xFF	; 255
     1d0:	d0 e4       	ldi	r29, 0x40	; 64
     1d2:	de bf       	out	0x3e, r29	; 62
     1d4:	cd bf       	out	0x3d, r28	; 61

000001d6 <_Z8wdt_initv>:
     1d6:	14 be       	out	0x34, r1	; 52
     1d8:	0f b6       	in	r0, 0x3f	; 63
     1da:	f8 94       	cli
     1dc:	a8 95       	wdr
     1de:	80 91 60 00 	lds	r24, 0x0060	; 0x800060 <__TEXT_REGION_LENGTH__+0x7e0060>
     1e2:	88 61       	ori	r24, 0x18	; 24
     1e4:	80 93 60 00 	sts	0x0060, r24	; 0x800060 <__TEXT_REGION_LENGTH__+0x7e0060>
     1e8:	10 92 60 00 	sts	0x0060, r1	; 0x800060 <__TEXT_REGION_LENGTH__+0x7e0060>
     1ec:	0f be       	out	0x3f, r0	; 63

000001ee <__do_copy_data>:
     1ee:	13 e0       	ldi	r17, 0x03	; 3
     1f0:	a0 e0       	ldi	r26, 0x00	; 0
     1f2:	b1 e0       	ldi	r27, 0x01	; 1
     1f4:	e6 e4       	ldi	r30, 0x46	; 70
     1f6:	f9 e6       	ldi	r31, 0x69	; 105
     1f8:	00 e0       	ldi	r16, 0x00	; 0
     1fa:	0b bf       	out	0x3b, r16	; 59
     1fc:	02 c0       	rjmp	.+4      	; 0x202 <__do_copy_data+0x14>
     1fe:	07 90       	elpm	r0, Z+
     200:	0d 92       	st	X+, r0
     202:	a8 35       	cpi	r26, 0x58	; 88
     204:	b1 07       	cpc	r27, r17
     206:	d9 f7       	brne	.-10     	; 0x1fe <__do_copy_data+0x10>

00000208 <__do_clear_bss>:
     208:	24 e0       	ldi	r18, 0x04	; 4
     20a:	a8 e5       	ldi	r26, 0x58	; 88
     20c:	b3 e0       	ldi	r27, 0x03	; 3
     20e:	01 c0       	rjmp	.+2      	; 0x212 <.do_clear_bss_start>

00000210 <.do_clear_bss_loop>:
     210:	1d 92       	st	X+, r1

00000212 <.do_clear_bss_start>:
     212:	a8 33       	cpi	r26, 0x38	; 56
     214:	b2 07       	cpc	r27, r18
     216:	e1 f7       	brne	.-8      	; 0x210 <.do_clear_bss_loop>
     218:	0e 94 f8 17 	call	0x2ff0	; 0x2ff0 <main>
     21c:	0c 94 a1 34 	jmp	0x6942	; 0x6942 <_exit>

00000220 <__bad_interrupt>:
     220:	ef ce       	rjmp	.-546    	; 0x0 <__vectors>

00000222 <_Z13SetNibblePinsc>:
     222:	40 91 06 01 	lds	r20, 0x0106	; 0x800106 <onPortA>
     226:	38 2f       	mov	r19, r24
     228:	31 70       	andi	r19, 0x01	; 1
     22a:	28 2f       	mov	r18, r24
     22c:	22 70       	andi	r18, 0x02	; 2
     22e:	98 2f       	mov	r25, r24
     230:	94 70       	andi	r25, 0x04	; 4
     232:	88 70       	andi	r24, 0x08	; 8
     234:	44 23       	and	r20, r20
     236:	a9 f0       	breq	.+42     	; 0x262 <_Z13SetNibblePinsc+0x40>
     238:	33 23       	and	r19, r19
     23a:	11 f0       	breq	.+4      	; 0x240 <_Z13SetNibblePinsc+0x1e>
     23c:	14 9a       	sbi	0x02, 4	; 2
     23e:	01 c0       	rjmp	.+2      	; 0x242 <_Z13SetNibblePinsc+0x20>
     240:	14 98       	cbi	0x02, 4	; 2
     242:	22 23       	and	r18, r18
     244:	11 f0       	breq	.+4      	; 0x24a <_Z13SetNibblePinsc+0x28>
     246:	15 9a       	sbi	0x02, 5	; 2
     248:	01 c0       	rjmp	.+2      	; 0x24c <_Z13SetNibblePinsc+0x2a>
     24a:	15 98       	cbi	0x02, 5	; 2
     24c:	99 23       	and	r25, r25
     24e:	11 f0       	breq	.+4      	; 0x254 <_Z13SetNibblePinsc+0x32>
     250:	16 9a       	sbi	0x02, 6	; 2
     252:	01 c0       	rjmp	.+2      	; 0x256 <_Z13SetNibblePinsc+0x34>
     254:	16 98       	cbi	0x02, 6	; 2
     256:	88 23       	and	r24, r24
     258:	11 f0       	breq	.+4      	; 0x25e <_Z13SetNibblePinsc+0x3c>
     25a:	17 9a       	sbi	0x02, 7	; 2
     25c:	08 95       	ret
     25e:	17 98       	cbi	0x02, 7	; 2
     260:	08 95       	ret
     262:	33 23       	and	r19, r19
     264:	11 f0       	breq	.+4      	; 0x26a <_Z13SetNibblePinsc+0x48>
     266:	2c 9a       	sbi	0x05, 4	; 5
     268:	01 c0       	rjmp	.+2      	; 0x26c <_Z13SetNibblePinsc+0x4a>
     26a:	2c 98       	cbi	0x05, 4	; 5
     26c:	22 23       	and	r18, r18
     26e:	11 f0       	breq	.+4      	; 0x274 <_Z13SetNibblePinsc+0x52>
     270:	2d 9a       	sbi	0x05, 5	; 5
     272:	01 c0       	rjmp	.+2      	; 0x276 <_Z13SetNibblePinsc+0x54>
     274:	2d 98       	cbi	0x05, 5	; 5
     276:	99 23       	and	r25, r25
     278:	11 f0       	breq	.+4      	; 0x27e <_Z13SetNibblePinsc+0x5c>
     27a:	2e 9a       	sbi	0x05, 6	; 5
     27c:	01 c0       	rjmp	.+2      	; 0x280 <_Z13SetNibblePinsc+0x5e>
     27e:	2e 98       	cbi	0x05, 6	; 5
     280:	88 23       	and	r24, r24
     282:	11 f0       	breq	.+4      	; 0x288 <_Z13SetNibblePinsc+0x66>
     284:	2f 9a       	sbi	0x05, 7	; 5
     286:	08 95       	ret
     288:	2f 98       	cbi	0x05, 7	; 5
     28a:	08 95       	ret

0000028c <_Z4SetEb>:
     28c:	90 91 06 01 	lds	r25, 0x0106	; 0x800106 <onPortA>
     290:	88 23       	and	r24, r24
     292:	31 f0       	breq	.+12     	; 0x2a0 <_Z4SetEb+0x14>
     294:	99 23       	and	r25, r25
     296:	11 f0       	breq	.+4      	; 0x29c <_Z4SetEb+0x10>
     298:	12 9a       	sbi	0x02, 2	; 2
     29a:	08 95       	ret
     29c:	2a 9a       	sbi	0x05, 2	; 5
     29e:	08 95       	ret
     2a0:	99 23       	and	r25, r25
     2a2:	11 f0       	breq	.+4      	; 0x2a8 <_Z4SetEb+0x1c>
     2a4:	12 98       	cbi	0x02, 2	; 2
     2a6:	08 95       	ret
     2a8:	2a 98       	cbi	0x05, 2	; 5
     2aa:	08 95       	ret

000002ac <_Z5SetRWb>:
     2ac:	90 91 06 01 	lds	r25, 0x0106	; 0x800106 <onPortA>
     2b0:	88 23       	and	r24, r24
     2b2:	31 f0       	breq	.+12     	; 0x2c0 <_Z5SetRWb+0x14>
     2b4:	99 23       	and	r25, r25
     2b6:	11 f0       	breq	.+4      	; 0x2bc <_Z5SetRWb+0x10>
     2b8:	11 9a       	sbi	0x02, 1	; 2
     2ba:	08 95       	ret
     2bc:	29 9a       	sbi	0x05, 1	; 5
     2be:	08 95       	ret
     2c0:	99 23       	and	r25, r25
     2c2:	11 f0       	breq	.+4      	; 0x2c8 <_Z5SetRWb+0x1c>
     2c4:	11 98       	cbi	0x02, 1	; 2
     2c6:	08 95       	ret
     2c8:	29 98       	cbi	0x05, 1	; 5
     2ca:	08 95       	ret

000002cc <_Z5SetRSb>:
     2cc:	90 91 06 01 	lds	r25, 0x0106	; 0x800106 <onPortA>
     2d0:	88 23       	and	r24, r24
     2d2:	31 f0       	breq	.+12     	; 0x2e0 <_Z5SetRSb+0x14>
     2d4:	99 23       	and	r25, r25
     2d6:	11 f0       	breq	.+4      	; 0x2dc <_Z5SetRSb+0x10>
     2d8:	10 9a       	sbi	0x02, 0	; 2
     2da:	08 95       	ret
     2dc:	28 9a       	sbi	0x05, 0	; 5
     2de:	08 95       	ret
     2e0:	99 23       	and	r25, r25
     2e2:	11 f0       	breq	.+4      	; 0x2e8 <_Z5SetRSb+0x1c>
     2e4:	10 98       	cbi	0x02, 0	; 2
     2e6:	08 95       	ret
     2e8:	28 98       	cbi	0x05, 0	; 5
     2ea:	08 95       	ret

000002ec <_Z8WriteLCDcb>:
     2ec:	cf 93       	push	r28
     2ee:	c8 2f       	mov	r28, r24
     2f0:	86 2f       	mov	r24, r22
     2f2:	ec df       	rcall	.-40     	; 0x2cc <_Z5SetRSb>
     2f4:	80 e0       	ldi	r24, 0x00	; 0
     2f6:	da df       	rcall	.-76     	; 0x2ac <_Z5SetRWb>
     2f8:	8c ec       	ldi	r24, 0xCC	; 204
     2fa:	9c e1       	ldi	r25, 0x1C	; 28
     2fc:	01 97       	sbiw	r24, 0x01	; 1
     2fe:	f1 f7       	brne	.-4      	; 0x2fc <_Z8WriteLCDcb+0x10>
     300:	00 c0       	rjmp	.+0      	; 0x302 <_Z8WriteLCDcb+0x16>
     302:	00 00       	nop
     304:	81 e0       	ldi	r24, 0x01	; 1
     306:	c2 df       	rcall	.-124    	; 0x28c <_Z4SetEb>
     308:	8c ec       	ldi	r24, 0xCC	; 204
     30a:	9c e1       	ldi	r25, 0x1C	; 28
     30c:	01 97       	sbiw	r24, 0x01	; 1
     30e:	f1 f7       	brne	.-4      	; 0x30c <_Z8WriteLCDcb+0x20>
     310:	00 c0       	rjmp	.+0      	; 0x312 <_Z8WriteLCDcb+0x26>
     312:	00 00       	nop
     314:	8c 2f       	mov	r24, r28
     316:	82 95       	swap	r24
     318:	8f 70       	andi	r24, 0x0F	; 15
     31a:	83 df       	rcall	.-250    	; 0x222 <_Z13SetNibblePinsc>
     31c:	8c ec       	ldi	r24, 0xCC	; 204
     31e:	9c e1       	ldi	r25, 0x1C	; 28
     320:	01 97       	sbiw	r24, 0x01	; 1
     322:	f1 f7       	brne	.-4      	; 0x320 <_Z8WriteLCDcb+0x34>
     324:	00 c0       	rjmp	.+0      	; 0x326 <_Z8WriteLCDcb+0x3a>
     326:	00 00       	nop
     328:	80 e0       	ldi	r24, 0x00	; 0
     32a:	b0 df       	rcall	.-160    	; 0x28c <_Z4SetEb>
     32c:	8c ec       	ldi	r24, 0xCC	; 204
     32e:	9c e1       	ldi	r25, 0x1C	; 28
     330:	01 97       	sbiw	r24, 0x01	; 1
     332:	f1 f7       	brne	.-4      	; 0x330 <_Z8WriteLCDcb+0x44>
     334:	00 c0       	rjmp	.+0      	; 0x336 <_Z8WriteLCDcb+0x4a>
     336:	00 00       	nop
     338:	81 e0       	ldi	r24, 0x01	; 1
     33a:	a8 df       	rcall	.-176    	; 0x28c <_Z4SetEb>
     33c:	8c ec       	ldi	r24, 0xCC	; 204
     33e:	9c e1       	ldi	r25, 0x1C	; 28
     340:	01 97       	sbiw	r24, 0x01	; 1
     342:	f1 f7       	brne	.-4      	; 0x340 <_Z8WriteLCDcb+0x54>
     344:	00 c0       	rjmp	.+0      	; 0x346 <_Z8WriteLCDcb+0x5a>
     346:	00 00       	nop
     348:	8c 2f       	mov	r24, r28
     34a:	8f 70       	andi	r24, 0x0F	; 15
     34c:	6a df       	rcall	.-300    	; 0x222 <_Z13SetNibblePinsc>
     34e:	86 e6       	ldi	r24, 0x66	; 102
     350:	9e e0       	ldi	r25, 0x0E	; 14
     352:	01 97       	sbiw	r24, 0x01	; 1
     354:	f1 f7       	brne	.-4      	; 0x352 <_Z8WriteLCDcb+0x66>
     356:	00 00       	nop
     358:	80 e0       	ldi	r24, 0x00	; 0
     35a:	98 df       	rcall	.-208    	; 0x28c <_Z4SetEb>
     35c:	8c ec       	ldi	r24, 0xCC	; 204
     35e:	9c e1       	ldi	r25, 0x1C	; 28
     360:	01 97       	sbiw	r24, 0x01	; 1
     362:	f1 f7       	brne	.-4      	; 0x360 <_Z8WriteLCDcb+0x74>
     364:	00 c0       	rjmp	.+0      	; 0x366 <_Z8WriteLCDcb+0x7a>
     366:	00 00       	nop
     368:	cf 91       	pop	r28
     36a:	08 95       	ret

0000036c <_Z7InitLCDb>:
     36c:	80 93 06 01 	sts	0x0106, r24	; 0x800106 <onPortA>
     370:	88 23       	and	r24, r24
     372:	19 f0       	breq	.+6      	; 0x37a <_Z7InitLCDb+0xe>
     374:	8f ef       	ldi	r24, 0xFF	; 255
     376:	81 b9       	out	0x01, r24	; 1
     378:	02 c0       	rjmp	.+4      	; 0x37e <_Z7InitLCDb+0x12>
     37a:	8f ef       	ldi	r24, 0xFF	; 255
     37c:	84 b9       	out	0x04, r24	; 4
     37e:	80 91 06 01 	lds	r24, 0x0106	; 0x800106 <onPortA>
     382:	88 23       	and	r24, r24
     384:	11 f0       	breq	.+4      	; 0x38a <_Z7InitLCDb+0x1e>
     386:	12 b8       	out	0x02, r1	; 2
     388:	01 c0       	rjmp	.+2      	; 0x38c <_Z7InitLCDb+0x20>
     38a:	15 b8       	out	0x05, r1	; 5
     38c:	60 e0       	ldi	r22, 0x00	; 0
     38e:	82 e0       	ldi	r24, 0x02	; 2
     390:	ad df       	rcall	.-166    	; 0x2ec <_Z8WriteLCDcb>
     392:	60 e0       	ldi	r22, 0x00	; 0
     394:	8c e0       	ldi	r24, 0x0C	; 12
     396:	aa df       	rcall	.-172    	; 0x2ec <_Z8WriteLCDcb>
     398:	60 e0       	ldi	r22, 0x00	; 0
     39a:	81 e0       	ldi	r24, 0x01	; 1
     39c:	a7 df       	rcall	.-178    	; 0x2ec <_Z8WriteLCDcb>
     39e:	60 e0       	ldi	r22, 0x00	; 0
     3a0:	86 e0       	ldi	r24, 0x06	; 6
     3a2:	a4 df       	rcall	.-184    	; 0x2ec <_Z8WriteLCDcb>
     3a4:	2f ef       	ldi	r18, 0xFF	; 255
     3a6:	8f e7       	ldi	r24, 0x7F	; 127
     3a8:	94 e0       	ldi	r25, 0x04	; 4
     3aa:	21 50       	subi	r18, 0x01	; 1
     3ac:	80 40       	sbci	r24, 0x00	; 0
     3ae:	90 40       	sbci	r25, 0x00	; 0
     3b0:	e1 f7       	brne	.-8      	; 0x3aa <_Z7InitLCDb+0x3e>
     3b2:	00 c0       	rjmp	.+0      	; 0x3b4 <_Z7InitLCDb+0x48>
     3b4:	00 00       	nop
     3b6:	08 95       	ret

000003b8 <_Z10lcd_printfPKc>:
     3b8:	cf 93       	push	r28
     3ba:	df 93       	push	r29
     3bc:	ec 01       	movw	r28, r24
     3be:	89 91       	ld	r24, Y+
     3c0:	88 23       	and	r24, r24
     3c2:	19 f0       	breq	.+6      	; 0x3ca <_Z10lcd_printfPKc+0x12>
     3c4:	61 e0       	ldi	r22, 0x01	; 1
     3c6:	92 df       	rcall	.-220    	; 0x2ec <_Z8WriteLCDcb>
     3c8:	fa cf       	rjmp	.-12     	; 0x3be <_Z10lcd_printfPKc+0x6>
     3ca:	df 91       	pop	r29
     3cc:	cf 91       	pop	r28
     3ce:	08 95       	ret

000003d0 <_Z8ClearLCDv>:
     3d0:	60 e0       	ldi	r22, 0x00	; 0
     3d2:	81 e0       	ldi	r24, 0x01	; 1
     3d4:	8b cf       	rjmp	.-234    	; 0x2ec <_Z8WriteLCDcb>

000003d6 <_Z9SetLCD_XYii>:
     3d6:	9b 01       	movw	r18, r22
     3d8:	89 2b       	or	r24, r25
     3da:	09 f0       	breq	.+2      	; 0x3de <_Z9SetLCD_XYii+0x8>
     3dc:	20 64       	ori	r18, 0x40	; 64
     3de:	60 e0       	ldi	r22, 0x00	; 0
     3e0:	82 2f       	mov	r24, r18
     3e2:	80 68       	ori	r24, 0x80	; 128
     3e4:	83 cf       	rjmp	.-250    	; 0x2ec <_Z8WriteLCDcb>

000003e6 <_ZN11InterpreterC1Ev>:
     3e6:	ef 92       	push	r14
     3e8:	ff 92       	push	r15
     3ea:	0f 93       	push	r16
     3ec:	1f 93       	push	r17
     3ee:	cf 93       	push	r28
     3f0:	df 93       	push	r29
     3f2:	ec 01       	movw	r28, r24
     3f4:	8c 01       	movw	r16, r24
     3f6:	07 53       	subi	r16, 0x37	; 55
     3f8:	1f 4f       	sbci	r17, 0xFF	; 255
     3fa:	7c 01       	movw	r14, r24
     3fc:	8e ed       	ldi	r24, 0xDE	; 222
     3fe:	e8 1a       	sub	r14, r24
     400:	88 ef       	ldi	r24, 0xF8	; 248
     402:	f8 0a       	sbc	r15, r24
     404:	c8 01       	movw	r24, r16
     406:	0e 94 9e 1b 	call	0x373c	; 0x373c <_ZN5ValueC1Ev>
     40a:	0f 5b       	subi	r16, 0xBF	; 191
     40c:	1f 4f       	sbci	r17, 0xFF	; 255
     40e:	0e 15       	cp	r16, r14
     410:	1f 05       	cpc	r17, r15
     412:	c1 f7       	brne	.-16     	; 0x404 <__LOCK_REGION_LENGTH__+0x4>
     414:	ce 01       	movw	r24, r28
     416:	80 57       	subi	r24, 0x70	; 112
     418:	98 4f       	sbci	r25, 0xF8	; 248
     41a:	0e 94 9e 1b 	call	0x373c	; 0x373c <_ZN5ValueC1Ev>
     41e:	81 e0       	ldi	r24, 0x01	; 1
     420:	88 83       	st	Y, r24
     422:	ca 57       	subi	r28, 0x7A	; 122
     424:	d8 4f       	sbci	r29, 0xF8	; 248
     426:	19 82       	std	Y+1, r1	; 0x01
     428:	18 82       	st	Y, r1
     42a:	df 91       	pop	r29
     42c:	cf 91       	pop	r28
     42e:	1f 91       	pop	r17
     430:	0f 91       	pop	r16
     432:	ff 90       	pop	r15
     434:	ef 90       	pop	r14
     436:	08 95       	ret

00000438 <_ZN11Interpreter17get_next_pgm_byteEi>:
     438:	fc 01       	movw	r30, r24
     43a:	80 81       	ld	r24, Z
     43c:	e8 57       	subi	r30, 0x78	; 120
     43e:	f8 4f       	sbci	r31, 0xF8	; 248
     440:	81 11       	cpse	r24, r1
     442:	06 c0       	rjmp	.+12     	; 0x450 <_ZN11Interpreter17get_next_pgm_byteEi+0x18>
     444:	80 81       	ld	r24, Z
     446:	91 81       	ldd	r25, Z+1	; 0x01
     448:	86 0f       	add	r24, r22
     44a:	97 1f       	adc	r25, r23
     44c:	0c 94 41 34 	jmp	0x6882	; 0x6882 <eeprom_read_byte>
     450:	80 81       	ld	r24, Z
     452:	91 81       	ldd	r25, Z+1	; 0x01
     454:	fc 01       	movw	r30, r24
     456:	e6 0f       	add	r30, r22
     458:	f7 1f       	adc	r31, r23
     45a:	80 81       	ld	r24, Z
     45c:	08 95       	ret

0000045e <_ZN11Interpreter5errorEPc>:
     45e:	0f 93       	push	r16
     460:	1f 93       	push	r17
     462:	cf 93       	push	r28
     464:	df 93       	push	r29
     466:	8c 01       	movw	r16, r24
     468:	eb 01       	movw	r28, r22
     46a:	60 e0       	ldi	r22, 0x00	; 0
     46c:	70 e0       	ldi	r23, 0x00	; 0
     46e:	80 e0       	ldi	r24, 0x00	; 0
     470:	90 e0       	ldi	r25, 0x00	; 0
     472:	b1 df       	rcall	.-158    	; 0x3d6 <_Z9SetLCD_XYii>
     474:	ad df       	rcall	.-166    	; 0x3d0 <_Z8ClearLCDv>
     476:	87 e0       	ldi	r24, 0x07	; 7
     478:	91 e0       	ldi	r25, 0x01	; 1
     47a:	9e df       	rcall	.-196    	; 0x3b8 <_Z10lcd_printfPKc>
     47c:	60 e0       	ldi	r22, 0x00	; 0
     47e:	70 e0       	ldi	r23, 0x00	; 0
     480:	81 e0       	ldi	r24, 0x01	; 1
     482:	90 e0       	ldi	r25, 0x00	; 0
     484:	a8 df       	rcall	.-176    	; 0x3d6 <_Z9SetLCD_XYii>
     486:	88 81       	ld	r24, Y
     488:	81 11       	cpse	r24, r1
     48a:	06 c0       	rjmp	.+12     	; 0x498 <_ZN11Interpreter5errorEPc+0x3a>
     48c:	c8 01       	movw	r24, r16
     48e:	80 57       	subi	r24, 0x70	; 112
     490:	98 4f       	sbci	r25, 0xF8	; 248
     492:	0e 94 f6 27 	call	0x4fec	; 0x4fec <_ZN5Value8ToStringEv>
     496:	01 c0       	rjmp	.+2      	; 0x49a <_ZN11Interpreter5errorEPc+0x3c>
     498:	ce 01       	movw	r24, r28
     49a:	8e df       	rcall	.-228    	; 0x3b8 <_Z10lcd_printfPKc>
     49c:	87 e0       	ldi	r24, 0x07	; 7
     49e:	91 e0       	ldi	r25, 0x01	; 1
     4a0:	0e 94 2c 19 	call	0x3258	; 0x3258 <_Z11send_stringPc>
     4a4:	88 81       	ld	r24, Y
     4a6:	81 11       	cpse	r24, r1
     4a8:	06 c0       	rjmp	.+12     	; 0x4b6 <_ZN11Interpreter5errorEPc+0x58>
     4aa:	c8 01       	movw	r24, r16
     4ac:	80 57       	subi	r24, 0x70	; 112
     4ae:	98 4f       	sbci	r25, 0xF8	; 248
     4b0:	0e 94 f6 27 	call	0x4fec	; 0x4fec <_ZN5Value8ToStringEv>
     4b4:	01 c0       	rjmp	.+2      	; 0x4b8 <_ZN11Interpreter5errorEPc+0x5a>
     4b6:	ce 01       	movw	r24, r28
     4b8:	0e 94 2c 19 	call	0x3258	; 0x3258 <_Z11send_stringPc>
     4bc:	83 e3       	ldi	r24, 0x33	; 51
     4be:	93 e0       	ldi	r25, 0x03	; 3
     4c0:	0e 94 2c 19 	call	0x3258	; 0x3258 <_Z11send_stringPc>
     4c4:	f8 01       	movw	r30, r16
     4c6:	80 81       	ld	r24, Z
     4c8:	81 11       	cpse	r24, r1
     4ca:	0b c0       	rjmp	.+22     	; 0x4e2 <_ZN11Interpreter5errorEPc+0x84>
     4cc:	98 e0       	ldi	r25, 0x08	; 8
     4ce:	88 e1       	ldi	r24, 0x18	; 24
     4d0:	0f b6       	in	r0, 0x3f	; 63
     4d2:	f8 94       	cli
     4d4:	a8 95       	wdr
     4d6:	80 93 60 00 	sts	0x0060, r24	; 0x800060 <__TEXT_REGION_LENGTH__+0x7e0060>
     4da:	0f be       	out	0x3f, r0	; 63
     4dc:	90 93 60 00 	sts	0x0060, r25	; 0x800060 <__TEXT_REGION_LENGTH__+0x7e0060>
     4e0:	ff cf       	rjmp	.-2      	; 0x4e0 <_ZN11Interpreter5errorEPc+0x82>
     4e2:	df 91       	pop	r29
     4e4:	cf 91       	pop	r28
     4e6:	1f 91       	pop	r17
     4e8:	0f 91       	pop	r16
     4ea:	08 95       	ret

000004ec <_ZN11Interpreter7advanceEv>:
     4ec:	cf 93       	push	r28
     4ee:	df 93       	push	r29
     4f0:	fc 01       	movw	r30, r24
     4f2:	e6 57       	subi	r30, 0x76	; 118
     4f4:	f8 4f       	sbci	r31, 0xF8	; 248
     4f6:	60 81       	ld	r22, Z
     4f8:	71 81       	ldd	r23, Z+1	; 0x01
     4fa:	6f 5f       	subi	r22, 0xFF	; 255
     4fc:	7f 4f       	sbci	r23, 0xFF	; 255
     4fe:	71 83       	std	Z+1, r23	; 0x01
     500:	60 83       	st	Z, r22
     502:	32 96       	adiw	r30, 0x02	; 2
     504:	20 81       	ld	r18, Z
     506:	31 81       	ldd	r19, Z+1	; 0x01
     508:	ec 01       	movw	r28, r24
     50a:	c2 57       	subi	r28, 0x72	; 114
     50c:	d8 4f       	sbci	r29, 0xF8	; 248
     50e:	62 17       	cp	r22, r18
     510:	73 07       	cpc	r23, r19
     512:	14 f0       	brlt	.+4      	; 0x518 <_ZN11Interpreter7advanceEv+0x2c>
     514:	18 82       	st	Y, r1
     516:	02 c0       	rjmp	.+4      	; 0x51c <_ZN11Interpreter7advanceEv+0x30>
     518:	8f df       	rcall	.-226    	; 0x438 <_ZN11Interpreter17get_next_pgm_byteEi>
     51a:	88 83       	st	Y, r24
     51c:	df 91       	pop	r29
     51e:	cf 91       	pop	r28
     520:	08 95       	ret

00000522 <_ZN11Interpreter4peekEv>:
     522:	fc 01       	movw	r30, r24
     524:	e6 57       	subi	r30, 0x76	; 118
     526:	f8 4f       	sbci	r31, 0xF8	; 248
     528:	60 81       	ld	r22, Z
     52a:	71 81       	ldd	r23, Z+1	; 0x01
     52c:	6f 5f       	subi	r22, 0xFF	; 255
     52e:	7f 4f       	sbci	r23, 0xFF	; 255
     530:	32 96       	adiw	r30, 0x02	; 2
     532:	20 81       	ld	r18, Z
     534:	31 81       	ldd	r19, Z+1	; 0x01
     536:	62 17       	cp	r22, r18
     538:	73 07       	cpc	r23, r19
     53a:	0c f4       	brge	.+2      	; 0x53e <_ZN11Interpreter4peekEv+0x1c>
     53c:	7d cf       	rjmp	.-262    	; 0x438 <_ZN11Interpreter17get_next_pgm_byteEi>
     53e:	80 e0       	ldi	r24, 0x00	; 0
     540:	08 95       	ret

00000542 <_ZN11Interpreter15skip_whitespaceEv>:
     542:	0f 93       	push	r16
     544:	1f 93       	push	r17
     546:	cf 93       	push	r28
     548:	df 93       	push	r29
     54a:	ec 01       	movw	r28, r24
     54c:	8c 01       	movw	r16, r24
     54e:	02 57       	subi	r16, 0x72	; 114
     550:	18 4f       	sbci	r17, 0xF8	; 248
     552:	f8 01       	movw	r30, r16
     554:	80 81       	ld	r24, Z
     556:	88 23       	and	r24, r24
     558:	41 f0       	breq	.+16     	; 0x56a <_ZN11Interpreter15skip_whitespaceEv+0x28>
     55a:	90 e0       	ldi	r25, 0x00	; 0
     55c:	0e 94 b8 31 	call	0x6370	; 0x6370 <isspace>
     560:	89 2b       	or	r24, r25
     562:	19 f0       	breq	.+6      	; 0x56a <_ZN11Interpreter15skip_whitespaceEv+0x28>
     564:	ce 01       	movw	r24, r28
     566:	c2 df       	rcall	.-124    	; 0x4ec <_ZN11Interpreter7advanceEv>
     568:	f4 cf       	rjmp	.-24     	; 0x552 <_ZN11Interpreter15skip_whitespaceEv+0x10>
     56a:	df 91       	pop	r29
     56c:	cf 91       	pop	r28
     56e:	1f 91       	pop	r17
     570:	0f 91       	pop	r16
     572:	08 95       	ret

00000574 <_ZN11Interpreter12parse_numberEv>:
     574:	6f 92       	push	r6
     576:	7f 92       	push	r7
     578:	8f 92       	push	r8
     57a:	9f 92       	push	r9
     57c:	af 92       	push	r10
     57e:	bf 92       	push	r11
     580:	cf 92       	push	r12
     582:	df 92       	push	r13
     584:	ef 92       	push	r14
     586:	ff 92       	push	r15
     588:	0f 93       	push	r16
     58a:	1f 93       	push	r17
     58c:	cf 93       	push	r28
     58e:	df 93       	push	r29
     590:	cd b7       	in	r28, 0x3d	; 61
     592:	de b7       	in	r29, 0x3e	; 62
     594:	c7 59       	subi	r28, 0x97	; 151
     596:	d1 09       	sbc	r29, r1
     598:	0f b6       	in	r0, 0x3f	; 63
     59a:	f8 94       	cli
     59c:	de bf       	out	0x3e, r29	; 62
     59e:	0f be       	out	0x3f, r0	; 63
     5a0:	cd bf       	out	0x3d, r28	; 61
     5a2:	5c 01       	movw	r10, r24
     5a4:	6b 01       	movw	r12, r22
     5a6:	7e 01       	movw	r14, r28
     5a8:	84 e8       	ldi	r24, 0x84	; 132
     5aa:	e8 0e       	add	r14, r24
     5ac:	f1 1c       	adc	r15, r1
     5ae:	47 01       	movw	r8, r14
     5b0:	3b 01       	movw	r6, r22
     5b2:	a2 e7       	ldi	r26, 0x72	; 114
     5b4:	6a 1a       	sub	r6, r26
     5b6:	a8 ef       	ldi	r26, 0xF8	; 248
     5b8:	7a 0a       	sbc	r7, r26
     5ba:	84 01       	movw	r16, r8
     5bc:	0e 19       	sub	r16, r14
     5be:	1f 09       	sbc	r17, r15
     5c0:	f3 01       	movw	r30, r6
     5c2:	80 81       	ld	r24, Z
     5c4:	90 ed       	ldi	r25, 0xD0	; 208
     5c6:	98 0f       	add	r25, r24
     5c8:	9a 30       	cpi	r25, 0x0A	; 10
     5ca:	30 f4       	brcc	.+12     	; 0x5d8 <_ZN11Interpreter12parse_numberEv+0x64>
     5cc:	d4 01       	movw	r26, r8
     5ce:	8d 93       	st	X+, r24
     5d0:	4d 01       	movw	r8, r26
     5d2:	c6 01       	movw	r24, r12
     5d4:	8b df       	rcall	.-234    	; 0x4ec <_ZN11Interpreter7advanceEv>
     5d6:	f1 cf       	rjmp	.-30     	; 0x5ba <_ZN11Interpreter12parse_numberEv+0x46>
     5d8:	f7 01       	movw	r30, r14
     5da:	e0 0f       	add	r30, r16
     5dc:	f1 1f       	adc	r31, r17
     5de:	8e 32       	cpi	r24, 0x2E	; 46
     5e0:	51 f5       	brne	.+84     	; 0x636 <_ZN11Interpreter12parse_numberEv+0xc2>
     5e2:	80 83       	st	Z, r24
     5e4:	c6 01       	movw	r24, r12
     5e6:	82 df       	rcall	.-252    	; 0x4ec <_ZN11Interpreter7advanceEv>
     5e8:	0f 5f       	subi	r16, 0xFF	; 255
     5ea:	1f 4f       	sbci	r17, 0xFF	; 255
     5ec:	0e 0d       	add	r16, r14
     5ee:	1f 1d       	adc	r17, r15
     5f0:	f8 01       	movw	r30, r16
     5f2:	ee 19       	sub	r30, r14
     5f4:	ff 09       	sbc	r31, r15
     5f6:	d3 01       	movw	r26, r6
     5f8:	8c 91       	ld	r24, X
     5fa:	90 ed       	ldi	r25, 0xD0	; 208
     5fc:	98 0f       	add	r25, r24
     5fe:	9a 30       	cpi	r25, 0x0A	; 10
     600:	30 f4       	brcc	.+12     	; 0x60e <_ZN11Interpreter12parse_numberEv+0x9a>
     602:	f8 01       	movw	r30, r16
     604:	81 93       	st	Z+, r24
     606:	8f 01       	movw	r16, r30
     608:	c6 01       	movw	r24, r12
     60a:	70 df       	rcall	.-288    	; 0x4ec <_ZN11Interpreter7advanceEv>
     60c:	f1 cf       	rjmp	.-30     	; 0x5f0 <_ZN11Interpreter12parse_numberEv+0x7c>
     60e:	ee 0d       	add	r30, r14
     610:	ff 1d       	adc	r31, r15
     612:	10 82       	st	Z, r1
     614:	ce 01       	movw	r24, r28
     616:	02 96       	adiw	r24, 0x02	; 2
     618:	0e 94 9e 1b 	call	0x373c	; 0x373c <_ZN5ValueC1Ev>
     61c:	8b e2       	ldi	r24, 0x2B	; 43
     61e:	89 83       	std	Y+1, r24	; 0x01
     620:	c7 01       	movw	r24, r14
     622:	0e 94 ac 30 	call	0x6158	; 0x6158 <atof>
     626:	ab 01       	movw	r20, r22
     628:	bc 01       	movw	r22, r24
     62a:	ce 01       	movw	r24, r28
     62c:	8d 5b       	subi	r24, 0xBD	; 189
     62e:	9f 4f       	sbci	r25, 0xFF	; 255
     630:	0e 94 ea 1b 	call	0x37d4	; 0x37d4 <_ZN5ValueC1Ed>
     634:	10 c0       	rjmp	.+32     	; 0x656 <_ZN11Interpreter12parse_numberEv+0xe2>
     636:	10 82       	st	Z, r1
     638:	ce 01       	movw	r24, r28
     63a:	02 96       	adiw	r24, 0x02	; 2
     63c:	0e 94 9e 1b 	call	0x373c	; 0x373c <_ZN5ValueC1Ev>
     640:	83 e2       	ldi	r24, 0x23	; 35
     642:	89 83       	std	Y+1, r24	; 0x01
     644:	c7 01       	movw	r24, r14
     646:	0e 94 af 30 	call	0x615e	; 0x615e <atoi>
     64a:	bc 01       	movw	r22, r24
     64c:	ce 01       	movw	r24, r28
     64e:	8d 5b       	subi	r24, 0xBD	; 189
     650:	9f 4f       	sbci	r25, 0xFF	; 255
     652:	0e 94 9f 1b 	call	0x373e	; 0x373e <_ZN5ValueC1Ei>
     656:	81 e4       	ldi	r24, 0x41	; 65
     658:	fe 01       	movw	r30, r28
     65a:	ed 5b       	subi	r30, 0xBD	; 189
     65c:	ff 4f       	sbci	r31, 0xFF	; 255
     65e:	de 01       	movw	r26, r28
     660:	12 96       	adiw	r26, 0x02	; 2
     662:	01 90       	ld	r0, Z+
     664:	0d 92       	st	X+, r0
     666:	8a 95       	dec	r24
     668:	e1 f7       	brne	.-8      	; 0x662 <_ZN11Interpreter12parse_numberEv+0xee>
     66a:	82 e4       	ldi	r24, 0x42	; 66
     66c:	fe 01       	movw	r30, r28
     66e:	31 96       	adiw	r30, 0x01	; 1
     670:	d5 01       	movw	r26, r10
     672:	01 90       	ld	r0, Z+
     674:	0d 92       	st	X+, r0
     676:	8a 95       	dec	r24
     678:	e1 f7       	brne	.-8      	; 0x672 <_ZN11Interpreter12parse_numberEv+0xfe>
     67a:	c5 01       	movw	r24, r10
     67c:	c9 56       	subi	r28, 0x69	; 105
     67e:	df 4f       	sbci	r29, 0xFF	; 255
     680:	0f b6       	in	r0, 0x3f	; 63
     682:	f8 94       	cli
     684:	de bf       	out	0x3e, r29	; 62
     686:	0f be       	out	0x3f, r0	; 63
     688:	cd bf       	out	0x3d, r28	; 61
     68a:	df 91       	pop	r29
     68c:	cf 91       	pop	r28
     68e:	1f 91       	pop	r17
     690:	0f 91       	pop	r16
     692:	ff 90       	pop	r15
     694:	ef 90       	pop	r14
     696:	df 90       	pop	r13
     698:	cf 90       	pop	r12
     69a:	bf 90       	pop	r11
     69c:	af 90       	pop	r10
     69e:	9f 90       	pop	r9
     6a0:	8f 90       	pop	r8
     6a2:	7f 90       	pop	r7
     6a4:	6f 90       	pop	r6
     6a6:	08 95       	ret

000006a8 <_ZN11Interpreter9parse_hexEv>:
     6a8:	8f 92       	push	r8
     6aa:	9f 92       	push	r9
     6ac:	af 92       	push	r10
     6ae:	bf 92       	push	r11
     6b0:	cf 92       	push	r12
     6b2:	df 92       	push	r13
     6b4:	ef 92       	push	r14
     6b6:	ff 92       	push	r15
     6b8:	0f 93       	push	r16
     6ba:	1f 93       	push	r17
     6bc:	cf 93       	push	r28
     6be:	df 93       	push	r29
     6c0:	cd b7       	in	r28, 0x3d	; 61
     6c2:	de b7       	in	r29, 0x3e	; 62
     6c4:	c5 55       	subi	r28, 0x55	; 85
     6c6:	d1 09       	sbc	r29, r1
     6c8:	0f b6       	in	r0, 0x3f	; 63
     6ca:	f8 94       	cli
     6cc:	de bf       	out	0x3e, r29	; 62
     6ce:	0f be       	out	0x3f, r0	; 63
     6d0:	cd bf       	out	0x3d, r28	; 61
     6d2:	7c 01       	movw	r14, r24
     6d4:	4b 01       	movw	r8, r22
     6d6:	8e 01       	movw	r16, r28
     6d8:	0e 5b       	subi	r16, 0xBE	; 190
     6da:	1f 4f       	sbci	r17, 0xFF	; 255
     6dc:	68 01       	movw	r12, r16
     6de:	5b 01       	movw	r10, r22
     6e0:	82 e7       	ldi	r24, 0x72	; 114
     6e2:	a8 1a       	sub	r10, r24
     6e4:	88 ef       	ldi	r24, 0xF8	; 248
     6e6:	b8 0a       	sbc	r11, r24
     6e8:	f6 01       	movw	r30, r12
     6ea:	e0 1b       	sub	r30, r16
     6ec:	f1 0b       	sbc	r31, r17
     6ee:	d5 01       	movw	r26, r10
     6f0:	8c 91       	ld	r24, X
     6f2:	88 23       	and	r24, r24
     6f4:	89 f0       	breq	.+34     	; 0x718 <_ZN11Interpreter9parse_hexEv+0x70>
     6f6:	28 2f       	mov	r18, r24
     6f8:	30 e0       	ldi	r19, 0x00	; 0
     6fa:	20 53       	subi	r18, 0x30	; 48
     6fc:	31 09       	sbc	r19, r1
     6fe:	2a 30       	cpi	r18, 0x0A	; 10
     700:	31 05       	cpc	r19, r1
     702:	20 f0       	brcs	.+8      	; 0x70c <_ZN11Interpreter9parse_hexEv+0x64>
     704:	9f eb       	ldi	r25, 0xBF	; 191
     706:	98 0f       	add	r25, r24
     708:	96 30       	cpi	r25, 0x06	; 6
     70a:	30 f4       	brcc	.+12     	; 0x718 <_ZN11Interpreter9parse_hexEv+0x70>
     70c:	f6 01       	movw	r30, r12
     70e:	81 93       	st	Z+, r24
     710:	6f 01       	movw	r12, r30
     712:	c4 01       	movw	r24, r8
     714:	eb de       	rcall	.-554    	; 0x4ec <_ZN11Interpreter7advanceEv>
     716:	e8 cf       	rjmp	.-48     	; 0x6e8 <_ZN11Interpreter9parse_hexEv+0x40>
     718:	e0 0f       	add	r30, r16
     71a:	f1 1f       	adc	r31, r17
     71c:	10 82       	st	Z, r1
     71e:	67 01       	movw	r12, r14
     720:	ff ef       	ldi	r31, 0xFF	; 255
     722:	cf 1a       	sub	r12, r31
     724:	df 0a       	sbc	r13, r31
     726:	c6 01       	movw	r24, r12
     728:	0e 94 9e 1b 	call	0x373c	; 0x373c <_ZN5ValueC1Ev>
     72c:	83 e2       	ldi	r24, 0x23	; 35
     72e:	d7 01       	movw	r26, r14
     730:	8c 93       	st	X, r24
     732:	40 e1       	ldi	r20, 0x10	; 16
     734:	50 e0       	ldi	r21, 0x00	; 0
     736:	60 e0       	ldi	r22, 0x00	; 0
     738:	70 e0       	ldi	r23, 0x00	; 0
     73a:	c8 01       	movw	r24, r16
     73c:	0e 94 81 2f 	call	0x5f02	; 0x5f02 <strtol>
     740:	ce 01       	movw	r24, r28
     742:	01 96       	adiw	r24, 0x01	; 1
     744:	0e 94 9f 1b 	call	0x373e	; 0x373e <_ZN5ValueC1Ei>
     748:	81 e4       	ldi	r24, 0x41	; 65
     74a:	fe 01       	movw	r30, r28
     74c:	31 96       	adiw	r30, 0x01	; 1
     74e:	d6 01       	movw	r26, r12
     750:	01 90       	ld	r0, Z+
     752:	0d 92       	st	X+, r0
     754:	8a 95       	dec	r24
     756:	e1 f7       	brne	.-8      	; 0x750 <_ZN11Interpreter9parse_hexEv+0xa8>
     758:	c7 01       	movw	r24, r14
     75a:	cb 5a       	subi	r28, 0xAB	; 171
     75c:	df 4f       	sbci	r29, 0xFF	; 255
     75e:	0f b6       	in	r0, 0x3f	; 63
     760:	f8 94       	cli
     762:	de bf       	out	0x3e, r29	; 62
     764:	0f be       	out	0x3f, r0	; 63
     766:	cd bf       	out	0x3d, r28	; 61
     768:	df 91       	pop	r29
     76a:	cf 91       	pop	r28
     76c:	1f 91       	pop	r17
     76e:	0f 91       	pop	r16
     770:	ff 90       	pop	r15
     772:	ef 90       	pop	r14
     774:	df 90       	pop	r13
     776:	cf 90       	pop	r12
     778:	bf 90       	pop	r11
     77a:	af 90       	pop	r10
     77c:	9f 90       	pop	r9
     77e:	8f 90       	pop	r8
     780:	08 95       	ret

00000782 <_ZN11Interpreter12parse_stringEv>:
     782:	3f 92       	push	r3
     784:	4f 92       	push	r4
     786:	5f 92       	push	r5
     788:	6f 92       	push	r6
     78a:	7f 92       	push	r7
     78c:	8f 92       	push	r8
     78e:	9f 92       	push	r9
     790:	af 92       	push	r10
     792:	bf 92       	push	r11
     794:	cf 92       	push	r12
     796:	df 92       	push	r13
     798:	ef 92       	push	r14
     79a:	ff 92       	push	r15
     79c:	0f 93       	push	r16
     79e:	1f 93       	push	r17
     7a0:	cf 93       	push	r28
     7a2:	df 93       	push	r29
     7a4:	cd b7       	in	r28, 0x3d	; 61
     7a6:	de b7       	in	r29, 0x3e	; 62
     7a8:	c3 57       	subi	r28, 0x73	; 115
     7aa:	d1 09       	sbc	r29, r1
     7ac:	0f b6       	in	r0, 0x3f	; 63
     7ae:	f8 94       	cli
     7b0:	de bf       	out	0x3e, r29	; 62
     7b2:	0f be       	out	0x3f, r0	; 63
     7b4:	cd bf       	out	0x3d, r28	; 61
     7b6:	5c 01       	movw	r10, r24
     7b8:	8b 01       	movw	r16, r22
     7ba:	6e 01       	movw	r12, r28
     7bc:	82 e4       	ldi	r24, 0x42	; 66
     7be:	c8 0e       	add	r12, r24
     7c0:	d1 1c       	adc	r13, r1
     7c2:	36 01       	movw	r6, r12
     7c4:	7b 01       	movw	r14, r22
     7c6:	e2 e7       	ldi	r30, 0x72	; 114
     7c8:	ee 1a       	sub	r14, r30
     7ca:	e8 ef       	ldi	r30, 0xF8	; 248
     7cc:	fe 0a       	sbc	r15, r30
     7ce:	8d e0       	ldi	r24, 0x0D	; 13
     7d0:	48 2e       	mov	r4, r24
     7d2:	9a e0       	ldi	r25, 0x0A	; 10
     7d4:	39 2e       	mov	r3, r25
     7d6:	29 e0       	ldi	r18, 0x09	; 9
     7d8:	52 2e       	mov	r5, r18
     7da:	43 01       	movw	r8, r6
     7dc:	8c 18       	sub	r8, r12
     7de:	9d 08       	sbc	r9, r13
     7e0:	f7 01       	movw	r30, r14
     7e2:	80 81       	ld	r24, Z
     7e4:	88 23       	and	r24, r24
     7e6:	49 f1       	breq	.+82     	; 0x83a <_ZN11Interpreter12parse_stringEv+0xb8>
     7e8:	82 32       	cpi	r24, 0x22	; 34
     7ea:	71 f4       	brne	.+28     	; 0x808 <_ZN11Interpreter12parse_stringEv+0x86>
     7ec:	c8 01       	movw	r24, r16
     7ee:	99 de       	rcall	.-718    	; 0x522 <_ZN11Interpreter4peekEv>
     7f0:	82 32       	cpi	r24, 0x22	; 34
     7f2:	19 f5       	brne	.+70     	; 0x83a <_ZN11Interpreter12parse_stringEv+0xb8>
     7f4:	c8 01       	movw	r24, r16
     7f6:	7a de       	rcall	.-780    	; 0x4ec <_ZN11Interpreter7advanceEv>
     7f8:	f7 01       	movw	r30, r14
     7fa:	80 81       	ld	r24, Z
     7fc:	f3 01       	movw	r30, r6
     7fe:	81 93       	st	Z+, r24
     800:	3f 01       	movw	r6, r30
     802:	c8 01       	movw	r24, r16
     804:	73 de       	rcall	.-794    	; 0x4ec <_ZN11Interpreter7advanceEv>
     806:	e9 cf       	rjmp	.-46     	; 0x7da <_ZN11Interpreter12parse_stringEv+0x58>
     808:	8c 35       	cpi	r24, 0x5C	; 92
     80a:	b1 f7       	brne	.-20     	; 0x7f8 <_ZN11Interpreter12parse_stringEv+0x76>
     80c:	c8 01       	movw	r24, r16
     80e:	89 de       	rcall	.-750    	; 0x522 <_ZN11Interpreter4peekEv>
     810:	82 37       	cpi	r24, 0x72	; 114
     812:	49 f0       	breq	.+18     	; 0x826 <_ZN11Interpreter12parse_stringEv+0xa4>
     814:	8e 36       	cpi	r24, 0x6E	; 110
     816:	61 f0       	breq	.+24     	; 0x830 <_ZN11Interpreter12parse_stringEv+0xae>
     818:	84 37       	cpi	r24, 0x74	; 116
     81a:	71 f7       	brne	.-36     	; 0x7f8 <_ZN11Interpreter12parse_stringEv+0x76>
     81c:	c8 01       	movw	r24, r16
     81e:	66 de       	rcall	.-820    	; 0x4ec <_ZN11Interpreter7advanceEv>
     820:	f7 01       	movw	r30, r14
     822:	50 82       	st	Z, r5
     824:	e9 cf       	rjmp	.-46     	; 0x7f8 <_ZN11Interpreter12parse_stringEv+0x76>
     826:	c8 01       	movw	r24, r16
     828:	61 de       	rcall	.-830    	; 0x4ec <_ZN11Interpreter7advanceEv>
     82a:	f7 01       	movw	r30, r14
     82c:	40 82       	st	Z, r4
     82e:	e4 cf       	rjmp	.-56     	; 0x7f8 <_ZN11Interpreter12parse_stringEv+0x76>
     830:	c8 01       	movw	r24, r16
     832:	5c de       	rcall	.-840    	; 0x4ec <_ZN11Interpreter7advanceEv>
     834:	f7 01       	movw	r30, r14
     836:	30 82       	st	Z, r3
     838:	df cf       	rjmp	.-66     	; 0x7f8 <_ZN11Interpreter12parse_stringEv+0x76>
     83a:	c8 01       	movw	r24, r16
     83c:	57 de       	rcall	.-850    	; 0x4ec <_ZN11Interpreter7advanceEv>
     83e:	f6 01       	movw	r30, r12
     840:	e8 0d       	add	r30, r8
     842:	f9 1d       	adc	r31, r9
     844:	10 82       	st	Z, r1
     846:	85 01       	movw	r16, r10
     848:	0f 5f       	subi	r16, 0xFF	; 255
     84a:	1f 4f       	sbci	r17, 0xFF	; 255
     84c:	c8 01       	movw	r24, r16
     84e:	0e 94 9e 1b 	call	0x373c	; 0x373c <_ZN5ValueC1Ev>
     852:	84 e2       	ldi	r24, 0x24	; 36
     854:	f5 01       	movw	r30, r10
     856:	80 83       	st	Z, r24
     858:	b6 01       	movw	r22, r12
     85a:	ce 01       	movw	r24, r28
     85c:	01 96       	adiw	r24, 0x01	; 1
     85e:	0e 94 d7 1b 	call	0x37ae	; 0x37ae <_ZN5ValueC1EPKc>
     862:	81 e4       	ldi	r24, 0x41	; 65
     864:	fe 01       	movw	r30, r28
     866:	31 96       	adiw	r30, 0x01	; 1
     868:	d8 01       	movw	r26, r16
     86a:	01 90       	ld	r0, Z+
     86c:	0d 92       	st	X+, r0
     86e:	8a 95       	dec	r24
     870:	e1 f7       	brne	.-8      	; 0x86a <_ZN11Interpreter12parse_stringEv+0xe8>
     872:	c5 01       	movw	r24, r10
     874:	cd 58       	subi	r28, 0x8D	; 141
     876:	df 4f       	sbci	r29, 0xFF	; 255
     878:	0f b6       	in	r0, 0x3f	; 63
     87a:	f8 94       	cli
     87c:	de bf       	out	0x3e, r29	; 62
     87e:	0f be       	out	0x3f, r0	; 63
     880:	cd bf       	out	0x3d, r28	; 61
     882:	df 91       	pop	r29
     884:	cf 91       	pop	r28
     886:	1f 91       	pop	r17
     888:	0f 91       	pop	r16
     88a:	ff 90       	pop	r15
     88c:	ef 90       	pop	r14
     88e:	df 90       	pop	r13
     890:	cf 90       	pop	r12
     892:	bf 90       	pop	r11
     894:	af 90       	pop	r10
     896:	9f 90       	pop	r9
     898:	8f 90       	pop	r8
     89a:	7f 90       	pop	r7
     89c:	6f 90       	pop	r6
     89e:	5f 90       	pop	r5
     8a0:	4f 90       	pop	r4
     8a2:	3f 90       	pop	r3
     8a4:	08 95       	ret

000008a6 <_Z10nocase_cmpPcPKc>:
     8a6:	8f 92       	push	r8
     8a8:	9f 92       	push	r9
     8aa:	af 92       	push	r10
     8ac:	bf 92       	push	r11
     8ae:	cf 92       	push	r12
     8b0:	df 92       	push	r13
     8b2:	ff 92       	push	r15
     8b4:	0f 93       	push	r16
     8b6:	1f 93       	push	r17
     8b8:	cf 93       	push	r28
     8ba:	df 93       	push	r29
     8bc:	8c 01       	movw	r16, r24
     8be:	5b 01       	movw	r10, r22
     8c0:	6c 01       	movw	r12, r24
     8c2:	eb 01       	movw	r28, r22
     8c4:	fe 01       	movw	r30, r28
     8c6:	ea 19       	sub	r30, r10
     8c8:	fb 09       	sbc	r31, r11
     8ca:	f9 90       	ld	r15, Y+
     8cc:	ff 20       	and	r15, r15
     8ce:	89 f0       	breq	.+34     	; 0x8f2 <_Z10nocase_cmpPcPKc+0x4c>
     8d0:	f6 01       	movw	r30, r12
     8d2:	81 91       	ld	r24, Z+
     8d4:	6f 01       	movw	r12, r30
     8d6:	90 e0       	ldi	r25, 0x00	; 0
     8d8:	0e 94 c0 31 	call	0x6380	; 0x6380 <toupper>
     8dc:	4c 01       	movw	r8, r24
     8de:	8f 2d       	mov	r24, r15
     8e0:	90 e0       	ldi	r25, 0x00	; 0
     8e2:	0e 94 c0 31 	call	0x6380	; 0x6380 <toupper>
     8e6:	88 16       	cp	r8, r24
     8e8:	99 06       	cpc	r9, r25
     8ea:	61 f3       	breq	.-40     	; 0x8c4 <_Z10nocase_cmpPcPKc+0x1e>
     8ec:	81 e0       	ldi	r24, 0x01	; 1
     8ee:	90 e0       	ldi	r25, 0x00	; 0
     8f0:	08 c0       	rjmp	.+16     	; 0x902 <_Z10nocase_cmpPcPKc+0x5c>
     8f2:	e0 0f       	add	r30, r16
     8f4:	f1 1f       	adc	r31, r17
     8f6:	81 e0       	ldi	r24, 0x01	; 1
     8f8:	90 e0       	ldi	r25, 0x00	; 0
     8fa:	20 81       	ld	r18, Z
     8fc:	21 11       	cpse	r18, r1
     8fe:	01 c0       	rjmp	.+2      	; 0x902 <_Z10nocase_cmpPcPKc+0x5c>
     900:	80 e0       	ldi	r24, 0x00	; 0
     902:	df 91       	pop	r29
     904:	cf 91       	pop	r28
     906:	1f 91       	pop	r17
     908:	0f 91       	pop	r16
     90a:	ff 90       	pop	r15
     90c:	df 90       	pop	r13
     90e:	cf 90       	pop	r12
     910:	bf 90       	pop	r11
     912:	af 90       	pop	r10
     914:	9f 90       	pop	r9
     916:	8f 90       	pop	r8
     918:	08 95       	ret

0000091a <_ZN11Interpreter3_idEv>:
     91a:	3f 92       	push	r3
     91c:	4f 92       	push	r4
     91e:	5f 92       	push	r5
     920:	6f 92       	push	r6
     922:	7f 92       	push	r7
     924:	8f 92       	push	r8
     926:	9f 92       	push	r9
     928:	af 92       	push	r10
     92a:	bf 92       	push	r11
     92c:	cf 92       	push	r12
     92e:	df 92       	push	r13
     930:	ef 92       	push	r14
     932:	ff 92       	push	r15
     934:	0f 93       	push	r16
     936:	1f 93       	push	r17
     938:	cf 93       	push	r28
     93a:	df 93       	push	r29
     93c:	cd b7       	in	r28, 0x3d	; 61
     93e:	de b7       	in	r29, 0x3e	; 62
     940:	c3 57       	subi	r28, 0x73	; 115
     942:	d1 09       	sbc	r29, r1
     944:	0f b6       	in	r0, 0x3f	; 63
     946:	f8 94       	cli
     948:	de bf       	out	0x3e, r29	; 62
     94a:	0f be       	out	0x3f, r0	; 63
     94c:	cd bf       	out	0x3d, r28	; 61
     94e:	8c 01       	movw	r16, r24
     950:	5b 01       	movw	r10, r22
     952:	01 96       	adiw	r24, 0x01	; 1
     954:	0e 94 9e 1b 	call	0x373c	; 0x373c <_ZN5ValueC1Ev>
     958:	7e 01       	movw	r14, r28
     95a:	82 e4       	ldi	r24, 0x42	; 66
     95c:	e8 0e       	add	r14, r24
     95e:	f1 1c       	adc	r15, r1
     960:	37 01       	movw	r6, r14
     962:	25 01       	movw	r4, r10
     964:	e2 e7       	ldi	r30, 0x72	; 114
     966:	4e 1a       	sub	r4, r30
     968:	e8 ef       	ldi	r30, 0xF8	; 248
     96a:	5e 0a       	sbc	r5, r30
     96c:	63 01       	movw	r12, r6
     96e:	ce 18       	sub	r12, r14
     970:	df 08       	sbc	r13, r15
     972:	f2 01       	movw	r30, r4
     974:	30 80       	ld	r3, Z
     976:	33 20       	and	r3, r3
     978:	39 f1       	breq	.+78     	; 0x9c8 <_ZN11Interpreter3_idEv+0xae>
     97a:	83 2c       	mov	r8, r3
     97c:	91 2c       	mov	r9, r1
     97e:	c4 01       	movw	r24, r8
     980:	0e 94 a4 31 	call	0x6348	; 0x6348 <isalnum>
     984:	89 2b       	or	r24, r25
     986:	91 f0       	breq	.+36     	; 0x9ac <_ZN11Interpreter3_idEv+0x92>
     988:	c4 01       	movw	r24, r8
     98a:	0e 94 b1 31 	call	0x6362	; 0x6362 <isalpha>
     98e:	89 2b       	or	r24, r25
     990:	29 f0       	breq	.+10     	; 0x99c <_ZN11Interpreter3_idEv+0x82>
     992:	c4 01       	movw	r24, r8
     994:	0e 94 c0 31 	call	0x6380	; 0x6380 <toupper>
     998:	f2 01       	movw	r30, r4
     99a:	80 83       	st	Z, r24
     99c:	f2 01       	movw	r30, r4
     99e:	80 81       	ld	r24, Z
     9a0:	f3 01       	movw	r30, r6
     9a2:	81 93       	st	Z+, r24
     9a4:	3f 01       	movw	r6, r30
     9a6:	c5 01       	movw	r24, r10
     9a8:	a1 dd       	rcall	.-1214   	; 0x4ec <_ZN11Interpreter7advanceEv>
     9aa:	e0 cf       	rjmp	.-64     	; 0x96c <_ZN11Interpreter3_idEv+0x52>
     9ac:	fa e3       	ldi	r31, 0x3A	; 58
     9ae:	3f 12       	cpse	r3, r31
     9b0:	0b c0       	rjmp	.+22     	; 0x9c8 <_ZN11Interpreter3_idEv+0xae>
     9b2:	c5 01       	movw	r24, r10
     9b4:	9b dd       	rcall	.-1226   	; 0x4ec <_ZN11Interpreter7advanceEv>
     9b6:	f7 01       	movw	r30, r14
     9b8:	ec 0d       	add	r30, r12
     9ba:	fd 1d       	adc	r31, r13
     9bc:	10 82       	st	Z, r1
     9be:	83 e3       	ldi	r24, 0x33	; 51
     9c0:	f8 01       	movw	r30, r16
     9c2:	80 83       	st	Z, r24
     9c4:	b7 01       	movw	r22, r14
     9c6:	e0 c3       	rjmp	.+1984   	; 0x1188 <_ZN11Interpreter3_idEv+0x86e>
     9c8:	f7 01       	movw	r30, r14
     9ca:	ec 0d       	add	r30, r12
     9cc:	fd 1d       	adc	r31, r13
     9ce:	10 82       	st	Z, r1
     9d0:	6d e0       	ldi	r22, 0x0D	; 13
     9d2:	71 e0       	ldi	r23, 0x01	; 1
     9d4:	c7 01       	movw	r24, r14
     9d6:	67 df       	rcall	.-306    	; 0x8a6 <_Z10nocase_cmpPcPKc>
     9d8:	89 2b       	or	r24, r25
     9da:	31 f4       	brne	.+12     	; 0x9e8 <_ZN11Interpreter3_idEv+0xce>
     9dc:	8d e2       	ldi	r24, 0x2D	; 45
     9de:	f8 01       	movw	r30, r16
     9e0:	80 83       	st	Z, r24
     9e2:	61 e0       	ldi	r22, 0x01	; 1
     9e4:	70 e0       	ldi	r23, 0x00	; 0
     9e6:	9d c2       	rjmp	.+1338   	; 0xf22 <_ZN11Interpreter3_idEv+0x608>
     9e8:	63 e1       	ldi	r22, 0x13	; 19
     9ea:	71 e0       	ldi	r23, 0x01	; 1
     9ec:	c7 01       	movw	r24, r14
     9ee:	5b df       	rcall	.-330    	; 0x8a6 <_Z10nocase_cmpPcPKc>
     9f0:	89 2b       	or	r24, r25
     9f2:	31 f4       	brne	.+12     	; 0xa00 <_ZN11Interpreter3_idEv+0xe6>
     9f4:	8d e2       	ldi	r24, 0x2D	; 45
     9f6:	f8 01       	movw	r30, r16
     9f8:	80 83       	st	Z, r24
     9fa:	62 e0       	ldi	r22, 0x02	; 2
     9fc:	70 e0       	ldi	r23, 0x00	; 0
     9fe:	91 c2       	rjmp	.+1314   	; 0xf22 <_ZN11Interpreter3_idEv+0x608>
     a00:	67 e1       	ldi	r22, 0x17	; 23
     a02:	71 e0       	ldi	r23, 0x01	; 1
     a04:	c7 01       	movw	r24, r14
     a06:	4f df       	rcall	.-354    	; 0x8a6 <_Z10nocase_cmpPcPKc>
     a08:	89 2b       	or	r24, r25
     a0a:	31 f4       	brne	.+12     	; 0xa18 <_ZN11Interpreter3_idEv+0xfe>
     a0c:	8d e2       	ldi	r24, 0x2D	; 45
     a0e:	f8 01       	movw	r30, r16
     a10:	80 83       	st	Z, r24
     a12:	63 e0       	ldi	r22, 0x03	; 3
     a14:	70 e0       	ldi	r23, 0x00	; 0
     a16:	85 c2       	rjmp	.+1290   	; 0xf22 <_ZN11Interpreter3_idEv+0x608>
     a18:	6e e1       	ldi	r22, 0x1E	; 30
     a1a:	71 e0       	ldi	r23, 0x01	; 1
     a1c:	c7 01       	movw	r24, r14
     a1e:	43 df       	rcall	.-378    	; 0x8a6 <_Z10nocase_cmpPcPKc>
     a20:	89 2b       	or	r24, r25
     a22:	31 f4       	brne	.+12     	; 0xa30 <_ZN11Interpreter3_idEv+0x116>
     a24:	8d e2       	ldi	r24, 0x2D	; 45
     a26:	f8 01       	movw	r30, r16
     a28:	80 83       	st	Z, r24
     a2a:	6e e1       	ldi	r22, 0x1E	; 30
     a2c:	70 e0       	ldi	r23, 0x00	; 0
     a2e:	79 c2       	rjmp	.+1266   	; 0xf22 <_ZN11Interpreter3_idEv+0x608>
     a30:	61 e2       	ldi	r22, 0x21	; 33
     a32:	71 e0       	ldi	r23, 0x01	; 1
     a34:	c7 01       	movw	r24, r14
     a36:	37 df       	rcall	.-402    	; 0x8a6 <_Z10nocase_cmpPcPKc>
     a38:	89 2b       	or	r24, r25
     a3a:	31 f4       	brne	.+12     	; 0xa48 <_ZN11Interpreter3_idEv+0x12e>
     a3c:	8d e2       	ldi	r24, 0x2D	; 45
     a3e:	f8 01       	movw	r30, r16
     a40:	80 83       	st	Z, r24
     a42:	63 e2       	ldi	r22, 0x23	; 35
     a44:	70 e0       	ldi	r23, 0x00	; 0
     a46:	6d c2       	rjmp	.+1242   	; 0xf22 <_ZN11Interpreter3_idEv+0x608>
     a48:	6f e0       	ldi	r22, 0x0F	; 15
     a4a:	71 e0       	ldi	r23, 0x01	; 1
     a4c:	c7 01       	movw	r24, r14
     a4e:	2b df       	rcall	.-426    	; 0x8a6 <_Z10nocase_cmpPcPKc>
     a50:	89 2b       	or	r24, r25
     a52:	31 f4       	brne	.+12     	; 0xa60 <_ZN11Interpreter3_idEv+0x146>
     a54:	8d e2       	ldi	r24, 0x2D	; 45
     a56:	f8 01       	movw	r30, r16
     a58:	80 83       	st	Z, r24
     a5a:	64 e2       	ldi	r22, 0x24	; 36
     a5c:	70 e0       	ldi	r23, 0x00	; 0
     a5e:	61 c2       	rjmp	.+1218   	; 0xf22 <_ZN11Interpreter3_idEv+0x608>
     a60:	65 e2       	ldi	r22, 0x25	; 37
     a62:	71 e0       	ldi	r23, 0x01	; 1
     a64:	c7 01       	movw	r24, r14
     a66:	1f df       	rcall	.-450    	; 0x8a6 <_Z10nocase_cmpPcPKc>
     a68:	89 2b       	or	r24, r25
     a6a:	31 f4       	brne	.+12     	; 0xa78 <_ZN11Interpreter3_idEv+0x15e>
     a6c:	8d e2       	ldi	r24, 0x2D	; 45
     a6e:	f8 01       	movw	r30, r16
     a70:	80 83       	st	Z, r24
     a72:	66 e2       	ldi	r22, 0x26	; 38
     a74:	70 e0       	ldi	r23, 0x00	; 0
     a76:	55 c2       	rjmp	.+1194   	; 0xf22 <_ZN11Interpreter3_idEv+0x608>
     a78:	6a e2       	ldi	r22, 0x2A	; 42
     a7a:	71 e0       	ldi	r23, 0x01	; 1
     a7c:	c7 01       	movw	r24, r14
     a7e:	13 df       	rcall	.-474    	; 0x8a6 <_Z10nocase_cmpPcPKc>
     a80:	89 2b       	or	r24, r25
     a82:	31 f4       	brne	.+12     	; 0xa90 <_ZN11Interpreter3_idEv+0x176>
     a84:	8d e2       	ldi	r24, 0x2D	; 45
     a86:	f8 01       	movw	r30, r16
     a88:	80 83       	st	Z, r24
     a8a:	65 e2       	ldi	r22, 0x25	; 37
     a8c:	70 e0       	ldi	r23, 0x00	; 0
     a8e:	49 c2       	rjmp	.+1170   	; 0xf22 <_ZN11Interpreter3_idEv+0x608>
     a90:	6e e2       	ldi	r22, 0x2E	; 46
     a92:	71 e0       	ldi	r23, 0x01	; 1
     a94:	c7 01       	movw	r24, r14
     a96:	07 df       	rcall	.-498    	; 0x8a6 <_Z10nocase_cmpPcPKc>
     a98:	89 2b       	or	r24, r25
     a9a:	31 f4       	brne	.+12     	; 0xaa8 <_ZN11Interpreter3_idEv+0x18e>
     a9c:	8d e2       	ldi	r24, 0x2D	; 45
     a9e:	f8 01       	movw	r30, r16
     aa0:	80 83       	st	Z, r24
     aa2:	64 e0       	ldi	r22, 0x04	; 4
     aa4:	70 e0       	ldi	r23, 0x00	; 0
     aa6:	3d c2       	rjmp	.+1146   	; 0xf22 <_ZN11Interpreter3_idEv+0x608>
     aa8:	66 e3       	ldi	r22, 0x36	; 54
     aaa:	71 e0       	ldi	r23, 0x01	; 1
     aac:	c7 01       	movw	r24, r14
     aae:	fb de       	rcall	.-522    	; 0x8a6 <_Z10nocase_cmpPcPKc>
     ab0:	89 2b       	or	r24, r25
     ab2:	31 f4       	brne	.+12     	; 0xac0 <_ZN11Interpreter3_idEv+0x1a6>
     ab4:	8d e2       	ldi	r24, 0x2D	; 45
     ab6:	f8 01       	movw	r30, r16
     ab8:	80 83       	st	Z, r24
     aba:	65 e0       	ldi	r22, 0x05	; 5
     abc:	70 e0       	ldi	r23, 0x00	; 0
     abe:	31 c2       	rjmp	.+1122   	; 0xf22 <_ZN11Interpreter3_idEv+0x608>
     ac0:	6d e3       	ldi	r22, 0x3D	; 61
     ac2:	71 e0       	ldi	r23, 0x01	; 1
     ac4:	c7 01       	movw	r24, r14
     ac6:	ef de       	rcall	.-546    	; 0x8a6 <_Z10nocase_cmpPcPKc>
     ac8:	89 2b       	or	r24, r25
     aca:	31 f4       	brne	.+12     	; 0xad8 <_ZN11Interpreter3_idEv+0x1be>
     acc:	8d e2       	ldi	r24, 0x2D	; 45
     ace:	f8 01       	movw	r30, r16
     ad0:	80 83       	st	Z, r24
     ad2:	66 e0       	ldi	r22, 0x06	; 6
     ad4:	70 e0       	ldi	r23, 0x00	; 0
     ad6:	25 c2       	rjmp	.+1098   	; 0xf22 <_ZN11Interpreter3_idEv+0x608>
     ad8:	63 e4       	ldi	r22, 0x43	; 67
     ada:	71 e0       	ldi	r23, 0x01	; 1
     adc:	c7 01       	movw	r24, r14
     ade:	e3 de       	rcall	.-570    	; 0x8a6 <_Z10nocase_cmpPcPKc>
     ae0:	89 2b       	or	r24, r25
     ae2:	31 f4       	brne	.+12     	; 0xaf0 <_ZN11Interpreter3_idEv+0x1d6>
     ae4:	8d e2       	ldi	r24, 0x2D	; 45
     ae6:	f8 01       	movw	r30, r16
     ae8:	80 83       	st	Z, r24
     aea:	67 e0       	ldi	r22, 0x07	; 7
     aec:	70 e0       	ldi	r23, 0x00	; 0
     aee:	19 c2       	rjmp	.+1074   	; 0xf22 <_ZN11Interpreter3_idEv+0x608>
     af0:	68 e4       	ldi	r22, 0x48	; 72
     af2:	71 e0       	ldi	r23, 0x01	; 1
     af4:	c7 01       	movw	r24, r14
     af6:	d7 de       	rcall	.-594    	; 0x8a6 <_Z10nocase_cmpPcPKc>
     af8:	89 2b       	or	r24, r25
     afa:	31 f4       	brne	.+12     	; 0xb08 <_ZN11Interpreter3_idEv+0x1ee>
     afc:	8d e2       	ldi	r24, 0x2D	; 45
     afe:	f8 01       	movw	r30, r16
     b00:	80 83       	st	Z, r24
     b02:	6b e0       	ldi	r22, 0x0B	; 11
     b04:	70 e0       	ldi	r23, 0x00	; 0
     b06:	0d c2       	rjmp	.+1050   	; 0xf22 <_ZN11Interpreter3_idEv+0x608>
     b08:	6e e4       	ldi	r22, 0x4E	; 78
     b0a:	71 e0       	ldi	r23, 0x01	; 1
     b0c:	c7 01       	movw	r24, r14
     b0e:	cb de       	rcall	.-618    	; 0x8a6 <_Z10nocase_cmpPcPKc>
     b10:	89 2b       	or	r24, r25
     b12:	31 f4       	brne	.+12     	; 0xb20 <_ZN11Interpreter3_idEv+0x206>
     b14:	8d e2       	ldi	r24, 0x2D	; 45
     b16:	f8 01       	movw	r30, r16
     b18:	80 83       	st	Z, r24
     b1a:	6f e0       	ldi	r22, 0x0F	; 15
     b1c:	70 e0       	ldi	r23, 0x00	; 0
     b1e:	01 c2       	rjmp	.+1026   	; 0xf22 <_ZN11Interpreter3_idEv+0x608>
     b20:	63 e5       	ldi	r22, 0x53	; 83
     b22:	71 e0       	ldi	r23, 0x01	; 1
     b24:	c7 01       	movw	r24, r14
     b26:	bf de       	rcall	.-642    	; 0x8a6 <_Z10nocase_cmpPcPKc>
     b28:	89 2b       	or	r24, r25
     b2a:	31 f4       	brne	.+12     	; 0xb38 <_ZN11Interpreter3_idEv+0x21e>
     b2c:	8d e2       	ldi	r24, 0x2D	; 45
     b2e:	f8 01       	movw	r30, r16
     b30:	80 83       	st	Z, r24
     b32:	68 e0       	ldi	r22, 0x08	; 8
     b34:	70 e0       	ldi	r23, 0x00	; 0
     b36:	f5 c1       	rjmp	.+1002   	; 0xf22 <_ZN11Interpreter3_idEv+0x608>
     b38:	68 e5       	ldi	r22, 0x58	; 88
     b3a:	71 e0       	ldi	r23, 0x01	; 1
     b3c:	c7 01       	movw	r24, r14
     b3e:	b3 de       	rcall	.-666    	; 0x8a6 <_Z10nocase_cmpPcPKc>
     b40:	89 2b       	or	r24, r25
     b42:	31 f4       	brne	.+12     	; 0xb50 <_ZN11Interpreter3_idEv+0x236>
     b44:	8d e2       	ldi	r24, 0x2D	; 45
     b46:	f8 01       	movw	r30, r16
     b48:	80 83       	st	Z, r24
     b4a:	69 e0       	ldi	r22, 0x09	; 9
     b4c:	70 e0       	ldi	r23, 0x00	; 0
     b4e:	e9 c1       	rjmp	.+978    	; 0xf22 <_ZN11Interpreter3_idEv+0x608>
     b50:	6d e5       	ldi	r22, 0x5D	; 93
     b52:	71 e0       	ldi	r23, 0x01	; 1
     b54:	c7 01       	movw	r24, r14
     b56:	a7 de       	rcall	.-690    	; 0x8a6 <_Z10nocase_cmpPcPKc>
     b58:	89 2b       	or	r24, r25
     b5a:	31 f4       	brne	.+12     	; 0xb68 <_ZN11Interpreter3_idEv+0x24e>
     b5c:	8d e2       	ldi	r24, 0x2D	; 45
     b5e:	f8 01       	movw	r30, r16
     b60:	80 83       	st	Z, r24
     b62:	6a e0       	ldi	r22, 0x0A	; 10
     b64:	70 e0       	ldi	r23, 0x00	; 0
     b66:	dd c1       	rjmp	.+954    	; 0xf22 <_ZN11Interpreter3_idEv+0x608>
     b68:	62 e6       	ldi	r22, 0x62	; 98
     b6a:	71 e0       	ldi	r23, 0x01	; 1
     b6c:	c7 01       	movw	r24, r14
     b6e:	9b de       	rcall	.-714    	; 0x8a6 <_Z10nocase_cmpPcPKc>
     b70:	89 2b       	or	r24, r25
     b72:	31 f4       	brne	.+12     	; 0xb80 <_ZN11Interpreter3_idEv+0x266>
     b74:	8d e2       	ldi	r24, 0x2D	; 45
     b76:	f8 01       	movw	r30, r16
     b78:	80 83       	st	Z, r24
     b7a:	6c e0       	ldi	r22, 0x0C	; 12
     b7c:	70 e0       	ldi	r23, 0x00	; 0
     b7e:	d1 c1       	rjmp	.+930    	; 0xf22 <_ZN11Interpreter3_idEv+0x608>
     b80:	68 e6       	ldi	r22, 0x68	; 104
     b82:	71 e0       	ldi	r23, 0x01	; 1
     b84:	c7 01       	movw	r24, r14
     b86:	8f de       	rcall	.-738    	; 0x8a6 <_Z10nocase_cmpPcPKc>
     b88:	89 2b       	or	r24, r25
     b8a:	31 f4       	brne	.+12     	; 0xb98 <_ZN11Interpreter3_idEv+0x27e>
     b8c:	8d e2       	ldi	r24, 0x2D	; 45
     b8e:	f8 01       	movw	r30, r16
     b90:	80 83       	st	Z, r24
     b92:	6d e0       	ldi	r22, 0x0D	; 13
     b94:	70 e0       	ldi	r23, 0x00	; 0
     b96:	c5 c1       	rjmp	.+906    	; 0xf22 <_ZN11Interpreter3_idEv+0x608>
     b98:	6e e6       	ldi	r22, 0x6E	; 110
     b9a:	71 e0       	ldi	r23, 0x01	; 1
     b9c:	c7 01       	movw	r24, r14
     b9e:	83 de       	rcall	.-762    	; 0x8a6 <_Z10nocase_cmpPcPKc>
     ba0:	89 2b       	or	r24, r25
     ba2:	31 f4       	brne	.+12     	; 0xbb0 <_ZN11Interpreter3_idEv+0x296>
     ba4:	8d e2       	ldi	r24, 0x2D	; 45
     ba6:	f8 01       	movw	r30, r16
     ba8:	80 83       	st	Z, r24
     baa:	6e e0       	ldi	r22, 0x0E	; 14
     bac:	70 e0       	ldi	r23, 0x00	; 0
     bae:	b9 c1       	rjmp	.+882    	; 0xf22 <_ZN11Interpreter3_idEv+0x608>
     bb0:	64 e7       	ldi	r22, 0x74	; 116
     bb2:	71 e0       	ldi	r23, 0x01	; 1
     bb4:	c7 01       	movw	r24, r14
     bb6:	77 de       	rcall	.-786    	; 0x8a6 <_Z10nocase_cmpPcPKc>
     bb8:	89 2b       	or	r24, r25
     bba:	31 f4       	brne	.+12     	; 0xbc8 <_ZN11Interpreter3_idEv+0x2ae>
     bbc:	8d e2       	ldi	r24, 0x2D	; 45
     bbe:	f8 01       	movw	r30, r16
     bc0:	80 83       	st	Z, r24
     bc2:	60 e1       	ldi	r22, 0x10	; 16
     bc4:	70 e0       	ldi	r23, 0x00	; 0
     bc6:	ad c1       	rjmp	.+858    	; 0xf22 <_ZN11Interpreter3_idEv+0x608>
     bc8:	69 e7       	ldi	r22, 0x79	; 121
     bca:	71 e0       	ldi	r23, 0x01	; 1
     bcc:	c7 01       	movw	r24, r14
     bce:	6b de       	rcall	.-810    	; 0x8a6 <_Z10nocase_cmpPcPKc>
     bd0:	89 2b       	or	r24, r25
     bd2:	31 f4       	brne	.+12     	; 0xbe0 <_ZN11Interpreter3_idEv+0x2c6>
     bd4:	8d e2       	ldi	r24, 0x2D	; 45
     bd6:	f8 01       	movw	r30, r16
     bd8:	80 83       	st	Z, r24
     bda:	61 e1       	ldi	r22, 0x11	; 17
     bdc:	70 e0       	ldi	r23, 0x00	; 0
     bde:	a1 c1       	rjmp	.+834    	; 0xf22 <_ZN11Interpreter3_idEv+0x608>
     be0:	6e e7       	ldi	r22, 0x7E	; 126
     be2:	71 e0       	ldi	r23, 0x01	; 1
     be4:	c7 01       	movw	r24, r14
     be6:	5f de       	rcall	.-834    	; 0x8a6 <_Z10nocase_cmpPcPKc>
     be8:	89 2b       	or	r24, r25
     bea:	31 f4       	brne	.+12     	; 0xbf8 <_ZN11Interpreter3_idEv+0x2de>
     bec:	8d e2       	ldi	r24, 0x2D	; 45
     bee:	f8 01       	movw	r30, r16
     bf0:	80 83       	st	Z, r24
     bf2:	62 e1       	ldi	r22, 0x12	; 18
     bf4:	70 e0       	ldi	r23, 0x00	; 0
     bf6:	95 c1       	rjmp	.+810    	; 0xf22 <_ZN11Interpreter3_idEv+0x608>
     bf8:	63 e8       	ldi	r22, 0x83	; 131
     bfa:	71 e0       	ldi	r23, 0x01	; 1
     bfc:	c7 01       	movw	r24, r14
     bfe:	53 de       	rcall	.-858    	; 0x8a6 <_Z10nocase_cmpPcPKc>
     c00:	89 2b       	or	r24, r25
     c02:	31 f4       	brne	.+12     	; 0xc10 <_ZN11Interpreter3_idEv+0x2f6>
     c04:	8d e2       	ldi	r24, 0x2D	; 45
     c06:	f8 01       	movw	r30, r16
     c08:	80 83       	st	Z, r24
     c0a:	6a e1       	ldi	r22, 0x1A	; 26
     c0c:	70 e0       	ldi	r23, 0x00	; 0
     c0e:	89 c1       	rjmp	.+786    	; 0xf22 <_ZN11Interpreter3_idEv+0x608>
     c10:	6c e8       	ldi	r22, 0x8C	; 140
     c12:	71 e0       	ldi	r23, 0x01	; 1
     c14:	c7 01       	movw	r24, r14
     c16:	47 de       	rcall	.-882    	; 0x8a6 <_Z10nocase_cmpPcPKc>
     c18:	89 2b       	or	r24, r25
     c1a:	31 f4       	brne	.+12     	; 0xc28 <_ZN11Interpreter3_idEv+0x30e>
     c1c:	8d e2       	ldi	r24, 0x2D	; 45
     c1e:	f8 01       	movw	r30, r16
     c20:	80 83       	st	Z, r24
     c22:	6b e1       	ldi	r22, 0x1B	; 27
     c24:	70 e0       	ldi	r23, 0x00	; 0
     c26:	7d c1       	rjmp	.+762    	; 0xf22 <_ZN11Interpreter3_idEv+0x608>
     c28:	62 e9       	ldi	r22, 0x92	; 146
     c2a:	71 e0       	ldi	r23, 0x01	; 1
     c2c:	c7 01       	movw	r24, r14
     c2e:	3b de       	rcall	.-906    	; 0x8a6 <_Z10nocase_cmpPcPKc>
     c30:	89 2b       	or	r24, r25
     c32:	31 f4       	brne	.+12     	; 0xc40 <_ZN11Interpreter3_idEv+0x326>
     c34:	8d e2       	ldi	r24, 0x2D	; 45
     c36:	f8 01       	movw	r30, r16
     c38:	80 83       	st	Z, r24
     c3a:	62 e2       	ldi	r22, 0x22	; 34
     c3c:	70 e0       	ldi	r23, 0x00	; 0
     c3e:	71 c1       	rjmp	.+738    	; 0xf22 <_ZN11Interpreter3_idEv+0x608>
     c40:	6b e9       	ldi	r22, 0x9B	; 155
     c42:	71 e0       	ldi	r23, 0x01	; 1
     c44:	c7 01       	movw	r24, r14
     c46:	2f de       	rcall	.-930    	; 0x8a6 <_Z10nocase_cmpPcPKc>
     c48:	89 2b       	or	r24, r25
     c4a:	31 f4       	brne	.+12     	; 0xc58 <_ZN11Interpreter3_idEv+0x33e>
     c4c:	8d e2       	ldi	r24, 0x2D	; 45
     c4e:	f8 01       	movw	r30, r16
     c50:	80 83       	st	Z, r24
     c52:	6c e1       	ldi	r22, 0x1C	; 28
     c54:	70 e0       	ldi	r23, 0x00	; 0
     c56:	65 c1       	rjmp	.+714    	; 0xf22 <_ZN11Interpreter3_idEv+0x608>
     c58:	63 ea       	ldi	r22, 0xA3	; 163
     c5a:	71 e0       	ldi	r23, 0x01	; 1
     c5c:	c7 01       	movw	r24, r14
     c5e:	23 de       	rcall	.-954    	; 0x8a6 <_Z10nocase_cmpPcPKc>
     c60:	89 2b       	or	r24, r25
     c62:	31 f4       	brne	.+12     	; 0xc70 <_ZN11Interpreter3_idEv+0x356>
     c64:	8d e2       	ldi	r24, 0x2D	; 45
     c66:	f8 01       	movw	r30, r16
     c68:	80 83       	st	Z, r24
     c6a:	6d e1       	ldi	r22, 0x1D	; 29
     c6c:	70 e0       	ldi	r23, 0x00	; 0
     c6e:	59 c1       	rjmp	.+690    	; 0xf22 <_ZN11Interpreter3_idEv+0x608>
     c70:	6b ea       	ldi	r22, 0xAB	; 171
     c72:	71 e0       	ldi	r23, 0x01	; 1
     c74:	c7 01       	movw	r24, r14
     c76:	17 de       	rcall	.-978    	; 0x8a6 <_Z10nocase_cmpPcPKc>
     c78:	89 2b       	or	r24, r25
     c7a:	31 f4       	brne	.+12     	; 0xc88 <_ZN11Interpreter3_idEv+0x36e>
     c7c:	8d e2       	ldi	r24, 0x2D	; 45
     c7e:	f8 01       	movw	r30, r16
     c80:	80 83       	st	Z, r24
     c82:	63 e1       	ldi	r22, 0x13	; 19
     c84:	70 e0       	ldi	r23, 0x00	; 0
     c86:	4d c1       	rjmp	.+666    	; 0xf22 <_ZN11Interpreter3_idEv+0x608>
     c88:	63 eb       	ldi	r22, 0xB3	; 179
     c8a:	71 e0       	ldi	r23, 0x01	; 1
     c8c:	c7 01       	movw	r24, r14
     c8e:	0b de       	rcall	.-1002   	; 0x8a6 <_Z10nocase_cmpPcPKc>
     c90:	89 2b       	or	r24, r25
     c92:	31 f4       	brne	.+12     	; 0xca0 <_ZN11Interpreter3_idEv+0x386>
     c94:	8d e2       	ldi	r24, 0x2D	; 45
     c96:	f8 01       	movw	r30, r16
     c98:	80 83       	st	Z, r24
     c9a:	64 e1       	ldi	r22, 0x14	; 20
     c9c:	70 e0       	ldi	r23, 0x00	; 0
     c9e:	41 c1       	rjmp	.+642    	; 0xf22 <_ZN11Interpreter3_idEv+0x608>
     ca0:	69 eb       	ldi	r22, 0xB9	; 185
     ca2:	71 e0       	ldi	r23, 0x01	; 1
     ca4:	ce 01       	movw	r24, r28
     ca6:	8e 5b       	subi	r24, 0xBE	; 190
     ca8:	9f 4f       	sbci	r25, 0xFF	; 255
     caa:	fd dd       	rcall	.-1030   	; 0x8a6 <_Z10nocase_cmpPcPKc>
     cac:	89 2b       	or	r24, r25
     cae:	31 f4       	brne	.+12     	; 0xcbc <_ZN11Interpreter3_idEv+0x3a2>
     cb0:	8d e2       	ldi	r24, 0x2D	; 45
     cb2:	f8 01       	movw	r30, r16
     cb4:	80 83       	st	Z, r24
     cb6:	65 e1       	ldi	r22, 0x15	; 21
     cb8:	70 e0       	ldi	r23, 0x00	; 0
     cba:	33 c1       	rjmp	.+614    	; 0xf22 <_ZN11Interpreter3_idEv+0x608>
     cbc:	62 ec       	ldi	r22, 0xC2	; 194
     cbe:	71 e0       	ldi	r23, 0x01	; 1
     cc0:	ce 01       	movw	r24, r28
     cc2:	8e 5b       	subi	r24, 0xBE	; 190
     cc4:	9f 4f       	sbci	r25, 0xFF	; 255
     cc6:	ef dd       	rcall	.-1058   	; 0x8a6 <_Z10nocase_cmpPcPKc>
     cc8:	89 2b       	or	r24, r25
     cca:	31 f4       	brne	.+12     	; 0xcd8 <_ZN11Interpreter3_idEv+0x3be>
     ccc:	8d e2       	ldi	r24, 0x2D	; 45
     cce:	f8 01       	movw	r30, r16
     cd0:	80 83       	st	Z, r24
     cd2:	6f e1       	ldi	r22, 0x1F	; 31
     cd4:	70 e0       	ldi	r23, 0x00	; 0
     cd6:	25 c1       	rjmp	.+586    	; 0xf22 <_ZN11Interpreter3_idEv+0x608>
     cd8:	6b ec       	ldi	r22, 0xCB	; 203
     cda:	71 e0       	ldi	r23, 0x01	; 1
     cdc:	ce 01       	movw	r24, r28
     cde:	8e 5b       	subi	r24, 0xBE	; 190
     ce0:	9f 4f       	sbci	r25, 0xFF	; 255
     ce2:	e1 dd       	rcall	.-1086   	; 0x8a6 <_Z10nocase_cmpPcPKc>
     ce4:	89 2b       	or	r24, r25
     ce6:	31 f4       	brne	.+12     	; 0xcf4 <_ZN11Interpreter3_idEv+0x3da>
     ce8:	8d e2       	ldi	r24, 0x2D	; 45
     cea:	f8 01       	movw	r30, r16
     cec:	80 83       	st	Z, r24
     cee:	61 e2       	ldi	r22, 0x21	; 33
     cf0:	70 e0       	ldi	r23, 0x00	; 0
     cf2:	17 c1       	rjmp	.+558    	; 0xf22 <_ZN11Interpreter3_idEv+0x608>
     cf4:	63 ed       	ldi	r22, 0xD3	; 211
     cf6:	71 e0       	ldi	r23, 0x01	; 1
     cf8:	ce 01       	movw	r24, r28
     cfa:	8e 5b       	subi	r24, 0xBE	; 190
     cfc:	9f 4f       	sbci	r25, 0xFF	; 255
     cfe:	d3 dd       	rcall	.-1114   	; 0x8a6 <_Z10nocase_cmpPcPKc>
     d00:	89 2b       	or	r24, r25
     d02:	31 f4       	brne	.+12     	; 0xd10 <_ZN11Interpreter3_idEv+0x3f6>
     d04:	8d e2       	ldi	r24, 0x2D	; 45
     d06:	f8 01       	movw	r30, r16
     d08:	80 83       	st	Z, r24
     d0a:	60 e2       	ldi	r22, 0x20	; 32
     d0c:	70 e0       	ldi	r23, 0x00	; 0
     d0e:	09 c1       	rjmp	.+530    	; 0xf22 <_ZN11Interpreter3_idEv+0x608>
     d10:	6c ed       	ldi	r22, 0xDC	; 220
     d12:	71 e0       	ldi	r23, 0x01	; 1
     d14:	ce 01       	movw	r24, r28
     d16:	8e 5b       	subi	r24, 0xBE	; 190
     d18:	9f 4f       	sbci	r25, 0xFF	; 255
     d1a:	c5 dd       	rcall	.-1142   	; 0x8a6 <_Z10nocase_cmpPcPKc>
     d1c:	89 2b       	or	r24, r25
     d1e:	31 f4       	brne	.+12     	; 0xd2c <_ZN11Interpreter3_idEv+0x412>
     d20:	8d e2       	ldi	r24, 0x2D	; 45
     d22:	f8 01       	movw	r30, r16
     d24:	80 83       	st	Z, r24
     d26:	66 e1       	ldi	r22, 0x16	; 22
     d28:	70 e0       	ldi	r23, 0x00	; 0
     d2a:	fb c0       	rjmp	.+502    	; 0xf22 <_ZN11Interpreter3_idEv+0x608>
     d2c:	67 ee       	ldi	r22, 0xE7	; 231
     d2e:	71 e0       	ldi	r23, 0x01	; 1
     d30:	ce 01       	movw	r24, r28
     d32:	8e 5b       	subi	r24, 0xBE	; 190
     d34:	9f 4f       	sbci	r25, 0xFF	; 255
     d36:	b7 dd       	rcall	.-1170   	; 0x8a6 <_Z10nocase_cmpPcPKc>
     d38:	89 2b       	or	r24, r25
     d3a:	31 f4       	brne	.+12     	; 0xd48 <_ZN11Interpreter3_idEv+0x42e>
     d3c:	8d e2       	ldi	r24, 0x2D	; 45
     d3e:	f8 01       	movw	r30, r16
     d40:	80 83       	st	Z, r24
     d42:	67 e1       	ldi	r22, 0x17	; 23
     d44:	70 e0       	ldi	r23, 0x00	; 0
     d46:	ed c0       	rjmp	.+474    	; 0xf22 <_ZN11Interpreter3_idEv+0x608>
     d48:	6f e0       	ldi	r22, 0x0F	; 15
     d4a:	72 e0       	ldi	r23, 0x02	; 2
     d4c:	ce 01       	movw	r24, r28
     d4e:	8e 5b       	subi	r24, 0xBE	; 190
     d50:	9f 4f       	sbci	r25, 0xFF	; 255
     d52:	a9 dd       	rcall	.-1198   	; 0x8a6 <_Z10nocase_cmpPcPKc>
     d54:	89 2b       	or	r24, r25
     d56:	31 f4       	brne	.+12     	; 0xd64 <_ZN11Interpreter3_idEv+0x44a>
     d58:	8d e2       	ldi	r24, 0x2D	; 45
     d5a:	f8 01       	movw	r30, r16
     d5c:	80 83       	st	Z, r24
     d5e:	69 e1       	ldi	r22, 0x19	; 25
     d60:	70 e0       	ldi	r23, 0x00	; 0
     d62:	df c0       	rjmp	.+446    	; 0xf22 <_ZN11Interpreter3_idEv+0x608>
     d64:	60 ef       	ldi	r22, 0xF0	; 240
     d66:	71 e0       	ldi	r23, 0x01	; 1
     d68:	ce 01       	movw	r24, r28
     d6a:	8e 5b       	subi	r24, 0xBE	; 190
     d6c:	9f 4f       	sbci	r25, 0xFF	; 255
     d6e:	9b dd       	rcall	.-1226   	; 0x8a6 <_Z10nocase_cmpPcPKc>
     d70:	89 2b       	or	r24, r25
     d72:	31 f4       	brne	.+12     	; 0xd80 <_ZN11Interpreter3_idEv+0x466>
     d74:	8d e2       	ldi	r24, 0x2D	; 45
     d76:	f8 01       	movw	r30, r16
     d78:	80 83       	st	Z, r24
     d7a:	68 e1       	ldi	r22, 0x18	; 24
     d7c:	70 e0       	ldi	r23, 0x00	; 0
     d7e:	d1 c0       	rjmp	.+418    	; 0xf22 <_ZN11Interpreter3_idEv+0x608>
     d80:	67 ef       	ldi	r22, 0xF7	; 247
     d82:	71 e0       	ldi	r23, 0x01	; 1
     d84:	ce 01       	movw	r24, r28
     d86:	8e 5b       	subi	r24, 0xBE	; 190
     d88:	9f 4f       	sbci	r25, 0xFF	; 255
     d8a:	8d dd       	rcall	.-1254   	; 0x8a6 <_Z10nocase_cmpPcPKc>
     d8c:	89 2b       	or	r24, r25
     d8e:	31 f4       	brne	.+12     	; 0xd9c <_ZN11Interpreter3_idEv+0x482>
     d90:	8d e2       	ldi	r24, 0x2D	; 45
     d92:	f8 01       	movw	r30, r16
     d94:	80 83       	st	Z, r24
     d96:	67 e2       	ldi	r22, 0x27	; 39
     d98:	70 e0       	ldi	r23, 0x00	; 0
     d9a:	c3 c0       	rjmp	.+390    	; 0xf22 <_ZN11Interpreter3_idEv+0x608>
     d9c:	61 e0       	ldi	r22, 0x01	; 1
     d9e:	72 e0       	ldi	r23, 0x02	; 2
     da0:	ce 01       	movw	r24, r28
     da2:	8e 5b       	subi	r24, 0xBE	; 190
     da4:	9f 4f       	sbci	r25, 0xFF	; 255
     da6:	7f dd       	rcall	.-1282   	; 0x8a6 <_Z10nocase_cmpPcPKc>
     da8:	89 2b       	or	r24, r25
     daa:	31 f4       	brne	.+12     	; 0xdb8 <_ZN11Interpreter3_idEv+0x49e>
     dac:	8d e2       	ldi	r24, 0x2D	; 45
     dae:	f8 01       	movw	r30, r16
     db0:	80 83       	st	Z, r24
     db2:	68 e2       	ldi	r22, 0x28	; 40
     db4:	70 e0       	ldi	r23, 0x00	; 0
     db6:	b5 c0       	rjmp	.+362    	; 0xf22 <_ZN11Interpreter3_idEv+0x608>
     db8:	6a e0       	ldi	r22, 0x0A	; 10
     dba:	72 e0       	ldi	r23, 0x02	; 2
     dbc:	ce 01       	movw	r24, r28
     dbe:	8e 5b       	subi	r24, 0xBE	; 190
     dc0:	9f 4f       	sbci	r25, 0xFF	; 255
     dc2:	71 dd       	rcall	.-1310   	; 0x8a6 <_Z10nocase_cmpPcPKc>
     dc4:	89 2b       	or	r24, r25
     dc6:	31 f4       	brne	.+12     	; 0xdd4 <_ZN11Interpreter3_idEv+0x4ba>
     dc8:	8d e2       	ldi	r24, 0x2D	; 45
     dca:	f8 01       	movw	r30, r16
     dcc:	80 83       	st	Z, r24
     dce:	69 e2       	ldi	r22, 0x29	; 41
     dd0:	70 e0       	ldi	r23, 0x00	; 0
     dd2:	a7 c0       	rjmp	.+334    	; 0xf22 <_ZN11Interpreter3_idEv+0x608>
     dd4:	66 e1       	ldi	r22, 0x16	; 22
     dd6:	72 e0       	ldi	r23, 0x02	; 2
     dd8:	ce 01       	movw	r24, r28
     dda:	8e 5b       	subi	r24, 0xBE	; 190
     ddc:	9f 4f       	sbci	r25, 0xFF	; 255
     dde:	63 dd       	rcall	.-1338   	; 0x8a6 <_Z10nocase_cmpPcPKc>
     de0:	89 2b       	or	r24, r25
     de2:	31 f4       	brne	.+12     	; 0xdf0 <_ZN11Interpreter3_idEv+0x4d6>
     de4:	8d e2       	ldi	r24, 0x2D	; 45
     de6:	f8 01       	movw	r30, r16
     de8:	80 83       	st	Z, r24
     dea:	6a e2       	ldi	r22, 0x2A	; 42
     dec:	70 e0       	ldi	r23, 0x00	; 0
     dee:	99 c0       	rjmp	.+306    	; 0xf22 <_ZN11Interpreter3_idEv+0x608>
     df0:	61 e2       	ldi	r22, 0x21	; 33
     df2:	72 e0       	ldi	r23, 0x02	; 2
     df4:	ce 01       	movw	r24, r28
     df6:	8e 5b       	subi	r24, 0xBE	; 190
     df8:	9f 4f       	sbci	r25, 0xFF	; 255
     dfa:	55 dd       	rcall	.-1366   	; 0x8a6 <_Z10nocase_cmpPcPKc>
     dfc:	89 2b       	or	r24, r25
     dfe:	31 f4       	brne	.+12     	; 0xe0c <_ZN11Interpreter3_idEv+0x4f2>
     e00:	8d e2       	ldi	r24, 0x2D	; 45
     e02:	f8 01       	movw	r30, r16
     e04:	80 83       	st	Z, r24
     e06:	6e e2       	ldi	r22, 0x2E	; 46
     e08:	70 e0       	ldi	r23, 0x00	; 0
     e0a:	8b c0       	rjmp	.+278    	; 0xf22 <_ZN11Interpreter3_idEv+0x608>
     e0c:	6b e2       	ldi	r22, 0x2B	; 43
     e0e:	72 e0       	ldi	r23, 0x02	; 2
     e10:	ce 01       	movw	r24, r28
     e12:	8e 5b       	subi	r24, 0xBE	; 190
     e14:	9f 4f       	sbci	r25, 0xFF	; 255
     e16:	47 dd       	rcall	.-1394   	; 0x8a6 <_Z10nocase_cmpPcPKc>
     e18:	89 2b       	or	r24, r25
     e1a:	31 f4       	brne	.+12     	; 0xe28 <_ZN11Interpreter3_idEv+0x50e>
     e1c:	8d e2       	ldi	r24, 0x2D	; 45
     e1e:	f8 01       	movw	r30, r16
     e20:	80 83       	st	Z, r24
     e22:	60 e3       	ldi	r22, 0x30	; 48
     e24:	70 e0       	ldi	r23, 0x00	; 0
     e26:	7d c0       	rjmp	.+250    	; 0xf22 <_ZN11Interpreter3_idEv+0x608>
     e28:	64 e3       	ldi	r22, 0x34	; 52
     e2a:	72 e0       	ldi	r23, 0x02	; 2
     e2c:	ce 01       	movw	r24, r28
     e2e:	8e 5b       	subi	r24, 0xBE	; 190
     e30:	9f 4f       	sbci	r25, 0xFF	; 255
     e32:	39 dd       	rcall	.-1422   	; 0x8a6 <_Z10nocase_cmpPcPKc>
     e34:	89 2b       	or	r24, r25
     e36:	31 f4       	brne	.+12     	; 0xe44 <_ZN11Interpreter3_idEv+0x52a>
     e38:	8d e2       	ldi	r24, 0x2D	; 45
     e3a:	f8 01       	movw	r30, r16
     e3c:	80 83       	st	Z, r24
     e3e:	6f e2       	ldi	r22, 0x2F	; 47
     e40:	70 e0       	ldi	r23, 0x00	; 0
     e42:	6f c0       	rjmp	.+222    	; 0xf22 <_ZN11Interpreter3_idEv+0x608>
     e44:	6e e3       	ldi	r22, 0x3E	; 62
     e46:	72 e0       	ldi	r23, 0x02	; 2
     e48:	ce 01       	movw	r24, r28
     e4a:	8e 5b       	subi	r24, 0xBE	; 190
     e4c:	9f 4f       	sbci	r25, 0xFF	; 255
     e4e:	2b dd       	rcall	.-1450   	; 0x8a6 <_Z10nocase_cmpPcPKc>
     e50:	89 2b       	or	r24, r25
     e52:	31 f4       	brne	.+12     	; 0xe60 <_ZN11Interpreter3_idEv+0x546>
     e54:	8d e2       	ldi	r24, 0x2D	; 45
     e56:	f8 01       	movw	r30, r16
     e58:	80 83       	st	Z, r24
     e5a:	65 e3       	ldi	r22, 0x35	; 53
     e5c:	70 e0       	ldi	r23, 0x00	; 0
     e5e:	61 c0       	rjmp	.+194    	; 0xf22 <_ZN11Interpreter3_idEv+0x608>
     e60:	6a e4       	ldi	r22, 0x4A	; 74
     e62:	72 e0       	ldi	r23, 0x02	; 2
     e64:	ce 01       	movw	r24, r28
     e66:	8e 5b       	subi	r24, 0xBE	; 190
     e68:	9f 4f       	sbci	r25, 0xFF	; 255
     e6a:	1d dd       	rcall	.-1478   	; 0x8a6 <_Z10nocase_cmpPcPKc>
     e6c:	89 2b       	or	r24, r25
     e6e:	31 f4       	brne	.+12     	; 0xe7c <_ZN11Interpreter3_idEv+0x562>
     e70:	8d e2       	ldi	r24, 0x2D	; 45
     e72:	f8 01       	movw	r30, r16
     e74:	80 83       	st	Z, r24
     e76:	6b e2       	ldi	r22, 0x2B	; 43
     e78:	70 e0       	ldi	r23, 0x00	; 0
     e7a:	53 c0       	rjmp	.+166    	; 0xf22 <_ZN11Interpreter3_idEv+0x608>
     e7c:	66 e7       	ldi	r22, 0x76	; 118
     e7e:	72 e0       	ldi	r23, 0x02	; 2
     e80:	ce 01       	movw	r24, r28
     e82:	8e 5b       	subi	r24, 0xBE	; 190
     e84:	9f 4f       	sbci	r25, 0xFF	; 255
     e86:	0f dd       	rcall	.-1506   	; 0x8a6 <_Z10nocase_cmpPcPKc>
     e88:	89 2b       	or	r24, r25
     e8a:	31 f4       	brne	.+12     	; 0xe98 <_ZN11Interpreter3_idEv+0x57e>
     e8c:	8d e2       	ldi	r24, 0x2D	; 45
     e8e:	f8 01       	movw	r30, r16
     e90:	80 83       	st	Z, r24
     e92:	6d e2       	ldi	r22, 0x2D	; 45
     e94:	70 e0       	ldi	r23, 0x00	; 0
     e96:	45 c0       	rjmp	.+138    	; 0xf22 <_ZN11Interpreter3_idEv+0x608>
     e98:	64 e5       	ldi	r22, 0x54	; 84
     e9a:	72 e0       	ldi	r23, 0x02	; 2
     e9c:	ce 01       	movw	r24, r28
     e9e:	8e 5b       	subi	r24, 0xBE	; 190
     ea0:	9f 4f       	sbci	r25, 0xFF	; 255
     ea2:	01 dd       	rcall	.-1534   	; 0x8a6 <_Z10nocase_cmpPcPKc>
     ea4:	89 2b       	or	r24, r25
     ea6:	31 f4       	brne	.+12     	; 0xeb4 <_ZN11Interpreter3_idEv+0x59a>
     ea8:	8d e2       	ldi	r24, 0x2D	; 45
     eaa:	f8 01       	movw	r30, r16
     eac:	80 83       	st	Z, r24
     eae:	6c e2       	ldi	r22, 0x2C	; 44
     eb0:	70 e0       	ldi	r23, 0x00	; 0
     eb2:	37 c0       	rjmp	.+110    	; 0xf22 <_ZN11Interpreter3_idEv+0x608>
     eb4:	6c e5       	ldi	r22, 0x5C	; 92
     eb6:	72 e0       	ldi	r23, 0x02	; 2
     eb8:	ce 01       	movw	r24, r28
     eba:	8e 5b       	subi	r24, 0xBE	; 190
     ebc:	9f 4f       	sbci	r25, 0xFF	; 255
     ebe:	f3 dc       	rcall	.-1562   	; 0x8a6 <_Z10nocase_cmpPcPKc>
     ec0:	89 2b       	or	r24, r25
     ec2:	31 f4       	brne	.+12     	; 0xed0 <_ZN11Interpreter3_idEv+0x5b6>
     ec4:	8d e2       	ldi	r24, 0x2D	; 45
     ec6:	f8 01       	movw	r30, r16
     ec8:	80 83       	st	Z, r24
     eca:	61 e3       	ldi	r22, 0x31	; 49
     ecc:	70 e0       	ldi	r23, 0x00	; 0
     ece:	29 c0       	rjmp	.+82     	; 0xf22 <_ZN11Interpreter3_idEv+0x608>
     ed0:	67 e6       	ldi	r22, 0x67	; 103
     ed2:	72 e0       	ldi	r23, 0x02	; 2
     ed4:	ce 01       	movw	r24, r28
     ed6:	8e 5b       	subi	r24, 0xBE	; 190
     ed8:	9f 4f       	sbci	r25, 0xFF	; 255
     eda:	e5 dc       	rcall	.-1590   	; 0x8a6 <_Z10nocase_cmpPcPKc>
     edc:	89 2b       	or	r24, r25
     ede:	31 f4       	brne	.+12     	; 0xeec <_ZN11Interpreter3_idEv+0x5d2>
     ee0:	8d e2       	ldi	r24, 0x2D	; 45
     ee2:	f8 01       	movw	r30, r16
     ee4:	80 83       	st	Z, r24
     ee6:	62 e3       	ldi	r22, 0x32	; 50
     ee8:	70 e0       	ldi	r23, 0x00	; 0
     eea:	1b c0       	rjmp	.+54     	; 0xf22 <_ZN11Interpreter3_idEv+0x608>
     eec:	61 e7       	ldi	r22, 0x71	; 113
     eee:	72 e0       	ldi	r23, 0x02	; 2
     ef0:	ce 01       	movw	r24, r28
     ef2:	8e 5b       	subi	r24, 0xBE	; 190
     ef4:	9f 4f       	sbci	r25, 0xFF	; 255
     ef6:	d7 dc       	rcall	.-1618   	; 0x8a6 <_Z10nocase_cmpPcPKc>
     ef8:	89 2b       	or	r24, r25
     efa:	31 f4       	brne	.+12     	; 0xf08 <_ZN11Interpreter3_idEv+0x5ee>
     efc:	8d e2       	ldi	r24, 0x2D	; 45
     efe:	f8 01       	movw	r30, r16
     f00:	80 83       	st	Z, r24
     f02:	63 e3       	ldi	r22, 0x33	; 51
     f04:	70 e0       	ldi	r23, 0x00	; 0
     f06:	0d c0       	rjmp	.+26     	; 0xf22 <_ZN11Interpreter3_idEv+0x608>
     f08:	6e e7       	ldi	r22, 0x7E	; 126
     f0a:	72 e0       	ldi	r23, 0x02	; 2
     f0c:	ce 01       	movw	r24, r28
     f0e:	8e 5b       	subi	r24, 0xBE	; 190
     f10:	9f 4f       	sbci	r25, 0xFF	; 255
     f12:	c9 dc       	rcall	.-1646   	; 0x8a6 <_Z10nocase_cmpPcPKc>
     f14:	89 2b       	or	r24, r25
     f16:	51 f4       	brne	.+20     	; 0xf2c <_ZN11Interpreter3_idEv+0x612>
     f18:	8d e2       	ldi	r24, 0x2D	; 45
     f1a:	f8 01       	movw	r30, r16
     f1c:	80 83       	st	Z, r24
     f1e:	64 e3       	ldi	r22, 0x34	; 52
     f20:	70 e0       	ldi	r23, 0x00	; 0
     f22:	ce 01       	movw	r24, r28
     f24:	01 96       	adiw	r24, 0x01	; 1
     f26:	0e 94 9f 1b 	call	0x373e	; 0x373e <_ZN5ValueC1Ei>
     f2a:	32 c1       	rjmp	.+612    	; 0x1190 <_ZN11Interpreter3_idEv+0x876>
     f2c:	6a e8       	ldi	r22, 0x8A	; 138
     f2e:	72 e0       	ldi	r23, 0x02	; 2
     f30:	ce 01       	movw	r24, r28
     f32:	8e 5b       	subi	r24, 0xBE	; 190
     f34:	9f 4f       	sbci	r25, 0xFF	; 255
     f36:	b7 dc       	rcall	.-1682   	; 0x8a6 <_Z10nocase_cmpPcPKc>
     f38:	89 2b       	or	r24, r25
     f3a:	29 f4       	brne	.+10     	; 0xf46 <_ZN11Interpreter3_idEv+0x62c>
     f3c:	85 e2       	ldi	r24, 0x25	; 37
     f3e:	f8 01       	movw	r30, r16
     f40:	80 83       	st	Z, r24
     f42:	61 e0       	ldi	r22, 0x01	; 1
     f44:	0c c0       	rjmp	.+24     	; 0xf5e <_ZN11Interpreter3_idEv+0x644>
     f46:	6f e8       	ldi	r22, 0x8F	; 143
     f48:	72 e0       	ldi	r23, 0x02	; 2
     f4a:	ce 01       	movw	r24, r28
     f4c:	8e 5b       	subi	r24, 0xBE	; 190
     f4e:	9f 4f       	sbci	r25, 0xFF	; 255
     f50:	aa dc       	rcall	.-1708   	; 0x8a6 <_Z10nocase_cmpPcPKc>
     f52:	89 2b       	or	r24, r25
     f54:	49 f4       	brne	.+18     	; 0xf68 <_ZN11Interpreter3_idEv+0x64e>
     f56:	85 e2       	ldi	r24, 0x25	; 37
     f58:	f8 01       	movw	r30, r16
     f5a:	80 83       	st	Z, r24
     f5c:	60 e0       	ldi	r22, 0x00	; 0
     f5e:	ce 01       	movw	r24, r28
     f60:	01 96       	adiw	r24, 0x01	; 1
     f62:	0e 94 e2 1b 	call	0x37c4	; 0x37c4 <_ZN5ValueC1Eb>
     f66:	14 c1       	rjmp	.+552    	; 0x1190 <_ZN11Interpreter3_idEv+0x876>
     f68:	65 e9       	ldi	r22, 0x95	; 149
     f6a:	72 e0       	ldi	r23, 0x02	; 2
     f6c:	ce 01       	movw	r24, r28
     f6e:	8e 5b       	subi	r24, 0xBE	; 190
     f70:	9f 4f       	sbci	r25, 0xFF	; 255
     f72:	99 dc       	rcall	.-1742   	; 0x8a6 <_Z10nocase_cmpPcPKc>
     f74:	89 2b       	or	r24, r25
     f76:	31 f4       	brne	.+12     	; 0xf84 <_ZN11Interpreter3_idEv+0x66a>
     f78:	89 e2       	ldi	r24, 0x29	; 41
     f7a:	f8 01       	movw	r30, r16
     f7c:	80 83       	st	Z, r24
     f7e:	65 e9       	ldi	r22, 0x95	; 149
     f80:	72 e0       	ldi	r23, 0x02	; 2
     f82:	02 c1       	rjmp	.+516    	; 0x1188 <_ZN11Interpreter3_idEv+0x86e>
     f84:	69 e9       	ldi	r22, 0x99	; 153
     f86:	72 e0       	ldi	r23, 0x02	; 2
     f88:	ce 01       	movw	r24, r28
     f8a:	8e 5b       	subi	r24, 0xBE	; 190
     f8c:	9f 4f       	sbci	r25, 0xFF	; 255
     f8e:	8b dc       	rcall	.-1770   	; 0x8a6 <_Z10nocase_cmpPcPKc>
     f90:	89 2b       	or	r24, r25
     f92:	31 f4       	brne	.+12     	; 0xfa0 <_ZN11Interpreter3_idEv+0x686>
     f94:	8a e2       	ldi	r24, 0x2A	; 42
     f96:	f8 01       	movw	r30, r16
     f98:	80 83       	st	Z, r24
     f9a:	69 e9       	ldi	r22, 0x99	; 153
     f9c:	72 e0       	ldi	r23, 0x02	; 2
     f9e:	f4 c0       	rjmp	.+488    	; 0x1188 <_ZN11Interpreter3_idEv+0x86e>
     fa0:	6d e9       	ldi	r22, 0x9D	; 157
     fa2:	72 e0       	ldi	r23, 0x02	; 2
     fa4:	ce 01       	movw	r24, r28
     fa6:	8e 5b       	subi	r24, 0xBE	; 190
     fa8:	9f 4f       	sbci	r25, 0xFF	; 255
     faa:	7d dc       	rcall	.-1798   	; 0x8a6 <_Z10nocase_cmpPcPKc>
     fac:	89 2b       	or	r24, r25
     fae:	31 f4       	brne	.+12     	; 0xfbc <_ZN11Interpreter3_idEv+0x6a2>
     fb0:	8e e0       	ldi	r24, 0x0E	; 14
     fb2:	f8 01       	movw	r30, r16
     fb4:	80 83       	st	Z, r24
     fb6:	6d e9       	ldi	r22, 0x9D	; 157
     fb8:	72 e0       	ldi	r23, 0x02	; 2
     fba:	e6 c0       	rjmp	.+460    	; 0x1188 <_ZN11Interpreter3_idEv+0x86e>
     fbc:	61 ea       	ldi	r22, 0xA1	; 161
     fbe:	72 e0       	ldi	r23, 0x02	; 2
     fc0:	ce 01       	movw	r24, r28
     fc2:	8e 5b       	subi	r24, 0xBE	; 190
     fc4:	9f 4f       	sbci	r25, 0xFF	; 255
     fc6:	6f dc       	rcall	.-1826   	; 0x8a6 <_Z10nocase_cmpPcPKc>
     fc8:	89 2b       	or	r24, r25
     fca:	31 f4       	brne	.+12     	; 0xfd8 <_ZN11Interpreter3_idEv+0x6be>
     fcc:	87 e0       	ldi	r24, 0x07	; 7
     fce:	f8 01       	movw	r30, r16
     fd0:	80 83       	st	Z, r24
     fd2:	61 ea       	ldi	r22, 0xA1	; 161
     fd4:	72 e0       	ldi	r23, 0x02	; 2
     fd6:	d8 c0       	rjmp	.+432    	; 0x1188 <_ZN11Interpreter3_idEv+0x86e>
     fd8:	6f ec       	ldi	r22, 0xCF	; 207
     fda:	72 e0       	ldi	r23, 0x02	; 2
     fdc:	ce 01       	movw	r24, r28
     fde:	8e 5b       	subi	r24, 0xBE	; 190
     fe0:	9f 4f       	sbci	r25, 0xFF	; 255
     fe2:	61 dc       	rcall	.-1854   	; 0x8a6 <_Z10nocase_cmpPcPKc>
     fe4:	89 2b       	or	r24, r25
     fe6:	31 f4       	brne	.+12     	; 0xff4 <_ZN11Interpreter3_idEv+0x6da>
     fe8:	88 e0       	ldi	r24, 0x08	; 8
     fea:	f8 01       	movw	r30, r16
     fec:	80 83       	st	Z, r24
     fee:	6f ec       	ldi	r22, 0xCF	; 207
     ff0:	72 e0       	ldi	r23, 0x02	; 2
     ff2:	ca c0       	rjmp	.+404    	; 0x1188 <_ZN11Interpreter3_idEv+0x86e>
     ff4:	65 ea       	ldi	r22, 0xA5	; 165
     ff6:	72 e0       	ldi	r23, 0x02	; 2
     ff8:	ce 01       	movw	r24, r28
     ffa:	8e 5b       	subi	r24, 0xBE	; 190
     ffc:	9f 4f       	sbci	r25, 0xFF	; 255
     ffe:	53 dc       	rcall	.-1882   	; 0x8a6 <_Z10nocase_cmpPcPKc>
    1000:	89 2b       	or	r24, r25
    1002:	31 f4       	brne	.+12     	; 0x1010 <_ZN11Interpreter3_idEv+0x6f6>
    1004:	8e e0       	ldi	r24, 0x0E	; 14
    1006:	f8 01       	movw	r30, r16
    1008:	80 83       	st	Z, r24
    100a:	65 ea       	ldi	r22, 0xA5	; 165
    100c:	72 e0       	ldi	r23, 0x02	; 2
    100e:	bc c0       	rjmp	.+376    	; 0x1188 <_ZN11Interpreter3_idEv+0x86e>
    1010:	69 ea       	ldi	r22, 0xA9	; 169
    1012:	72 e0       	ldi	r23, 0x02	; 2
    1014:	ce 01       	movw	r24, r28
    1016:	8e 5b       	subi	r24, 0xBE	; 190
    1018:	9f 4f       	sbci	r25, 0xFF	; 255
    101a:	45 dc       	rcall	.-1910   	; 0x8a6 <_Z10nocase_cmpPcPKc>
    101c:	89 2b       	or	r24, r25
    101e:	31 f4       	brne	.+12     	; 0x102c <_ZN11Interpreter3_idEv+0x712>
    1020:	8a e0       	ldi	r24, 0x0A	; 10
    1022:	f8 01       	movw	r30, r16
    1024:	80 83       	st	Z, r24
    1026:	69 ea       	ldi	r22, 0xA9	; 169
    1028:	72 e0       	ldi	r23, 0x02	; 2
    102a:	ae c0       	rjmp	.+348    	; 0x1188 <_ZN11Interpreter3_idEv+0x86e>
    102c:	6c ea       	ldi	r22, 0xAC	; 172
    102e:	72 e0       	ldi	r23, 0x02	; 2
    1030:	ce 01       	movw	r24, r28
    1032:	8e 5b       	subi	r24, 0xBE	; 190
    1034:	9f 4f       	sbci	r25, 0xFF	; 255
    1036:	37 dc       	rcall	.-1938   	; 0x8a6 <_Z10nocase_cmpPcPKc>
    1038:	89 2b       	or	r24, r25
    103a:	31 f4       	brne	.+12     	; 0x1048 <_ZN11Interpreter3_idEv+0x72e>
    103c:	8c e0       	ldi	r24, 0x0C	; 12
    103e:	f8 01       	movw	r30, r16
    1040:	80 83       	st	Z, r24
    1042:	6c ea       	ldi	r22, 0xAC	; 172
    1044:	72 e0       	ldi	r23, 0x02	; 2
    1046:	a0 c0       	rjmp	.+320    	; 0x1188 <_ZN11Interpreter3_idEv+0x86e>
    1048:	61 eb       	ldi	r22, 0xB1	; 177
    104a:	72 e0       	ldi	r23, 0x02	; 2
    104c:	ce 01       	movw	r24, r28
    104e:	8e 5b       	subi	r24, 0xBE	; 190
    1050:	9f 4f       	sbci	r25, 0xFF	; 255
    1052:	29 dc       	rcall	.-1966   	; 0x8a6 <_Z10nocase_cmpPcPKc>
    1054:	89 2b       	or	r24, r25
    1056:	31 f4       	brne	.+12     	; 0x1064 <_ZN11Interpreter3_idEv+0x74a>
    1058:	87 e2       	ldi	r24, 0x27	; 39
    105a:	f8 01       	movw	r30, r16
    105c:	80 83       	st	Z, r24
    105e:	61 eb       	ldi	r22, 0xB1	; 177
    1060:	72 e0       	ldi	r23, 0x02	; 2
    1062:	92 c0       	rjmp	.+292    	; 0x1188 <_ZN11Interpreter3_idEv+0x86e>
    1064:	67 eb       	ldi	r22, 0xB7	; 183
    1066:	72 e0       	ldi	r23, 0x02	; 2
    1068:	ce 01       	movw	r24, r28
    106a:	8e 5b       	subi	r24, 0xBE	; 190
    106c:	9f 4f       	sbci	r25, 0xFF	; 255
    106e:	1b dc       	rcall	.-1994   	; 0x8a6 <_Z10nocase_cmpPcPKc>
    1070:	89 2b       	or	r24, r25
    1072:	31 f4       	brne	.+12     	; 0x1080 <_ZN11Interpreter3_idEv+0x766>
    1074:	88 e2       	ldi	r24, 0x28	; 40
    1076:	f8 01       	movw	r30, r16
    1078:	80 83       	st	Z, r24
    107a:	67 eb       	ldi	r22, 0xB7	; 183
    107c:	72 e0       	ldi	r23, 0x02	; 2
    107e:	84 c0       	rjmp	.+264    	; 0x1188 <_ZN11Interpreter3_idEv+0x86e>
    1080:	6c eb       	ldi	r22, 0xBC	; 188
    1082:	72 e0       	ldi	r23, 0x02	; 2
    1084:	ce 01       	movw	r24, r28
    1086:	8e 5b       	subi	r24, 0xBE	; 190
    1088:	9f 4f       	sbci	r25, 0xFF	; 255
    108a:	0d dc       	rcall	.-2022   	; 0x8a6 <_Z10nocase_cmpPcPKc>
    108c:	89 2b       	or	r24, r25
    108e:	31 f4       	brne	.+12     	; 0x109c <_ZN11Interpreter3_idEv+0x782>
    1090:	88 e1       	ldi	r24, 0x18	; 24
    1092:	f8 01       	movw	r30, r16
    1094:	80 83       	st	Z, r24
    1096:	6c eb       	ldi	r22, 0xBC	; 188
    1098:	72 e0       	ldi	r23, 0x02	; 2
    109a:	76 c0       	rjmp	.+236    	; 0x1188 <_ZN11Interpreter3_idEv+0x86e>
    109c:	63 ec       	ldi	r22, 0xC3	; 195
    109e:	72 e0       	ldi	r23, 0x02	; 2
    10a0:	ce 01       	movw	r24, r28
    10a2:	8e 5b       	subi	r24, 0xBE	; 190
    10a4:	9f 4f       	sbci	r25, 0xFF	; 255
    10a6:	ff db       	rcall	.-2050   	; 0x8a6 <_Z10nocase_cmpPcPKc>
    10a8:	89 2b       	or	r24, r25
    10aa:	31 f4       	brne	.+12     	; 0x10b8 <_ZN11Interpreter3_idEv+0x79e>
    10ac:	82 e3       	ldi	r24, 0x32	; 50
    10ae:	f8 01       	movw	r30, r16
    10b0:	80 83       	st	Z, r24
    10b2:	63 ec       	ldi	r22, 0xC3	; 195
    10b4:	72 e0       	ldi	r23, 0x02	; 2
    10b6:	68 c0       	rjmp	.+208    	; 0x1188 <_ZN11Interpreter3_idEv+0x86e>
    10b8:	69 ec       	ldi	r22, 0xC9	; 201
    10ba:	72 e0       	ldi	r23, 0x02	; 2
    10bc:	ce 01       	movw	r24, r28
    10be:	8e 5b       	subi	r24, 0xBE	; 190
    10c0:	9f 4f       	sbci	r25, 0xFF	; 255
    10c2:	f1 db       	rcall	.-2078   	; 0x8a6 <_Z10nocase_cmpPcPKc>
    10c4:	89 2b       	or	r24, r25
    10c6:	31 f4       	brne	.+12     	; 0x10d4 <_ZN11Interpreter3_idEv+0x7ba>
    10c8:	8b e0       	ldi	r24, 0x0B	; 11
    10ca:	f8 01       	movw	r30, r16
    10cc:	80 83       	st	Z, r24
    10ce:	69 ec       	ldi	r22, 0xC9	; 201
    10d0:	72 e0       	ldi	r23, 0x02	; 2
    10d2:	5a c0       	rjmp	.+180    	; 0x1188 <_ZN11Interpreter3_idEv+0x86e>
    10d4:	6e ec       	ldi	r22, 0xCE	; 206
    10d6:	72 e0       	ldi	r23, 0x02	; 2
    10d8:	ce 01       	movw	r24, r28
    10da:	8e 5b       	subi	r24, 0xBE	; 190
    10dc:	9f 4f       	sbci	r25, 0xFF	; 255
    10de:	e3 db       	rcall	.-2106   	; 0x8a6 <_Z10nocase_cmpPcPKc>
    10e0:	89 2b       	or	r24, r25
    10e2:	31 f4       	brne	.+12     	; 0x10f0 <_ZN11Interpreter3_idEv+0x7d6>
    10e4:	8e e2       	ldi	r24, 0x2E	; 46
    10e6:	f8 01       	movw	r30, r16
    10e8:	80 83       	st	Z, r24
    10ea:	6e ec       	ldi	r22, 0xCE	; 206
    10ec:	72 e0       	ldi	r23, 0x02	; 2
    10ee:	4c c0       	rjmp	.+152    	; 0x1188 <_ZN11Interpreter3_idEv+0x86e>
    10f0:	62 ed       	ldi	r22, 0xD2	; 210
    10f2:	72 e0       	ldi	r23, 0x02	; 2
    10f4:	ce 01       	movw	r24, r28
    10f6:	8e 5b       	subi	r24, 0xBE	; 190
    10f8:	9f 4f       	sbci	r25, 0xFF	; 255
    10fa:	d5 db       	rcall	.-2134   	; 0x8a6 <_Z10nocase_cmpPcPKc>
    10fc:	89 2b       	or	r24, r25
    10fe:	31 f4       	brne	.+12     	; 0x110c <_ZN11Interpreter3_idEv+0x7f2>
    1100:	8f e2       	ldi	r24, 0x2F	; 47
    1102:	f8 01       	movw	r30, r16
    1104:	80 83       	st	Z, r24
    1106:	62 ed       	ldi	r22, 0xD2	; 210
    1108:	72 e0       	ldi	r23, 0x02	; 2
    110a:	3e c0       	rjmp	.+124    	; 0x1188 <_ZN11Interpreter3_idEv+0x86e>
    110c:	65 ed       	ldi	r22, 0xD5	; 213
    110e:	72 e0       	ldi	r23, 0x02	; 2
    1110:	ce 01       	movw	r24, r28
    1112:	8e 5b       	subi	r24, 0xBE	; 190
    1114:	9f 4f       	sbci	r25, 0xFF	; 255
    1116:	c7 db       	rcall	.-2162   	; 0x8a6 <_Z10nocase_cmpPcPKc>
    1118:	89 2b       	or	r24, r25
    111a:	31 f4       	brne	.+12     	; 0x1128 <_ZN11Interpreter3_idEv+0x80e>
    111c:	8c e2       	ldi	r24, 0x2C	; 44
    111e:	f8 01       	movw	r30, r16
    1120:	80 83       	st	Z, r24
    1122:	65 ed       	ldi	r22, 0xD5	; 213
    1124:	72 e0       	ldi	r23, 0x02	; 2
    1126:	30 c0       	rjmp	.+96     	; 0x1188 <_ZN11Interpreter3_idEv+0x86e>
    1128:	68 ed       	ldi	r22, 0xD8	; 216
    112a:	72 e0       	ldi	r23, 0x02	; 2
    112c:	ce 01       	movw	r24, r28
    112e:	8e 5b       	subi	r24, 0xBE	; 190
    1130:	9f 4f       	sbci	r25, 0xFF	; 255
    1132:	b9 db       	rcall	.-2190   	; 0x8a6 <_Z10nocase_cmpPcPKc>
    1134:	89 2b       	or	r24, r25
    1136:	31 f4       	brne	.+12     	; 0x1144 <_ZN11Interpreter3_idEv+0x82a>
    1138:	80 e3       	ldi	r24, 0x30	; 48
    113a:	f8 01       	movw	r30, r16
    113c:	80 83       	st	Z, r24
    113e:	68 ed       	ldi	r22, 0xD8	; 216
    1140:	72 e0       	ldi	r23, 0x02	; 2
    1142:	22 c0       	rjmp	.+68     	; 0x1188 <_ZN11Interpreter3_idEv+0x86e>
    1144:	6d ed       	ldi	r22, 0xDD	; 221
    1146:	72 e0       	ldi	r23, 0x02	; 2
    1148:	ce 01       	movw	r24, r28
    114a:	8e 5b       	subi	r24, 0xBE	; 190
    114c:	9f 4f       	sbci	r25, 0xFF	; 255
    114e:	ab db       	rcall	.-2218   	; 0x8a6 <_Z10nocase_cmpPcPKc>
    1150:	89 2b       	or	r24, r25
    1152:	31 f4       	brne	.+12     	; 0x1160 <_ZN11Interpreter3_idEv+0x846>
    1154:	81 e3       	ldi	r24, 0x31	; 49
    1156:	f8 01       	movw	r30, r16
    1158:	80 83       	st	Z, r24
    115a:	6d ed       	ldi	r22, 0xDD	; 221
    115c:	72 e0       	ldi	r23, 0x02	; 2
    115e:	14 c0       	rjmp	.+40     	; 0x1188 <_ZN11Interpreter3_idEv+0x86e>
    1160:	68 eb       	ldi	r22, 0xB8	; 184
    1162:	72 e0       	ldi	r23, 0x02	; 2
    1164:	ce 01       	movw	r24, r28
    1166:	8e 5b       	subi	r24, 0xBE	; 190
    1168:	9f 4f       	sbci	r25, 0xFF	; 255
    116a:	9d db       	rcall	.-2246   	; 0x8a6 <_Z10nocase_cmpPcPKc>
    116c:	89 2b       	or	r24, r25
    116e:	31 f4       	brne	.+12     	; 0x117c <_ZN11Interpreter3_idEv+0x862>
    1170:	82 e2       	ldi	r24, 0x22	; 34
    1172:	f8 01       	movw	r30, r16
    1174:	80 83       	st	Z, r24
    1176:	68 eb       	ldi	r22, 0xB8	; 184
    1178:	72 e0       	ldi	r23, 0x02	; 2
    117a:	06 c0       	rjmp	.+12     	; 0x1188 <_ZN11Interpreter3_idEv+0x86e>
    117c:	8d e0       	ldi	r24, 0x0D	; 13
    117e:	f8 01       	movw	r30, r16
    1180:	80 83       	st	Z, r24
    1182:	be 01       	movw	r22, r28
    1184:	6e 5b       	subi	r22, 0xBE	; 190
    1186:	7f 4f       	sbci	r23, 0xFF	; 255
    1188:	ce 01       	movw	r24, r28
    118a:	01 96       	adiw	r24, 0x01	; 1
    118c:	0e 94 d7 1b 	call	0x37ae	; 0x37ae <_ZN5ValueC1EPKc>
    1190:	81 e4       	ldi	r24, 0x41	; 65
    1192:	fe 01       	movw	r30, r28
    1194:	31 96       	adiw	r30, 0x01	; 1
    1196:	d8 01       	movw	r26, r16
    1198:	11 96       	adiw	r26, 0x01	; 1
    119a:	01 90       	ld	r0, Z+
    119c:	0d 92       	st	X+, r0
    119e:	8a 95       	dec	r24
    11a0:	e1 f7       	brne	.-8      	; 0x119a <_ZN11Interpreter3_idEv+0x880>
    11a2:	c8 01       	movw	r24, r16
    11a4:	cd 58       	subi	r28, 0x8D	; 141
    11a6:	df 4f       	sbci	r29, 0xFF	; 255
    11a8:	0f b6       	in	r0, 0x3f	; 63
    11aa:	f8 94       	cli
    11ac:	de bf       	out	0x3e, r29	; 62
    11ae:	0f be       	out	0x3f, r0	; 63
    11b0:	cd bf       	out	0x3d, r28	; 61
    11b2:	df 91       	pop	r29
    11b4:	cf 91       	pop	r28
    11b6:	1f 91       	pop	r17
    11b8:	0f 91       	pop	r16
    11ba:	ff 90       	pop	r15
    11bc:	ef 90       	pop	r14
    11be:	df 90       	pop	r13
    11c0:	cf 90       	pop	r12
    11c2:	bf 90       	pop	r11
    11c4:	af 90       	pop	r10
    11c6:	9f 90       	pop	r9
    11c8:	8f 90       	pop	r8
    11ca:	7f 90       	pop	r7
    11cc:	6f 90       	pop	r6
    11ce:	5f 90       	pop	r5
    11d0:	4f 90       	pop	r4
    11d2:	3f 90       	pop	r3
    11d4:	08 95       	ret

000011d6 <_ZN11Interpreter14get_next_tokenEv>:
    11d6:	8f 92       	push	r8
    11d8:	9f 92       	push	r9
    11da:	af 92       	push	r10
    11dc:	bf 92       	push	r11
    11de:	df 92       	push	r13
    11e0:	ef 92       	push	r14
    11e2:	ff 92       	push	r15
    11e4:	0f 93       	push	r16
    11e6:	1f 93       	push	r17
    11e8:	cf 93       	push	r28
    11ea:	df 93       	push	r29
    11ec:	cd b7       	in	r28, 0x3d	; 61
    11ee:	de b7       	in	r29, 0x3e	; 62
    11f0:	c3 58       	subi	r28, 0x83	; 131
    11f2:	d1 09       	sbc	r29, r1
    11f4:	0f b6       	in	r0, 0x3f	; 63
    11f6:	f8 94       	cli
    11f8:	de bf       	out	0x3e, r29	; 62
    11fa:	0f be       	out	0x3f, r0	; 63
    11fc:	cd bf       	out	0x3d, r28	; 61
    11fe:	7c 01       	movw	r14, r24
    1200:	8b 01       	movw	r16, r22
    1202:	ce 01       	movw	r24, r28
    1204:	02 96       	adiw	r24, 0x02	; 2
    1206:	0e 94 9e 1b 	call	0x373c	; 0x373c <_ZN5ValueC1Ev>
    120a:	58 01       	movw	r10, r16
    120c:	82 e7       	ldi	r24, 0x72	; 114
    120e:	a8 1a       	sub	r10, r24
    1210:	88 ef       	ldi	r24, 0xF8	; 248
    1212:	b8 0a       	sbc	r11, r24
    1214:	f5 01       	movw	r30, r10
    1216:	d0 80       	ld	r13, Z
    1218:	dd 20       	and	r13, r13
    121a:	09 f4       	brne	.+2      	; 0x121e <_ZN11Interpreter14get_next_tokenEv+0x48>
    121c:	1d c1       	rjmp	.+570    	; 0x1458 <_ZN11Interpreter14get_next_tokenEv+0x282>
    121e:	8d 2c       	mov	r8, r13
    1220:	91 2c       	mov	r9, r1
    1222:	c4 01       	movw	r24, r8
    1224:	0e 94 b8 31 	call	0x6370	; 0x6370 <isspace>
    1228:	89 2b       	or	r24, r25
    122a:	b1 f0       	breq	.+44     	; 0x1258 <_ZN11Interpreter14get_next_tokenEv+0x82>
    122c:	fd e0       	ldi	r31, 0x0D	; 13
    122e:	df 16       	cp	r13, r31
    1230:	21 f0       	breq	.+8      	; 0x123a <_ZN11Interpreter14get_next_tokenEv+0x64>
    1232:	8a e0       	ldi	r24, 0x0A	; 10
    1234:	d8 12       	cpse	r13, r24
    1236:	0d c0       	rjmp	.+26     	; 0x1252 <_ZN11Interpreter14get_next_tokenEv+0x7c>
    1238:	06 c0       	rjmp	.+12     	; 0x1246 <_ZN11Interpreter14get_next_tokenEv+0x70>
    123a:	c8 01       	movw	r24, r16
    123c:	72 d9       	rcall	.-3356   	; 0x522 <_ZN11Interpreter4peekEv>
    123e:	8a 30       	cpi	r24, 0x0A	; 10
    1240:	11 f4       	brne	.+4      	; 0x1246 <_ZN11Interpreter14get_next_tokenEv+0x70>
    1242:	c8 01       	movw	r24, r16
    1244:	53 d9       	rcall	.-3418   	; 0x4ec <_ZN11Interpreter7advanceEv>
    1246:	c8 01       	movw	r24, r16
    1248:	51 d9       	rcall	.-3422   	; 0x4ec <_ZN11Interpreter7advanceEv>
    124a:	87 e1       	ldi	r24, 0x17	; 23
    124c:	89 83       	std	Y+1, r24	; 0x01
    124e:	6a e0       	ldi	r22, 0x0A	; 10
    1250:	06 c1       	rjmp	.+524    	; 0x145e <_ZN11Interpreter14get_next_tokenEv+0x288>
    1252:	c8 01       	movw	r24, r16
    1254:	76 d9       	rcall	.-3348   	; 0x542 <_ZN11Interpreter15skip_whitespaceEv>
    1256:	de cf       	rjmp	.-68     	; 0x1214 <_ZN11Interpreter14get_next_tokenEv+0x3e>
    1258:	c4 01       	movw	r24, r8
    125a:	c0 97       	sbiw	r24, 0x30	; 48
    125c:	0a 97       	sbiw	r24, 0x0a	; 10
    125e:	20 f4       	brcc	.+8      	; 0x1268 <_ZN11Interpreter14get_next_tokenEv+0x92>
    1260:	b8 01       	movw	r22, r16
    1262:	c7 01       	movw	r24, r14
    1264:	87 d9       	rcall	.-3314   	; 0x574 <_ZN11Interpreter12parse_numberEv>
    1266:	1a c1       	rjmp	.+564    	; 0x149c <_ZN11Interpreter14get_next_tokenEv+0x2c6>
    1268:	e2 e2       	ldi	r30, 0x22	; 34
    126a:	de 12       	cpse	r13, r30
    126c:	06 c0       	rjmp	.+12     	; 0x127a <_ZN11Interpreter14get_next_tokenEv+0xa4>
    126e:	c8 01       	movw	r24, r16
    1270:	3d d9       	rcall	.-3462   	; 0x4ec <_ZN11Interpreter7advanceEv>
    1272:	b8 01       	movw	r22, r16
    1274:	c7 01       	movw	r24, r14
    1276:	85 da       	rcall	.-2806   	; 0x782 <_ZN11Interpreter12parse_stringEv>
    1278:	11 c1       	rjmp	.+546    	; 0x149c <_ZN11Interpreter14get_next_tokenEv+0x2c6>
    127a:	c4 01       	movw	r24, r8
    127c:	0e 94 a4 31 	call	0x6348	; 0x6348 <isalnum>
    1280:	89 2b       	or	r24, r25
    1282:	21 f0       	breq	.+8      	; 0x128c <_ZN11Interpreter14get_next_tokenEv+0xb6>
    1284:	b8 01       	movw	r22, r16
    1286:	c7 01       	movw	r24, r14
    1288:	48 db       	rcall	.-2416   	; 0x91a <_ZN11Interpreter3_idEv>
    128a:	08 c1       	rjmp	.+528    	; 0x149c <_ZN11Interpreter14get_next_tokenEv+0x2c6>
    128c:	f6 e2       	ldi	r31, 0x26	; 38
    128e:	df 12       	cpse	r13, r31
    1290:	0b c0       	rjmp	.+22     	; 0x12a8 <_ZN11Interpreter14get_next_tokenEv+0xd2>
    1292:	c8 01       	movw	r24, r16
    1294:	46 d9       	rcall	.-3444   	; 0x522 <_ZN11Interpreter4peekEv>
    1296:	88 34       	cpi	r24, 0x48	; 72
    1298:	09 f4       	brne	.+2      	; 0x129c <_ZN11Interpreter14get_next_tokenEv+0xc6>
    129a:	f9 c0       	rjmp	.+498    	; 0x148e <_ZN11Interpreter14get_next_tokenEv+0x2b8>
    129c:	c8 01       	movw	r24, r16
    129e:	26 d9       	rcall	.-3508   	; 0x4ec <_ZN11Interpreter7advanceEv>
    12a0:	89 e1       	ldi	r24, 0x19	; 25
    12a2:	89 83       	std	Y+1, r24	; 0x01
    12a4:	66 e2       	ldi	r22, 0x26	; 38
    12a6:	db c0       	rjmp	.+438    	; 0x145e <_ZN11Interpreter14get_next_tokenEv+0x288>
    12a8:	8d e3       	ldi	r24, 0x3D	; 61
    12aa:	d8 12       	cpse	r13, r24
    12ac:	06 c0       	rjmp	.+12     	; 0x12ba <_ZN11Interpreter14get_next_tokenEv+0xe4>
    12ae:	c8 01       	movw	r24, r16
    12b0:	1d d9       	rcall	.-3526   	; 0x4ec <_ZN11Interpreter7advanceEv>
    12b2:	83 e1       	ldi	r24, 0x13	; 19
    12b4:	89 83       	std	Y+1, r24	; 0x01
    12b6:	6d e3       	ldi	r22, 0x3D	; 61
    12b8:	d2 c0       	rjmp	.+420    	; 0x145e <_ZN11Interpreter14get_next_tokenEv+0x288>
    12ba:	ec e2       	ldi	r30, 0x2C	; 44
    12bc:	de 12       	cpse	r13, r30
    12be:	06 c0       	rjmp	.+12     	; 0x12cc <_ZN11Interpreter14get_next_tokenEv+0xf6>
    12c0:	c8 01       	movw	r24, r16
    12c2:	14 d9       	rcall	.-3544   	; 0x4ec <_ZN11Interpreter7advanceEv>
    12c4:	8a e1       	ldi	r24, 0x1A	; 26
    12c6:	89 83       	std	Y+1, r24	; 0x01
    12c8:	6c e2       	ldi	r22, 0x2C	; 44
    12ca:	c9 c0       	rjmp	.+402    	; 0x145e <_ZN11Interpreter14get_next_tokenEv+0x288>
    12cc:	f5 e2       	ldi	r31, 0x25	; 37
    12ce:	df 12       	cpse	r13, r31
    12d0:	06 c0       	rjmp	.+12     	; 0x12de <_ZN11Interpreter14get_next_tokenEv+0x108>
    12d2:	c8 01       	movw	r24, r16
    12d4:	0b d9       	rcall	.-3562   	; 0x4ec <_ZN11Interpreter7advanceEv>
    12d6:	82 e0       	ldi	r24, 0x02	; 2
    12d8:	89 83       	std	Y+1, r24	; 0x01
    12da:	65 e2       	ldi	r22, 0x25	; 37
    12dc:	c0 c0       	rjmp	.+384    	; 0x145e <_ZN11Interpreter14get_next_tokenEv+0x288>
    12de:	8a e3       	ldi	r24, 0x3A	; 58
    12e0:	d8 12       	cpse	r13, r24
    12e2:	06 c0       	rjmp	.+12     	; 0x12f0 <_ZN11Interpreter14get_next_tokenEv+0x11a>
    12e4:	c8 01       	movw	r24, r16
    12e6:	02 d9       	rcall	.-3580   	; 0x4ec <_ZN11Interpreter7advanceEv>
    12e8:	8b e1       	ldi	r24, 0x1B	; 27
    12ea:	89 83       	std	Y+1, r24	; 0x01
    12ec:	6a e3       	ldi	r22, 0x3A	; 58
    12ee:	b7 c0       	rjmp	.+366    	; 0x145e <_ZN11Interpreter14get_next_tokenEv+0x288>
    12f0:	ec e3       	ldi	r30, 0x3C	; 60
    12f2:	de 12       	cpse	r13, r30
    12f4:	27 c0       	rjmp	.+78     	; 0x1344 <_ZN11Interpreter14get_next_tokenEv+0x16e>
    12f6:	c8 01       	movw	r24, r16
    12f8:	14 d9       	rcall	.-3544   	; 0x522 <_ZN11Interpreter4peekEv>
    12fa:	8e 33       	cpi	r24, 0x3E	; 62
    12fc:	49 f4       	brne	.+18     	; 0x1310 <_ZN11Interpreter14get_next_tokenEv+0x13a>
    12fe:	c8 01       	movw	r24, r16
    1300:	f5 d8       	rcall	.-3606   	; 0x4ec <_ZN11Interpreter7advanceEv>
    1302:	c8 01       	movw	r24, r16
    1304:	f3 d8       	rcall	.-3610   	; 0x4ec <_ZN11Interpreter7advanceEv>
    1306:	84 e1       	ldi	r24, 0x14	; 20
    1308:	89 83       	std	Y+1, r24	; 0x01
    130a:	62 ee       	ldi	r22, 0xE2	; 226
    130c:	72 e0       	ldi	r23, 0x02	; 2
    130e:	75 c0       	rjmp	.+234    	; 0x13fa <_ZN11Interpreter14get_next_tokenEv+0x224>
    1310:	8d 33       	cpi	r24, 0x3D	; 61
    1312:	49 f4       	brne	.+18     	; 0x1326 <_ZN11Interpreter14get_next_tokenEv+0x150>
    1314:	c8 01       	movw	r24, r16
    1316:	ea d8       	rcall	.-3628   	; 0x4ec <_ZN11Interpreter7advanceEv>
    1318:	c8 01       	movw	r24, r16
    131a:	e8 d8       	rcall	.-3632   	; 0x4ec <_ZN11Interpreter7advanceEv>
    131c:	81 e1       	ldi	r24, 0x11	; 17
    131e:	89 83       	std	Y+1, r24	; 0x01
    1320:	65 ee       	ldi	r22, 0xE5	; 229
    1322:	72 e0       	ldi	r23, 0x02	; 2
    1324:	6a c0       	rjmp	.+212    	; 0x13fa <_ZN11Interpreter14get_next_tokenEv+0x224>
    1326:	8c 33       	cpi	r24, 0x3C	; 60
    1328:	49 f4       	brne	.+18     	; 0x133c <_ZN11Interpreter14get_next_tokenEv+0x166>
    132a:	c8 01       	movw	r24, r16
    132c:	df d8       	rcall	.-3650   	; 0x4ec <_ZN11Interpreter7advanceEv>
    132e:	c8 01       	movw	r24, r16
    1330:	dd d8       	rcall	.-3654   	; 0x4ec <_ZN11Interpreter7advanceEv>
    1332:	85 e0       	ldi	r24, 0x05	; 5
    1334:	89 83       	std	Y+1, r24	; 0x01
    1336:	68 ee       	ldi	r22, 0xE8	; 232
    1338:	72 e0       	ldi	r23, 0x02	; 2
    133a:	5f c0       	rjmp	.+190    	; 0x13fa <_ZN11Interpreter14get_next_tokenEv+0x224>
    133c:	c8 01       	movw	r24, r16
    133e:	d6 d8       	rcall	.-3668   	; 0x4ec <_ZN11Interpreter7advanceEv>
    1340:	80 e1       	ldi	r24, 0x10	; 16
    1342:	1e c0       	rjmp	.+60     	; 0x1380 <_ZN11Interpreter14get_next_tokenEv+0x1aa>
    1344:	fe e3       	ldi	r31, 0x3E	; 62
    1346:	df 12       	cpse	r13, r31
    1348:	1e c0       	rjmp	.+60     	; 0x1386 <_ZN11Interpreter14get_next_tokenEv+0x1b0>
    134a:	c8 01       	movw	r24, r16
    134c:	ea d8       	rcall	.-3628   	; 0x522 <_ZN11Interpreter4peekEv>
    134e:	8d 33       	cpi	r24, 0x3D	; 61
    1350:	49 f4       	brne	.+18     	; 0x1364 <_ZN11Interpreter14get_next_tokenEv+0x18e>
    1352:	c8 01       	movw	r24, r16
    1354:	cb d8       	rcall	.-3690   	; 0x4ec <_ZN11Interpreter7advanceEv>
    1356:	c8 01       	movw	r24, r16
    1358:	c9 d8       	rcall	.-3694   	; 0x4ec <_ZN11Interpreter7advanceEv>
    135a:	82 e1       	ldi	r24, 0x12	; 18
    135c:	89 83       	std	Y+1, r24	; 0x01
    135e:	6b ee       	ldi	r22, 0xEB	; 235
    1360:	72 e0       	ldi	r23, 0x02	; 2
    1362:	4b c0       	rjmp	.+150    	; 0x13fa <_ZN11Interpreter14get_next_tokenEv+0x224>
    1364:	8e 33       	cpi	r24, 0x3E	; 62
    1366:	49 f4       	brne	.+18     	; 0x137a <_ZN11Interpreter14get_next_tokenEv+0x1a4>
    1368:	c8 01       	movw	r24, r16
    136a:	c0 d8       	rcall	.-3712   	; 0x4ec <_ZN11Interpreter7advanceEv>
    136c:	c8 01       	movw	r24, r16
    136e:	be d8       	rcall	.-3716   	; 0x4ec <_ZN11Interpreter7advanceEv>
    1370:	86 e0       	ldi	r24, 0x06	; 6
    1372:	89 83       	std	Y+1, r24	; 0x01
    1374:	6e ee       	ldi	r22, 0xEE	; 238
    1376:	72 e0       	ldi	r23, 0x02	; 2
    1378:	40 c0       	rjmp	.+128    	; 0x13fa <_ZN11Interpreter14get_next_tokenEv+0x224>
    137a:	c8 01       	movw	r24, r16
    137c:	b7 d8       	rcall	.-3730   	; 0x4ec <_ZN11Interpreter7advanceEv>
    137e:	8f e0       	ldi	r24, 0x0F	; 15
    1380:	89 83       	std	Y+1, r24	; 0x01
    1382:	6c e3       	ldi	r22, 0x3C	; 60
    1384:	6c c0       	rjmp	.+216    	; 0x145e <_ZN11Interpreter14get_next_tokenEv+0x288>
    1386:	8b e2       	ldi	r24, 0x2B	; 43
    1388:	d8 12       	cpse	r13, r24
    138a:	12 c0       	rjmp	.+36     	; 0x13b0 <_ZN11Interpreter14get_next_tokenEv+0x1da>
    138c:	c8 01       	movw	r24, r16
    138e:	ae d8       	rcall	.-3748   	; 0x4ec <_ZN11Interpreter7advanceEv>
    1390:	f5 01       	movw	r30, r10
    1392:	80 81       	ld	r24, Z
    1394:	8d 33       	cpi	r24, 0x3D	; 61
    1396:	39 f4       	brne	.+14     	; 0x13a6 <_ZN11Interpreter14get_next_tokenEv+0x1d0>
    1398:	c8 01       	movw	r24, r16
    139a:	a8 d8       	rcall	.-3760   	; 0x4ec <_ZN11Interpreter7advanceEv>
    139c:	8c e1       	ldi	r24, 0x1C	; 28
    139e:	89 83       	std	Y+1, r24	; 0x01
    13a0:	61 ef       	ldi	r22, 0xF1	; 241
    13a2:	72 e0       	ldi	r23, 0x02	; 2
    13a4:	2a c0       	rjmp	.+84     	; 0x13fa <_ZN11Interpreter14get_next_tokenEv+0x224>
    13a6:	83 e0       	ldi	r24, 0x03	; 3
    13a8:	89 83       	std	Y+1, r24	; 0x01
    13aa:	64 ef       	ldi	r22, 0xF4	; 244
    13ac:	72 e0       	ldi	r23, 0x02	; 2
    13ae:	25 c0       	rjmp	.+74     	; 0x13fa <_ZN11Interpreter14get_next_tokenEv+0x224>
    13b0:	fd e2       	ldi	r31, 0x2D	; 45
    13b2:	df 12       	cpse	r13, r31
    13b4:	11 c0       	rjmp	.+34     	; 0x13d8 <_ZN11Interpreter14get_next_tokenEv+0x202>
    13b6:	c8 01       	movw	r24, r16
    13b8:	99 d8       	rcall	.-3790   	; 0x4ec <_ZN11Interpreter7advanceEv>
    13ba:	f5 01       	movw	r30, r10
    13bc:	80 81       	ld	r24, Z
    13be:	8d 33       	cpi	r24, 0x3D	; 61
    13c0:	39 f4       	brne	.+14     	; 0x13d0 <_ZN11Interpreter14get_next_tokenEv+0x1fa>
    13c2:	c8 01       	movw	r24, r16
    13c4:	93 d8       	rcall	.-3802   	; 0x4ec <_ZN11Interpreter7advanceEv>
    13c6:	8d e1       	ldi	r24, 0x1D	; 29
    13c8:	89 83       	std	Y+1, r24	; 0x01
    13ca:	66 ef       	ldi	r22, 0xF6	; 246
    13cc:	72 e0       	ldi	r23, 0x02	; 2
    13ce:	15 c0       	rjmp	.+42     	; 0x13fa <_ZN11Interpreter14get_next_tokenEv+0x224>
    13d0:	81 e0       	ldi	r24, 0x01	; 1
    13d2:	89 83       	std	Y+1, r24	; 0x01
    13d4:	6d e2       	ldi	r22, 0x2D	; 45
    13d6:	43 c0       	rjmp	.+134    	; 0x145e <_ZN11Interpreter14get_next_tokenEv+0x288>
    13d8:	fe e5       	ldi	r31, 0x5E	; 94
    13da:	df 12       	cpse	r13, r31
    13dc:	06 c0       	rjmp	.+12     	; 0x13ea <_ZN11Interpreter14get_next_tokenEv+0x214>
    13de:	c8 01       	movw	r24, r16
    13e0:	85 d8       	rcall	.-3830   	; 0x4ec <_ZN11Interpreter7advanceEv>
    13e2:	8e e1       	ldi	r24, 0x1E	; 30
    13e4:	89 83       	std	Y+1, r24	; 0x01
    13e6:	6e e5       	ldi	r22, 0x5E	; 94
    13e8:	3a c0       	rjmp	.+116    	; 0x145e <_ZN11Interpreter14get_next_tokenEv+0x288>
    13ea:	8a e2       	ldi	r24, 0x2A	; 42
    13ec:	d8 12       	cpse	r13, r24
    13ee:	0b c0       	rjmp	.+22     	; 0x1406 <_ZN11Interpreter14get_next_tokenEv+0x230>
    13f0:	c8 01       	movw	r24, r16
    13f2:	7c d8       	rcall	.-3848   	; 0x4ec <_ZN11Interpreter7advanceEv>
    13f4:	19 82       	std	Y+1, r1	; 0x01
    13f6:	69 ef       	ldi	r22, 0xF9	; 249
    13f8:	72 e0       	ldi	r23, 0x02	; 2
    13fa:	ce 01       	movw	r24, r28
    13fc:	8d 5b       	subi	r24, 0xBD	; 189
    13fe:	9f 4f       	sbci	r25, 0xFF	; 255
    1400:	0e 94 d7 1b 	call	0x37ae	; 0x37ae <_ZN5ValueC1EPKc>
    1404:	31 c0       	rjmp	.+98     	; 0x1468 <_ZN11Interpreter14get_next_tokenEv+0x292>
    1406:	ef e2       	ldi	r30, 0x2F	; 47
    1408:	de 12       	cpse	r13, r30
    140a:	06 c0       	rjmp	.+12     	; 0x1418 <_ZN11Interpreter14get_next_tokenEv+0x242>
    140c:	c8 01       	movw	r24, r16
    140e:	6e d8       	rcall	.-3876   	; 0x4ec <_ZN11Interpreter7advanceEv>
    1410:	84 e0       	ldi	r24, 0x04	; 4
    1412:	89 83       	std	Y+1, r24	; 0x01
    1414:	6f e2       	ldi	r22, 0x2F	; 47
    1416:	23 c0       	rjmp	.+70     	; 0x145e <_ZN11Interpreter14get_next_tokenEv+0x288>
    1418:	fc e5       	ldi	r31, 0x5C	; 92
    141a:	df 12       	cpse	r13, r31
    141c:	06 c0       	rjmp	.+12     	; 0x142a <_ZN11Interpreter14get_next_tokenEv+0x254>
    141e:	c8 01       	movw	r24, r16
    1420:	65 d8       	rcall	.-3894   	; 0x4ec <_ZN11Interpreter7advanceEv>
    1422:	8f e1       	ldi	r24, 0x1F	; 31
    1424:	89 83       	std	Y+1, r24	; 0x01
    1426:	6c e5       	ldi	r22, 0x5C	; 92
    1428:	1a c0       	rjmp	.+52     	; 0x145e <_ZN11Interpreter14get_next_tokenEv+0x288>
    142a:	88 e2       	ldi	r24, 0x28	; 40
    142c:	d8 12       	cpse	r13, r24
    142e:	06 c0       	rjmp	.+12     	; 0x143c <_ZN11Interpreter14get_next_tokenEv+0x266>
    1430:	c8 01       	movw	r24, r16
    1432:	5c d8       	rcall	.-3912   	; 0x4ec <_ZN11Interpreter7advanceEv>
    1434:	80 e2       	ldi	r24, 0x20	; 32
    1436:	89 83       	std	Y+1, r24	; 0x01
    1438:	68 e2       	ldi	r22, 0x28	; 40
    143a:	11 c0       	rjmp	.+34     	; 0x145e <_ZN11Interpreter14get_next_tokenEv+0x288>
    143c:	e9 e2       	ldi	r30, 0x29	; 41
    143e:	de 12       	cpse	r13, r30
    1440:	06 c0       	rjmp	.+12     	; 0x144e <_ZN11Interpreter14get_next_tokenEv+0x278>
    1442:	c8 01       	movw	r24, r16
    1444:	53 d8       	rcall	.-3930   	; 0x4ec <_ZN11Interpreter7advanceEv>
    1446:	81 e2       	ldi	r24, 0x21	; 33
    1448:	89 83       	std	Y+1, r24	; 0x01
    144a:	69 e2       	ldi	r22, 0x29	; 41
    144c:	08 c0       	rjmp	.+16     	; 0x145e <_ZN11Interpreter14get_next_tokenEv+0x288>
    144e:	6b ef       	ldi	r22, 0xFB	; 251
    1450:	72 e0       	ldi	r23, 0x02	; 2
    1452:	c8 01       	movw	r24, r16
    1454:	04 d8       	rcall	.-4088   	; 0x45e <_ZN11Interpreter5errorEPc>
    1456:	de ce       	rjmp	.-580    	; 0x1214 <_ZN11Interpreter14get_next_tokenEv+0x3e>
    1458:	82 e2       	ldi	r24, 0x22	; 34
    145a:	89 83       	std	Y+1, r24	; 0x01
    145c:	60 e0       	ldi	r22, 0x00	; 0
    145e:	ce 01       	movw	r24, r28
    1460:	8d 5b       	subi	r24, 0xBD	; 189
    1462:	9f 4f       	sbci	r25, 0xFF	; 255
    1464:	0e 94 ba 1b 	call	0x3774	; 0x3774 <_ZN5ValueC1Ec>
    1468:	81 e4       	ldi	r24, 0x41	; 65
    146a:	fe 01       	movw	r30, r28
    146c:	ed 5b       	subi	r30, 0xBD	; 189
    146e:	ff 4f       	sbci	r31, 0xFF	; 255
    1470:	de 01       	movw	r26, r28
    1472:	12 96       	adiw	r26, 0x02	; 2
    1474:	01 90       	ld	r0, Z+
    1476:	0d 92       	st	X+, r0
    1478:	8a 95       	dec	r24
    147a:	e1 f7       	brne	.-8      	; 0x1474 <_ZN11Interpreter14get_next_tokenEv+0x29e>
    147c:	82 e4       	ldi	r24, 0x42	; 66
    147e:	fe 01       	movw	r30, r28
    1480:	31 96       	adiw	r30, 0x01	; 1
    1482:	d7 01       	movw	r26, r14
    1484:	01 90       	ld	r0, Z+
    1486:	0d 92       	st	X+, r0
    1488:	8a 95       	dec	r24
    148a:	e1 f7       	brne	.-8      	; 0x1484 <_ZN11Interpreter14get_next_tokenEv+0x2ae>
    148c:	07 c0       	rjmp	.+14     	; 0x149c <_ZN11Interpreter14get_next_tokenEv+0x2c6>
    148e:	c8 01       	movw	r24, r16
    1490:	2d d8       	rcall	.-4006   	; 0x4ec <_ZN11Interpreter7advanceEv>
    1492:	c8 01       	movw	r24, r16
    1494:	2b d8       	rcall	.-4010   	; 0x4ec <_ZN11Interpreter7advanceEv>
    1496:	b8 01       	movw	r22, r16
    1498:	c7 01       	movw	r24, r14
    149a:	06 d9       	rcall	.-3572   	; 0x6a8 <_ZN11Interpreter9parse_hexEv>
    149c:	c7 01       	movw	r24, r14
    149e:	cd 57       	subi	r28, 0x7D	; 125
    14a0:	df 4f       	sbci	r29, 0xFF	; 255
    14a2:	0f b6       	in	r0, 0x3f	; 63
    14a4:	f8 94       	cli
    14a6:	de bf       	out	0x3e, r29	; 62
    14a8:	0f be       	out	0x3f, r0	; 63
    14aa:	cd bf       	out	0x3d, r28	; 61
    14ac:	df 91       	pop	r29
    14ae:	cf 91       	pop	r28
    14b0:	1f 91       	pop	r17
    14b2:	0f 91       	pop	r16
    14b4:	ff 90       	pop	r15
    14b6:	ef 90       	pop	r14
    14b8:	df 90       	pop	r13
    14ba:	bf 90       	pop	r11
    14bc:	af 90       	pop	r10
    14be:	9f 90       	pop	r9
    14c0:	8f 90       	pop	r8
    14c2:	08 95       	ret

000014c4 <_ZN11Interpreter3eatE9TokenType>:
    14c4:	0f 93       	push	r16
    14c6:	1f 93       	push	r17
    14c8:	cf 93       	push	r28
    14ca:	df 93       	push	r29
    14cc:	cd b7       	in	r28, 0x3d	; 61
    14ce:	de b7       	in	r29, 0x3e	; 62
    14d0:	c2 54       	subi	r28, 0x42	; 66
    14d2:	d1 09       	sbc	r29, r1
    14d4:	0f b6       	in	r0, 0x3f	; 63
    14d6:	f8 94       	cli
    14d8:	de bf       	out	0x3e, r29	; 62
    14da:	0f be       	out	0x3f, r0	; 63
    14dc:	cd bf       	out	0x3d, r28	; 61
    14de:	8c 01       	movw	r16, r24
    14e0:	01 57       	subi	r16, 0x71	; 113
    14e2:	18 4f       	sbci	r17, 0xF8	; 248
    14e4:	f8 01       	movw	r30, r16
    14e6:	20 81       	ld	r18, Z
    14e8:	26 13       	cpse	r18, r22
    14ea:	18 c0       	rjmp	.+48     	; 0x151c <_ZN11Interpreter3eatE9TokenType+0x58>
    14ec:	bc 01       	movw	r22, r24
    14ee:	ce 01       	movw	r24, r28
    14f0:	01 96       	adiw	r24, 0x01	; 1
    14f2:	71 de       	rcall	.-798    	; 0x11d6 <_ZN11Interpreter14get_next_tokenEv>
    14f4:	82 e4       	ldi	r24, 0x42	; 66
    14f6:	fe 01       	movw	r30, r28
    14f8:	31 96       	adiw	r30, 0x01	; 1
    14fa:	d8 01       	movw	r26, r16
    14fc:	01 90       	ld	r0, Z+
    14fe:	0d 92       	st	X+, r0
    1500:	8a 95       	dec	r24
    1502:	e1 f7       	brne	.-8      	; 0x14fc <_ZN11Interpreter3eatE9TokenType+0x38>
    1504:	ce 5b       	subi	r28, 0xBE	; 190
    1506:	df 4f       	sbci	r29, 0xFF	; 255
    1508:	0f b6       	in	r0, 0x3f	; 63
    150a:	f8 94       	cli
    150c:	de bf       	out	0x3e, r29	; 62
    150e:	0f be       	out	0x3f, r0	; 63
    1510:	cd bf       	out	0x3d, r28	; 61
    1512:	df 91       	pop	r29
    1514:	cf 91       	pop	r28
    1516:	1f 91       	pop	r17
    1518:	0f 91       	pop	r16
    151a:	08 95       	ret
    151c:	62 e1       	ldi	r22, 0x12	; 18
    151e:	73 e0       	ldi	r23, 0x03	; 3
    1520:	ce 5b       	subi	r28, 0xBE	; 190
    1522:	df 4f       	sbci	r29, 0xFF	; 255
    1524:	0f b6       	in	r0, 0x3f	; 63
    1526:	f8 94       	cli
    1528:	de bf       	out	0x3e, r29	; 62
    152a:	0f be       	out	0x3f, r0	; 63
    152c:	cd bf       	out	0x3d, r28	; 61
    152e:	df 91       	pop	r29
    1530:	cf 91       	pop	r28
    1532:	1f 91       	pop	r17
    1534:	0f 91       	pop	r16
    1536:	0c 94 2f 02 	jmp	0x45e	; 0x45e <_ZN11Interpreter5errorEPc>

0000153a <_ZN11Interpreter10lookup_varEPKc>:
    153a:	8f 92       	push	r8
    153c:	9f 92       	push	r9
    153e:	af 92       	push	r10
    1540:	bf 92       	push	r11
    1542:	cf 92       	push	r12
    1544:	df 92       	push	r13
    1546:	ef 92       	push	r14
    1548:	ff 92       	push	r15
    154a:	0f 93       	push	r16
    154c:	1f 93       	push	r17
    154e:	cf 93       	push	r28
    1550:	df 93       	push	r29
    1552:	cd b7       	in	r28, 0x3d	; 61
    1554:	de b7       	in	r29, 0x3e	; 62
    1556:	6e 97       	sbiw	r28, 0x1e	; 30
    1558:	0f b6       	in	r0, 0x3f	; 63
    155a:	f8 94       	cli
    155c:	de bf       	out	0x3e, r29	; 62
    155e:	0f be       	out	0x3f, r0	; 63
    1560:	cd bf       	out	0x3d, r28	; 61
    1562:	7c 01       	movw	r14, r24
    1564:	6b 01       	movw	r12, r22
    1566:	94 2e       	mov	r9, r20
    1568:	85 2e       	mov	r8, r21
    156a:	5b 01       	movw	r10, r22
    156c:	8f ef       	ldi	r24, 0xFF	; 255
    156e:	a8 1a       	sub	r10, r24
    1570:	b8 0a       	sbc	r11, r24
    1572:	00 e0       	ldi	r16, 0x00	; 0
    1574:	10 e0       	ldi	r17, 0x00	; 0
    1576:	69 2d       	mov	r22, r9
    1578:	78 2d       	mov	r23, r8
    157a:	c5 01       	movw	r24, r10
    157c:	0e 94 e7 31 	call	0x63ce	; 0x63ce <strcmp>
    1580:	89 2b       	or	r24, r25
    1582:	f9 f0       	breq	.+62     	; 0x15c2 <_ZN11Interpreter10lookup_varEPKc+0x88>
    1584:	0f 5f       	subi	r16, 0xFF	; 255
    1586:	1f 4f       	sbci	r17, 0xFF	; 255
    1588:	98 e0       	ldi	r25, 0x08	; 8
    158a:	a9 0e       	add	r10, r25
    158c:	b1 1c       	adc	r11, r1
    158e:	09 31       	cpi	r16, 0x19	; 25
    1590:	11 05       	cpc	r17, r1
    1592:	89 f7       	brne	.-30     	; 0x1576 <_ZN11Interpreter10lookup_varEPKc+0x3c>
    1594:	8f 92       	push	r8
    1596:	9f 92       	push	r9
    1598:	81 e2       	ldi	r24, 0x21	; 33
    159a:	93 e0       	ldi	r25, 0x03	; 3
    159c:	9f 93       	push	r25
    159e:	8f 93       	push	r24
    15a0:	ce 01       	movw	r24, r28
    15a2:	01 96       	adiw	r24, 0x01	; 1
    15a4:	5c 01       	movw	r10, r24
    15a6:	9f 93       	push	r25
    15a8:	8f 93       	push	r24
    15aa:	0e 94 46 32 	call	0x648c	; 0x648c <sprintf>
    15ae:	b5 01       	movw	r22, r10
    15b0:	c6 01       	movw	r24, r12
    15b2:	0e 94 2f 02 	call	0x45e	; 0x45e <_ZN11Interpreter5errorEPc>
    15b6:	0f 90       	pop	r0
    15b8:	0f 90       	pop	r0
    15ba:	0f 90       	pop	r0
    15bc:	0f 90       	pop	r0
    15be:	0f 90       	pop	r0
    15c0:	0f 90       	pop	r0
    15c2:	81 e4       	ldi	r24, 0x41	; 65
    15c4:	80 9f       	mul	r24, r16
    15c6:	f0 01       	movw	r30, r0
    15c8:	81 9f       	mul	r24, r17
    15ca:	f0 0d       	add	r31, r0
    15cc:	11 24       	eor	r1, r1
    15ce:	ec 0d       	add	r30, r12
    15d0:	fd 1d       	adc	r31, r13
    15d2:	e7 53       	subi	r30, 0x37	; 55
    15d4:	ff 4f       	sbci	r31, 0xFF	; 255
    15d6:	d7 01       	movw	r26, r14
    15d8:	01 90       	ld	r0, Z+
    15da:	0d 92       	st	X+, r0
    15dc:	8a 95       	dec	r24
    15de:	e1 f7       	brne	.-8      	; 0x15d8 <_ZN11Interpreter10lookup_varEPKc+0x9e>
    15e0:	c7 01       	movw	r24, r14
    15e2:	6e 96       	adiw	r28, 0x1e	; 30
    15e4:	0f b6       	in	r0, 0x3f	; 63
    15e6:	f8 94       	cli
    15e8:	de bf       	out	0x3e, r29	; 62
    15ea:	0f be       	out	0x3f, r0	; 63
    15ec:	cd bf       	out	0x3d, r28	; 61
    15ee:	df 91       	pop	r29
    15f0:	cf 91       	pop	r28
    15f2:	1f 91       	pop	r17
    15f4:	0f 91       	pop	r16
    15f6:	ff 90       	pop	r15
    15f8:	ef 90       	pop	r14
    15fa:	df 90       	pop	r13
    15fc:	cf 90       	pop	r12
    15fe:	bf 90       	pop	r11
    1600:	af 90       	pop	r10
    1602:	9f 90       	pop	r9
    1604:	8f 90       	pop	r8
    1606:	08 95       	ret

00001608 <_ZN11Interpreter9store_varEPKc5Value>:
    1608:	af 92       	push	r10
    160a:	bf 92       	push	r11
    160c:	cf 92       	push	r12
    160e:	df 92       	push	r13
    1610:	ef 92       	push	r14
    1612:	ff 92       	push	r15
    1614:	0f 93       	push	r16
    1616:	1f 93       	push	r17
    1618:	cf 93       	push	r28
    161a:	df 93       	push	r29
    161c:	cd b7       	in	r28, 0x3d	; 61
    161e:	de b7       	in	r29, 0x3e	; 62
    1620:	8c 01       	movw	r16, r24
    1622:	6b 01       	movw	r12, r22
    1624:	5c 01       	movw	r10, r24
    1626:	8f ef       	ldi	r24, 0xFF	; 255
    1628:	a8 1a       	sub	r10, r24
    162a:	b8 0a       	sbc	r11, r24
    162c:	e1 2c       	mov	r14, r1
    162e:	f1 2c       	mov	r15, r1
    1630:	b6 01       	movw	r22, r12
    1632:	c5 01       	movw	r24, r10
    1634:	0e 94 e7 31 	call	0x63ce	; 0x63ce <strcmp>
    1638:	89 2b       	or	r24, r25
    163a:	39 f4       	brne	.+14     	; 0x164a <_ZN11Interpreter9store_varEPKc5Value+0x42>
    163c:	81 e4       	ldi	r24, 0x41	; 65
    163e:	8e 9d       	mul	r24, r14
    1640:	d0 01       	movw	r26, r0
    1642:	8f 9d       	mul	r24, r15
    1644:	b0 0d       	add	r27, r0
    1646:	11 24       	eor	r1, r1
    1648:	2a c0       	rjmp	.+84     	; 0x169e <_ZN11Interpreter9store_varEPKc5Value+0x96>
    164a:	ef ef       	ldi	r30, 0xFF	; 255
    164c:	ee 1a       	sub	r14, r30
    164e:	fe 0a       	sbc	r15, r30
    1650:	f8 e0       	ldi	r31, 0x08	; 8
    1652:	af 0e       	add	r10, r31
    1654:	b1 1c       	adc	r11, r1
    1656:	89 e1       	ldi	r24, 0x19	; 25
    1658:	e8 16       	cp	r14, r24
    165a:	f1 04       	cpc	r15, r1
    165c:	49 f7       	brne	.-46     	; 0x1630 <_ZN11Interpreter9store_varEPKc5Value+0x28>
    165e:	78 01       	movw	r14, r16
    1660:	ea e7       	ldi	r30, 0x7A	; 122
    1662:	ee 1a       	sub	r14, r30
    1664:	e8 ef       	ldi	r30, 0xF8	; 248
    1666:	fe 0a       	sbc	r15, r30
    1668:	f7 01       	movw	r30, r14
    166a:	80 81       	ld	r24, Z
    166c:	91 81       	ldd	r25, Z+1	; 0x01
    166e:	23 e0       	ldi	r18, 0x03	; 3
    1670:	88 0f       	add	r24, r24
    1672:	99 1f       	adc	r25, r25
    1674:	2a 95       	dec	r18
    1676:	e1 f7       	brne	.-8      	; 0x1670 <_ZN11Interpreter9store_varEPKc5Value+0x68>
    1678:	01 96       	adiw	r24, 0x01	; 1
    167a:	b6 01       	movw	r22, r12
    167c:	80 0f       	add	r24, r16
    167e:	91 1f       	adc	r25, r17
    1680:	0e 94 f0 31 	call	0x63e0	; 0x63e0 <strcpy>
    1684:	f7 01       	movw	r30, r14
    1686:	20 81       	ld	r18, Z
    1688:	31 81       	ldd	r19, Z+1	; 0x01
    168a:	c9 01       	movw	r24, r18
    168c:	01 96       	adiw	r24, 0x01	; 1
    168e:	91 83       	std	Z+1, r25	; 0x01
    1690:	80 83       	st	Z, r24
    1692:	81 e4       	ldi	r24, 0x41	; 65
    1694:	82 9f       	mul	r24, r18
    1696:	d0 01       	movw	r26, r0
    1698:	83 9f       	mul	r24, r19
    169a:	b0 0d       	add	r27, r0
    169c:	11 24       	eor	r1, r1
    169e:	a0 0f       	add	r26, r16
    16a0:	b1 1f       	adc	r27, r17
    16a2:	a7 53       	subi	r26, 0x37	; 55
    16a4:	bf 4f       	sbci	r27, 0xFF	; 255
    16a6:	fe 01       	movw	r30, r28
    16a8:	3d 96       	adiw	r30, 0x0d	; 13
    16aa:	01 90       	ld	r0, Z+
    16ac:	0d 92       	st	X+, r0
    16ae:	8a 95       	dec	r24
    16b0:	e1 f7       	brne	.-8      	; 0x16aa <_ZN11Interpreter9store_varEPKc5Value+0xa2>
    16b2:	81 e0       	ldi	r24, 0x01	; 1
    16b4:	df 91       	pop	r29
    16b6:	cf 91       	pop	r28
    16b8:	1f 91       	pop	r17
    16ba:	0f 91       	pop	r16
    16bc:	ff 90       	pop	r15
    16be:	ef 90       	pop	r14
    16c0:	df 90       	pop	r13
    16c2:	cf 90       	pop	r12
    16c4:	bf 90       	pop	r11
    16c6:	af 90       	pop	r10
    16c8:	08 95       	ret

000016ca <_ZN11Interpreter7delayMsEi>:
    16ca:	80 e0       	ldi	r24, 0x00	; 0
    16cc:	90 e0       	ldi	r25, 0x00	; 0
    16ce:	86 17       	cp	r24, r22
    16d0:	97 07       	cpc	r25, r23
    16d2:	3c f4       	brge	.+14     	; 0x16e2 <_ZN11Interpreter7delayMsEi+0x18>
    16d4:	e6 e6       	ldi	r30, 0x66	; 102
    16d6:	fe e0       	ldi	r31, 0x0E	; 14
    16d8:	31 97       	sbiw	r30, 0x01	; 1
    16da:	f1 f7       	brne	.-4      	; 0x16d8 <_ZN11Interpreter7delayMsEi+0xe>
    16dc:	00 00       	nop
    16de:	01 96       	adiw	r24, 0x01	; 1
    16e0:	f6 cf       	rjmp	.-20     	; 0x16ce <_ZN11Interpreter7delayMsEi+0x4>
    16e2:	08 95       	ret

000016e4 <_ZN11Interpreter9strlen_eeEPc>:
    16e4:	0f 93       	push	r16
    16e6:	1f 93       	push	r17
    16e8:	cf 93       	push	r28
    16ea:	df 93       	push	r29
    16ec:	8b 01       	movw	r16, r22
    16ee:	cb 01       	movw	r24, r22
    16f0:	0e 94 41 34 	call	0x6882	; 0x6882 <eeprom_read_byte>
    16f4:	c0 e0       	ldi	r28, 0x00	; 0
    16f6:	d0 e0       	ldi	r29, 0x00	; 0
    16f8:	88 23       	and	r24, r24
    16fa:	39 f0       	breq	.+14     	; 0x170a <_ZN11Interpreter9strlen_eeEPc+0x26>
    16fc:	21 96       	adiw	r28, 0x01	; 1
    16fe:	c8 01       	movw	r24, r16
    1700:	8c 0f       	add	r24, r28
    1702:	9d 1f       	adc	r25, r29
    1704:	0e 94 41 34 	call	0x6882	; 0x6882 <eeprom_read_byte>
    1708:	f7 cf       	rjmp	.-18     	; 0x16f8 <_ZN11Interpreter9strlen_eeEPc+0x14>
    170a:	ce 01       	movw	r24, r28
    170c:	df 91       	pop	r29
    170e:	cf 91       	pop	r28
    1710:	1f 91       	pop	r17
    1712:	0f 91       	pop	r16
    1714:	08 95       	ret

00001716 <_ZN11InterpreterC1EPc>:
    1716:	af 92       	push	r10
    1718:	bf 92       	push	r11
    171a:	cf 92       	push	r12
    171c:	df 92       	push	r13
    171e:	ef 92       	push	r14
    1720:	ff 92       	push	r15
    1722:	0f 93       	push	r16
    1724:	1f 93       	push	r17
    1726:	cf 93       	push	r28
    1728:	df 93       	push	r29
    172a:	cd b7       	in	r28, 0x3d	; 61
    172c:	de b7       	in	r29, 0x3e	; 62
    172e:	c2 54       	subi	r28, 0x42	; 66
    1730:	d1 09       	sbc	r29, r1
    1732:	0f b6       	in	r0, 0x3f	; 63
    1734:	f8 94       	cli
    1736:	de bf       	out	0x3e, r29	; 62
    1738:	0f be       	out	0x3f, r0	; 63
    173a:	cd bf       	out	0x3d, r28	; 61
    173c:	8c 01       	movw	r16, r24
    173e:	6b 01       	movw	r12, r22
    1740:	7c 01       	movw	r14, r24
    1742:	89 ec       	ldi	r24, 0xC9	; 201
    1744:	e8 0e       	add	r14, r24
    1746:	f1 1c       	adc	r15, r1
    1748:	58 01       	movw	r10, r16
    174a:	ee ed       	ldi	r30, 0xDE	; 222
    174c:	ae 1a       	sub	r10, r30
    174e:	e8 ef       	ldi	r30, 0xF8	; 248
    1750:	be 0a       	sbc	r11, r30
    1752:	c7 01       	movw	r24, r14
    1754:	0e 94 9e 1b 	call	0x373c	; 0x373c <_ZN5ValueC1Ev>
    1758:	f1 e4       	ldi	r31, 0x41	; 65
    175a:	ef 0e       	add	r14, r31
    175c:	f1 1c       	adc	r15, r1
    175e:	ea 14       	cp	r14, r10
    1760:	fb 04       	cpc	r15, r11
    1762:	b9 f7       	brne	.-18     	; 0x1752 <_ZN11InterpreterC1EPc+0x3c>
    1764:	78 01       	movw	r14, r16
    1766:	81 e7       	ldi	r24, 0x71	; 113
    1768:	e8 1a       	sub	r14, r24
    176a:	88 ef       	ldi	r24, 0xF8	; 248
    176c:	f8 0a       	sbc	r15, r24
    176e:	c7 01       	movw	r24, r14
    1770:	01 96       	adiw	r24, 0x01	; 1
    1772:	0e 94 9e 1b 	call	0x373c	; 0x373c <_ZN5ValueC1Ev>
    1776:	f8 01       	movw	r30, r16
    1778:	10 82       	st	Z, r1
    177a:	e8 57       	subi	r30, 0x78	; 120
    177c:	f8 4f       	sbci	r31, 0xF8	; 248
    177e:	d1 82       	std	Z+1, r13	; 0x01
    1780:	c0 82       	st	Z, r12
    1782:	32 96       	adiw	r30, 0x02	; 2
    1784:	11 82       	std	Z+1, r1	; 0x01
    1786:	10 82       	st	Z, r1
    1788:	b6 01       	movw	r22, r12
    178a:	c8 01       	movw	r24, r16
    178c:	ab df       	rcall	.-170    	; 0x16e4 <_ZN11Interpreter9strlen_eeEPc>
    178e:	f8 01       	movw	r30, r16
    1790:	e4 57       	subi	r30, 0x74	; 116
    1792:	f8 4f       	sbci	r31, 0xF8	; 248
    1794:	91 83       	std	Z+1, r25	; 0x01
    1796:	80 83       	st	Z, r24
    1798:	c6 01       	movw	r24, r12
    179a:	0e 94 41 34 	call	0x6882	; 0x6882 <eeprom_read_byte>
    179e:	f8 01       	movw	r30, r16
    17a0:	e2 57       	subi	r30, 0x72	; 114
    17a2:	f8 4f       	sbci	r31, 0xF8	; 248
    17a4:	80 83       	st	Z, r24
    17a6:	b8 01       	movw	r22, r16
    17a8:	ce 01       	movw	r24, r28
    17aa:	01 96       	adiw	r24, 0x01	; 1
    17ac:	14 dd       	rcall	.-1496   	; 0x11d6 <_ZN11Interpreter14get_next_tokenEv>
    17ae:	82 e4       	ldi	r24, 0x42	; 66
    17b0:	fe 01       	movw	r30, r28
    17b2:	31 96       	adiw	r30, 0x01	; 1
    17b4:	d7 01       	movw	r26, r14
    17b6:	01 90       	ld	r0, Z+
    17b8:	0d 92       	st	X+, r0
    17ba:	8a 95       	dec	r24
    17bc:	e1 f7       	brne	.-8      	; 0x17b6 <_ZN11InterpreterC1EPc+0xa0>
    17be:	f8 01       	movw	r30, r16
    17c0:	ea 57       	subi	r30, 0x7A	; 122
    17c2:	f8 4f       	sbci	r31, 0xF8	; 248
    17c4:	11 82       	std	Z+1, r1	; 0x01
    17c6:	10 82       	st	Z, r1
    17c8:	ce 5b       	subi	r28, 0xBE	; 190
    17ca:	df 4f       	sbci	r29, 0xFF	; 255
    17cc:	0f b6       	in	r0, 0x3f	; 63
    17ce:	f8 94       	cli
    17d0:	de bf       	out	0x3e, r29	; 62
    17d2:	0f be       	out	0x3f, r0	; 63
    17d4:	cd bf       	out	0x3d, r28	; 61
    17d6:	df 91       	pop	r29
    17d8:	cf 91       	pop	r28
    17da:	1f 91       	pop	r17
    17dc:	0f 91       	pop	r16
    17de:	ff 90       	pop	r15
    17e0:	ef 90       	pop	r14
    17e2:	df 90       	pop	r13
    17e4:	cf 90       	pop	r12
    17e6:	bf 90       	pop	r11
    17e8:	af 90       	pop	r10
    17ea:	08 95       	ret

000017ec <_ZN11Interpreter7freeRAMEv>:
    17ec:	cf 93       	push	r28
    17ee:	df 93       	push	r29
    17f0:	00 d0       	rcall	.+0      	; 0x17f2 <_ZN11Interpreter7freeRAMEv+0x6>
    17f2:	cd b7       	in	r28, 0x3d	; 61
    17f4:	de b7       	in	r29, 0x3e	; 62
    17f6:	80 91 32 04 	lds	r24, 0x0432	; 0x800432 <__brkval>
    17fa:	90 91 33 04 	lds	r25, 0x0433	; 0x800433 <__brkval+0x1>
    17fe:	21 e0       	ldi	r18, 0x01	; 1
    1800:	30 e0       	ldi	r19, 0x00	; 0
    1802:	00 97       	sbiw	r24, 0x00	; 0
    1804:	11 f0       	breq	.+4      	; 0x180a <_ZN11Interpreter7freeRAMEv+0x1e>
    1806:	20 e0       	ldi	r18, 0x00	; 0
    1808:	30 e0       	ldi	r19, 0x00	; 0
    180a:	ae 01       	movw	r20, r28
    180c:	4f 5f       	subi	r20, 0xFF	; 255
    180e:	5f 4f       	sbci	r21, 0xFF	; 255
    1810:	42 17       	cp	r20, r18
    1812:	53 07       	cpc	r21, r19
    1814:	11 f0       	breq	.+4      	; 0x181a <_ZN11Interpreter7freeRAMEv+0x2e>
    1816:	88 e3       	ldi	r24, 0x38	; 56
    1818:	94 e0       	ldi	r25, 0x04	; 4
    181a:	0f 90       	pop	r0
    181c:	0f 90       	pop	r0
    181e:	df 91       	pop	r29
    1820:	cf 91       	pop	r28
    1822:	08 95       	ret

00001824 <_ZN11Interpreter13function_callEv>:
    1824:	af 92       	push	r10
    1826:	bf 92       	push	r11
    1828:	cf 92       	push	r12
    182a:	df 92       	push	r13
    182c:	ef 92       	push	r14
    182e:	ff 92       	push	r15
    1830:	0f 93       	push	r16
    1832:	1f 93       	push	r17
    1834:	cf 93       	push	r28
    1836:	df 93       	push	r29
    1838:	cd b7       	in	r28, 0x3d	; 61
    183a:	de b7       	in	r29, 0x3e	; 62
    183c:	c3 5c       	subi	r28, 0xC3	; 195
    183e:	d1 09       	sbc	r29, r1
    1840:	0f b6       	in	r0, 0x3f	; 63
    1842:	f8 94       	cli
    1844:	de bf       	out	0x3e, r29	; 62
    1846:	0f be       	out	0x3f, r0	; 63
    1848:	cd bf       	out	0x3d, r28	; 61
    184a:	6c 01       	movw	r12, r24
    184c:	8b 01       	movw	r16, r22
    184e:	ad b6       	in	r10, 0x3d	; 61
    1850:	be b6       	in	r11, 0x3e	; 62
    1852:	fb 01       	movw	r30, r22
    1854:	ec 56       	subi	r30, 0x6C	; 108
    1856:	f8 4f       	sbci	r31, 0xF8	; 248
    1858:	e0 80       	ld	r14, Z
    185a:	f1 80       	ldd	r15, Z+1	; 0x01
    185c:	6d e2       	ldi	r22, 0x2D	; 45
    185e:	c8 01       	movw	r24, r16
    1860:	31 de       	rcall	.-926    	; 0x14c4 <_ZN11Interpreter3eatE9TokenType>
    1862:	60 e2       	ldi	r22, 0x20	; 32
    1864:	c8 01       	movw	r24, r16
    1866:	2e de       	rcall	.-932    	; 0x14c4 <_ZN11Interpreter3eatE9TokenType>
    1868:	21 e0       	ldi	r18, 0x01	; 1
    186a:	e2 16       	cp	r14, r18
    186c:	f1 04       	cpc	r15, r1
    186e:	e9 f4       	brne	.+58     	; 0x18aa <_ZN11Interpreter13function_callEv+0x86>
    1870:	b8 01       	movw	r22, r16
    1872:	ce 01       	movw	r24, r28
    1874:	01 96       	adiw	r24, 0x01	; 1
    1876:	6c d6       	rcall	.+3288   	; 0x2550 <_ZN11Interpreter4exprEv>
    1878:	61 e2       	ldi	r22, 0x21	; 33
    187a:	c8 01       	movw	r24, r16
    187c:	23 de       	rcall	.-954    	; 0x14c4 <_ZN11Interpreter3eatE9TokenType>
    187e:	ce 01       	movw	r24, r28
    1880:	01 96       	adiw	r24, 0x01	; 1
    1882:	0e 94 f6 27 	call	0x4fec	; 0x4fec <_ZN5Value8ToStringEv>
    1886:	0e 94 dc 01 	call	0x3b8	; 0x3b8 <_Z10lcd_printfPKc>
    188a:	f8 01       	movw	r30, r16
    188c:	80 81       	ld	r24, Z
    188e:	88 23       	and	r24, r24
    1890:	09 f4       	brne	.+2      	; 0x1894 <_ZN11Interpreter13function_callEv+0x70>
    1892:	3f c4       	rjmp	.+2174   	; 0x2112 <_ZN11Interpreter13function_callEv+0x8ee>
    1894:	ce 01       	movw	r24, r28
    1896:	01 96       	adiw	r24, 0x01	; 1
    1898:	0e 94 f6 27 	call	0x4fec	; 0x4fec <_ZN5Value8ToStringEv>
    189c:	0e 94 2c 19 	call	0x3258	; 0x3258 <_Z11send_stringPc>
    18a0:	82 e3       	ldi	r24, 0x32	; 50
    18a2:	93 e0       	ldi	r25, 0x03	; 3
    18a4:	0e 94 2c 19 	call	0x3258	; 0x3258 <_Z11send_stringPc>
    18a8:	34 c4       	rjmp	.+2152   	; 0x2112 <_ZN11Interpreter13function_callEv+0x8ee>
    18aa:	f4 e0       	ldi	r31, 0x04	; 4
    18ac:	ef 16       	cp	r14, r31
    18ae:	f1 04       	cpc	r15, r1
    18b0:	39 f4       	brne	.+14     	; 0x18c0 <_ZN11Interpreter13function_callEv+0x9c>
    18b2:	61 e2       	ldi	r22, 0x21	; 33
    18b4:	c8 01       	movw	r24, r16
    18b6:	06 de       	rcall	.-1012   	; 0x14c4 <_ZN11Interpreter3eatE9TokenType>
    18b8:	c8 01       	movw	r24, r16
    18ba:	98 df       	rcall	.-208    	; 0x17ec <_ZN11Interpreter7freeRAMEv>
    18bc:	bc 01       	movw	r22, r24
    18be:	25 c4       	rjmp	.+2122   	; 0x210a <_ZN11Interpreter13function_callEv+0x8e6>
    18c0:	25 e0       	ldi	r18, 0x05	; 5
    18c2:	e2 16       	cp	r14, r18
    18c4:	f1 04       	cpc	r15, r1
    18c6:	71 f4       	brne	.+28     	; 0x18e4 <_ZN11Interpreter13function_callEv+0xc0>
    18c8:	61 e2       	ldi	r22, 0x21	; 33
    18ca:	c8 01       	movw	r24, r16
    18cc:	fb dd       	rcall	.-1034   	; 0x14c4 <_ZN11Interpreter3eatE9TokenType>
    18ce:	98 e0       	ldi	r25, 0x08	; 8
    18d0:	88 e1       	ldi	r24, 0x18	; 24
    18d2:	0f b6       	in	r0, 0x3f	; 63
    18d4:	f8 94       	cli
    18d6:	a8 95       	wdr
    18d8:	80 93 60 00 	sts	0x0060, r24	; 0x800060 <__TEXT_REGION_LENGTH__+0x7e0060>
    18dc:	0f be       	out	0x3f, r0	; 63
    18de:	90 93 60 00 	sts	0x0060, r25	; 0x800060 <__TEXT_REGION_LENGTH__+0x7e0060>
    18e2:	ff cf       	rjmp	.-2      	; 0x18e2 <_ZN11Interpreter13function_callEv+0xbe>
    18e4:	33 e0       	ldi	r19, 0x03	; 3
    18e6:	e3 16       	cp	r14, r19
    18e8:	f1 04       	cpc	r15, r1
    18ea:	49 f4       	brne	.+18     	; 0x18fe <_ZN11Interpreter13function_callEv+0xda>
    18ec:	b8 01       	movw	r22, r16
    18ee:	ce 01       	movw	r24, r28
    18f0:	01 96       	adiw	r24, 0x01	; 1
    18f2:	2e d6       	rcall	.+3164   	; 0x2550 <_ZN11Interpreter4exprEv>
    18f4:	6e ad       	ldd	r22, Y+62	; 0x3e
    18f6:	7f ad       	ldd	r23, Y+63	; 0x3f
    18f8:	61 50       	subi	r22, 0x01	; 1
    18fa:	71 09       	sbc	r23, r1
    18fc:	b6 c0       	rjmp	.+364    	; 0x1a6a <_ZN11Interpreter13function_callEv+0x246>
    18fe:	86 e0       	ldi	r24, 0x06	; 6
    1900:	e8 16       	cp	r14, r24
    1902:	f1 04       	cpc	r15, r1
    1904:	61 f4       	brne	.+24     	; 0x191e <_ZN11Interpreter13function_callEv+0xfa>
    1906:	b8 01       	movw	r22, r16
    1908:	ce 01       	movw	r24, r28
    190a:	01 96       	adiw	r24, 0x01	; 1
    190c:	21 d6       	rcall	.+3138   	; 0x2550 <_ZN11Interpreter4exprEv>
    190e:	61 e2       	ldi	r22, 0x21	; 33
    1910:	c8 01       	movw	r24, r16
    1912:	d8 dd       	rcall	.-1104   	; 0x14c4 <_ZN11Interpreter3eatE9TokenType>
    1914:	6d 81       	ldd	r22, Y+5	; 0x05
    1916:	7e 81       	ldd	r23, Y+6	; 0x06
    1918:	c8 01       	movw	r24, r16
    191a:	d7 de       	rcall	.-594    	; 0x16ca <_ZN11Interpreter7delayMsEi>
    191c:	fa c3       	rjmp	.+2036   	; 0x2112 <_ZN11Interpreter13function_callEv+0x8ee>
    191e:	9e e1       	ldi	r25, 0x1E	; 30
    1920:	e9 16       	cp	r14, r25
    1922:	f1 04       	cpc	r15, r1
    1924:	09 f0       	breq	.+2      	; 0x1928 <_ZN11Interpreter13function_callEv+0x104>
    1926:	45 c0       	rjmp	.+138    	; 0x19b2 <_ZN11Interpreter13function_callEv+0x18e>
    1928:	b8 01       	movw	r22, r16
    192a:	ce 01       	movw	r24, r28
    192c:	8d 57       	subi	r24, 0x7D	; 125
    192e:	9f 4f       	sbci	r25, 0xFF	; 255
    1930:	0f d6       	rcall	.+3102   	; 0x2550 <_ZN11Interpreter4exprEv>
    1932:	6a e1       	ldi	r22, 0x1A	; 26
    1934:	c8 01       	movw	r24, r16
    1936:	c6 dd       	rcall	.-1140   	; 0x14c4 <_ZN11Interpreter3eatE9TokenType>
    1938:	b8 01       	movw	r22, r16
    193a:	ce 01       	movw	r24, r28
    193c:	8e 5b       	subi	r24, 0xBE	; 190
    193e:	9f 4f       	sbci	r25, 0xFF	; 255
    1940:	07 d6       	rcall	.+3086   	; 0x2550 <_ZN11Interpreter4exprEv>
    1942:	6a e1       	ldi	r22, 0x1A	; 26
    1944:	c8 01       	movw	r24, r16
    1946:	be dd       	rcall	.-1156   	; 0x14c4 <_ZN11Interpreter3eatE9TokenType>
    1948:	b8 01       	movw	r22, r16
    194a:	ce 01       	movw	r24, r28
    194c:	01 96       	adiw	r24, 0x01	; 1
    194e:	00 d6       	rcall	.+3072   	; 0x2550 <_ZN11Interpreter4exprEv>
    1950:	ed 80       	ldd	r14, Y+5	; 0x05
    1952:	fe 80       	ldd	r15, Y+6	; 0x06
    1954:	61 e2       	ldi	r22, 0x21	; 33
    1956:	c8 01       	movw	r24, r16
    1958:	b5 dd       	rcall	.-1174   	; 0x14c4 <_ZN11Interpreter3eatE9TokenType>
    195a:	c7 01       	movw	r24, r14
    195c:	01 96       	adiw	r24, 0x01	; 1
    195e:	ed b7       	in	r30, 0x3d	; 61
    1960:	fe b7       	in	r31, 0x3e	; 62
    1962:	e8 1b       	sub	r30, r24
    1964:	f9 0b       	sbc	r31, r25
    1966:	0f b6       	in	r0, 0x3f	; 63
    1968:	f8 94       	cli
    196a:	fe bf       	out	0x3e, r31	; 62
    196c:	0f be       	out	0x3f, r0	; 63
    196e:	ed bf       	out	0x3d, r30	; 61
    1970:	0d b7       	in	r16, 0x3d	; 61
    1972:	1e b7       	in	r17, 0x3e	; 62
    1974:	0f 5f       	subi	r16, 0xFF	; 255
    1976:	1f 4f       	sbci	r17, 0xFF	; 255
    1978:	ce 01       	movw	r24, r28
    197a:	8d 57       	subi	r24, 0x7D	; 125
    197c:	9f 4f       	sbci	r25, 0xFF	; 255
    197e:	0e 94 f6 27 	call	0x4fec	; 0x4fec <_ZN5Value8ToStringEv>
    1982:	28 96       	adiw	r28, 0x08	; 8
    1984:	6e ad       	ldd	r22, Y+62	; 0x3e
    1986:	7f ad       	ldd	r23, Y+63	; 0x3f
    1988:	28 97       	sbiw	r28, 0x08	; 8
    198a:	68 0f       	add	r22, r24
    198c:	79 1f       	adc	r23, r25
    198e:	a7 01       	movw	r20, r14
    1990:	c8 01       	movw	r24, r16
    1992:	0e 94 d3 31 	call	0x63a6	; 0x63a6 <memcpy>
    1996:	f8 01       	movw	r30, r16
    1998:	ee 0d       	add	r30, r14
    199a:	ff 1d       	adc	r31, r15
    199c:	10 82       	st	Z, r1
    199e:	b8 01       	movw	r22, r16
    19a0:	c6 01       	movw	r24, r12
    19a2:	0e 94 d7 1b 	call	0x37ae	; 0x37ae <_ZN5ValueC1EPKc>
    19a6:	0f b6       	in	r0, 0x3f	; 63
    19a8:	f8 94       	cli
    19aa:	be be       	out	0x3e, r11	; 62
    19ac:	0f be       	out	0x3f, r0	; 63
    19ae:	ad be       	out	0x3d, r10	; 61
    19b0:	b8 c3       	rjmp	.+1904   	; 0x2122 <_ZN11Interpreter13function_callEv+0x8fe>
    19b2:	f3 e2       	ldi	r31, 0x23	; 35
    19b4:	ef 16       	cp	r14, r31
    19b6:	f1 04       	cpc	r15, r1
    19b8:	79 f4       	brne	.+30     	; 0x19d8 <_ZN11Interpreter13function_callEv+0x1b4>
    19ba:	b8 01       	movw	r22, r16
    19bc:	ce 01       	movw	r24, r28
    19be:	01 96       	adiw	r24, 0x01	; 1
    19c0:	c7 d5       	rcall	.+2958   	; 0x2550 <_ZN11Interpreter4exprEv>
    19c2:	ce 01       	movw	r24, r28
    19c4:	01 96       	adiw	r24, 0x01	; 1
    19c6:	0e 94 f6 27 	call	0x4fec	; 0x4fec <_ZN5Value8ToStringEv>
    19ca:	bc 01       	movw	r22, r24
    19cc:	ce 01       	movw	r24, r28
    19ce:	8e 5b       	subi	r24, 0xBE	; 190
    19d0:	9f 4f       	sbci	r25, 0xFF	; 255
    19d2:	0e 94 d7 1b 	call	0x37ae	; 0x37ae <_ZN5ValueC1EPKc>
    19d6:	4e c0       	rjmp	.+156    	; 0x1a74 <_ZN11Interpreter13function_callEv+0x250>
    19d8:	24 e2       	ldi	r18, 0x24	; 36
    19da:	e2 16       	cp	r14, r18
    19dc:	f1 04       	cpc	r15, r1
    19de:	51 f4       	brne	.+20     	; 0x19f4 <_ZN11Interpreter13function_callEv+0x1d0>
    19e0:	b8 01       	movw	r22, r16
    19e2:	ce 01       	movw	r24, r28
    19e4:	01 96       	adiw	r24, 0x01	; 1
    19e6:	b4 d5       	rcall	.+2920   	; 0x2550 <_ZN11Interpreter4exprEv>
    19e8:	ce 01       	movw	r24, r28
    19ea:	01 96       	adiw	r24, 0x01	; 1
    19ec:	0e 94 b4 27 	call	0x4f68	; 0x4f68 <_ZN5Value5ToIntEv>
    19f0:	bc 01       	movw	r22, r24
    19f2:	3b c0       	rjmp	.+118    	; 0x1a6a <_ZN11Interpreter13function_callEv+0x246>
    19f4:	36 e2       	ldi	r19, 0x26	; 38
    19f6:	e3 16       	cp	r14, r19
    19f8:	f1 04       	cpc	r15, r1
    19fa:	79 f4       	brne	.+30     	; 0x1a1a <_ZN11Interpreter13function_callEv+0x1f6>
    19fc:	b8 01       	movw	r22, r16
    19fe:	ce 01       	movw	r24, r28
    1a00:	01 96       	adiw	r24, 0x01	; 1
    1a02:	a6 d5       	rcall	.+2892   	; 0x2550 <_ZN11Interpreter4exprEv>
    1a04:	ce 01       	movw	r24, r28
    1a06:	01 96       	adiw	r24, 0x01	; 1
    1a08:	0e 94 8e 27 	call	0x4f1c	; 0x4f1c <_ZN5Value9ToBooleanEv>
    1a0c:	68 2f       	mov	r22, r24
    1a0e:	ce 01       	movw	r24, r28
    1a10:	8e 5b       	subi	r24, 0xBE	; 190
    1a12:	9f 4f       	sbci	r25, 0xFF	; 255
    1a14:	0e 94 e2 1b 	call	0x37c4	; 0x37c4 <_ZN5ValueC1Eb>
    1a18:	2d c0       	rjmp	.+90     	; 0x1a74 <_ZN11Interpreter13function_callEv+0x250>
    1a1a:	85 e2       	ldi	r24, 0x25	; 37
    1a1c:	e8 16       	cp	r14, r24
    1a1e:	f1 04       	cpc	r15, r1
    1a20:	81 f4       	brne	.+32     	; 0x1a42 <_ZN11Interpreter13function_callEv+0x21e>
    1a22:	b8 01       	movw	r22, r16
    1a24:	ce 01       	movw	r24, r28
    1a26:	01 96       	adiw	r24, 0x01	; 1
    1a28:	93 d5       	rcall	.+2854   	; 0x2550 <_ZN11Interpreter4exprEv>
    1a2a:	ce 01       	movw	r24, r28
    1a2c:	01 96       	adiw	r24, 0x01	; 1
    1a2e:	0e 94 d0 27 	call	0x4fa0	; 0x4fa0 <_ZN5Value8ToDoubleEv>
    1a32:	ab 01       	movw	r20, r22
    1a34:	bc 01       	movw	r22, r24
    1a36:	ce 01       	movw	r24, r28
    1a38:	8e 5b       	subi	r24, 0xBE	; 190
    1a3a:	9f 4f       	sbci	r25, 0xFF	; 255
    1a3c:	0e 94 ea 1b 	call	0x37d4	; 0x37d4 <_ZN5ValueC1Ed>
    1a40:	19 c0       	rjmp	.+50     	; 0x1a74 <_ZN11Interpreter13function_callEv+0x250>
    1a42:	92 e0       	ldi	r25, 0x02	; 2
    1a44:	e9 16       	cp	r14, r25
    1a46:	f1 04       	cpc	r15, r1
    1a48:	e9 f4       	brne	.+58     	; 0x1a84 <_ZN11Interpreter13function_callEv+0x260>
    1a4a:	b8 01       	movw	r22, r16
    1a4c:	ce 01       	movw	r24, r28
    1a4e:	01 96       	adiw	r24, 0x01	; 1
    1a50:	7f d5       	rcall	.+2814   	; 0x2550 <_ZN11Interpreter4exprEv>
    1a52:	ce 01       	movw	r24, r28
    1a54:	01 96       	adiw	r24, 0x01	; 1
    1a56:	0e 94 f6 27 	call	0x4fec	; 0x4fec <_ZN5Value8ToStringEv>
    1a5a:	fc 01       	movw	r30, r24
    1a5c:	01 90       	ld	r0, Z+
    1a5e:	00 20       	and	r0, r0
    1a60:	e9 f7       	brne	.-6      	; 0x1a5c <_ZN11Interpreter13function_callEv+0x238>
    1a62:	31 97       	sbiw	r30, 0x01	; 1
    1a64:	bf 01       	movw	r22, r30
    1a66:	68 1b       	sub	r22, r24
    1a68:	79 0b       	sbc	r23, r25
    1a6a:	ce 01       	movw	r24, r28
    1a6c:	8e 5b       	subi	r24, 0xBE	; 190
    1a6e:	9f 4f       	sbci	r25, 0xFF	; 255
    1a70:	0e 94 9f 1b 	call	0x373e	; 0x373e <_ZN5ValueC1Ei>
    1a74:	61 e2       	ldi	r22, 0x21	; 33
    1a76:	c8 01       	movw	r24, r16
    1a78:	25 dd       	rcall	.-1462   	; 0x14c4 <_ZN11Interpreter3eatE9TokenType>
    1a7a:	81 e4       	ldi	r24, 0x41	; 65
    1a7c:	fe 01       	movw	r30, r28
    1a7e:	ee 5b       	subi	r30, 0xBE	; 190
    1a80:	ff 4f       	sbci	r31, 0xFF	; 255
    1a82:	4a c3       	rjmp	.+1684   	; 0x2118 <_ZN11Interpreter13function_callEv+0x8f4>
    1a84:	e7 e0       	ldi	r30, 0x07	; 7
    1a86:	ee 16       	cp	r14, r30
    1a88:	f1 04       	cpc	r15, r1
    1a8a:	51 f4       	brne	.+20     	; 0x1aa0 <_ZN11Interpreter13function_callEv+0x27c>
    1a8c:	b8 01       	movw	r22, r16
    1a8e:	ce 01       	movw	r24, r28
    1a90:	01 96       	adiw	r24, 0x01	; 1
    1a92:	5e d5       	rcall	.+2748   	; 0x2550 <_ZN11Interpreter4exprEv>
    1a94:	61 e2       	ldi	r22, 0x21	; 33
    1a96:	c8 01       	movw	r24, r16
    1a98:	15 dd       	rcall	.-1494   	; 0x14c4 <_ZN11Interpreter3eatE9TokenType>
    1a9a:	8d 81       	ldd	r24, Y+5	; 0x05
    1a9c:	81 b9       	out	0x01, r24	; 1
    1a9e:	39 c3       	rjmp	.+1650   	; 0x2112 <_ZN11Interpreter13function_callEv+0x8ee>
    1aa0:	fb e0       	ldi	r31, 0x0B	; 11
    1aa2:	ef 16       	cp	r14, r31
    1aa4:	f1 04       	cpc	r15, r1
    1aa6:	51 f4       	brne	.+20     	; 0x1abc <_ZN11Interpreter13function_callEv+0x298>
    1aa8:	b8 01       	movw	r22, r16
    1aaa:	ce 01       	movw	r24, r28
    1aac:	01 96       	adiw	r24, 0x01	; 1
    1aae:	50 d5       	rcall	.+2720   	; 0x2550 <_ZN11Interpreter4exprEv>
    1ab0:	61 e2       	ldi	r22, 0x21	; 33
    1ab2:	c8 01       	movw	r24, r16
    1ab4:	07 dd       	rcall	.-1522   	; 0x14c4 <_ZN11Interpreter3eatE9TokenType>
    1ab6:	8d 81       	ldd	r24, Y+5	; 0x05
    1ab8:	82 b9       	out	0x02, r24	; 2
    1aba:	2b c3       	rjmp	.+1622   	; 0x2112 <_ZN11Interpreter13function_callEv+0x8ee>
    1abc:	2f e0       	ldi	r18, 0x0F	; 15
    1abe:	e2 16       	cp	r14, r18
    1ac0:	f1 04       	cpc	r15, r1
    1ac2:	29 f4       	brne	.+10     	; 0x1ace <_ZN11Interpreter13function_callEv+0x2aa>
    1ac4:	61 e2       	ldi	r22, 0x21	; 33
    1ac6:	c8 01       	movw	r24, r16
    1ac8:	fd dc       	rcall	.-1542   	; 0x14c4 <_ZN11Interpreter3eatE9TokenType>
    1aca:	60 b1       	in	r22, 0x00	; 0
    1acc:	6e c0       	rjmp	.+220    	; 0x1baa <_ZN11Interpreter13function_callEv+0x386>
    1ace:	38 e0       	ldi	r19, 0x08	; 8
    1ad0:	e3 16       	cp	r14, r19
    1ad2:	f1 04       	cpc	r15, r1
    1ad4:	51 f4       	brne	.+20     	; 0x1aea <_ZN11Interpreter13function_callEv+0x2c6>
    1ad6:	b8 01       	movw	r22, r16
    1ad8:	ce 01       	movw	r24, r28
    1ada:	01 96       	adiw	r24, 0x01	; 1
    1adc:	39 d5       	rcall	.+2674   	; 0x2550 <_ZN11Interpreter4exprEv>
    1ade:	61 e2       	ldi	r22, 0x21	; 33
    1ae0:	c8 01       	movw	r24, r16
    1ae2:	f0 dc       	rcall	.-1568   	; 0x14c4 <_ZN11Interpreter3eatE9TokenType>
    1ae4:	8d 81       	ldd	r24, Y+5	; 0x05
    1ae6:	84 b9       	out	0x04, r24	; 4
    1ae8:	14 c3       	rjmp	.+1576   	; 0x2112 <_ZN11Interpreter13function_callEv+0x8ee>
    1aea:	89 e0       	ldi	r24, 0x09	; 9
    1aec:	e8 16       	cp	r14, r24
    1aee:	f1 04       	cpc	r15, r1
    1af0:	51 f4       	brne	.+20     	; 0x1b06 <_ZN11Interpreter13function_callEv+0x2e2>
    1af2:	b8 01       	movw	r22, r16
    1af4:	ce 01       	movw	r24, r28
    1af6:	01 96       	adiw	r24, 0x01	; 1
    1af8:	2b d5       	rcall	.+2646   	; 0x2550 <_ZN11Interpreter4exprEv>
    1afa:	61 e2       	ldi	r22, 0x21	; 33
    1afc:	c8 01       	movw	r24, r16
    1afe:	e2 dc       	rcall	.-1596   	; 0x14c4 <_ZN11Interpreter3eatE9TokenType>
    1b00:	8d 81       	ldd	r24, Y+5	; 0x05
    1b02:	87 b9       	out	0x07, r24	; 7
    1b04:	06 c3       	rjmp	.+1548   	; 0x2112 <_ZN11Interpreter13function_callEv+0x8ee>
    1b06:	9a e0       	ldi	r25, 0x0A	; 10
    1b08:	e9 16       	cp	r14, r25
    1b0a:	f1 04       	cpc	r15, r1
    1b0c:	51 f4       	brne	.+20     	; 0x1b22 <_ZN11Interpreter13function_callEv+0x2fe>
    1b0e:	b8 01       	movw	r22, r16
    1b10:	ce 01       	movw	r24, r28
    1b12:	01 96       	adiw	r24, 0x01	; 1
    1b14:	1d d5       	rcall	.+2618   	; 0x2550 <_ZN11Interpreter4exprEv>
    1b16:	61 e2       	ldi	r22, 0x21	; 33
    1b18:	c8 01       	movw	r24, r16
    1b1a:	d4 dc       	rcall	.-1624   	; 0x14c4 <_ZN11Interpreter3eatE9TokenType>
    1b1c:	8d 81       	ldd	r24, Y+5	; 0x05
    1b1e:	8a b9       	out	0x0a, r24	; 10
    1b20:	f8 c2       	rjmp	.+1520   	; 0x2112 <_ZN11Interpreter13function_callEv+0x8ee>
    1b22:	ec e0       	ldi	r30, 0x0C	; 12
    1b24:	ee 16       	cp	r14, r30
    1b26:	f1 04       	cpc	r15, r1
    1b28:	51 f4       	brne	.+20     	; 0x1b3e <_ZN11Interpreter13function_callEv+0x31a>
    1b2a:	b8 01       	movw	r22, r16
    1b2c:	ce 01       	movw	r24, r28
    1b2e:	01 96       	adiw	r24, 0x01	; 1
    1b30:	0f d5       	rcall	.+2590   	; 0x2550 <_ZN11Interpreter4exprEv>
    1b32:	61 e2       	ldi	r22, 0x21	; 33
    1b34:	c8 01       	movw	r24, r16
    1b36:	c6 dc       	rcall	.-1652   	; 0x14c4 <_ZN11Interpreter3eatE9TokenType>
    1b38:	8d 81       	ldd	r24, Y+5	; 0x05
    1b3a:	85 b9       	out	0x05, r24	; 5
    1b3c:	ea c2       	rjmp	.+1492   	; 0x2112 <_ZN11Interpreter13function_callEv+0x8ee>
    1b3e:	fd e0       	ldi	r31, 0x0D	; 13
    1b40:	ef 16       	cp	r14, r31
    1b42:	f1 04       	cpc	r15, r1
    1b44:	51 f4       	brne	.+20     	; 0x1b5a <_ZN11Interpreter13function_callEv+0x336>
    1b46:	b8 01       	movw	r22, r16
    1b48:	ce 01       	movw	r24, r28
    1b4a:	01 96       	adiw	r24, 0x01	; 1
    1b4c:	01 d5       	rcall	.+2562   	; 0x2550 <_ZN11Interpreter4exprEv>
    1b4e:	61 e2       	ldi	r22, 0x21	; 33
    1b50:	c8 01       	movw	r24, r16
    1b52:	b8 dc       	rcall	.-1680   	; 0x14c4 <_ZN11Interpreter3eatE9TokenType>
    1b54:	8d 81       	ldd	r24, Y+5	; 0x05
    1b56:	88 b9       	out	0x08, r24	; 8
    1b58:	dc c2       	rjmp	.+1464   	; 0x2112 <_ZN11Interpreter13function_callEv+0x8ee>
    1b5a:	2e e0       	ldi	r18, 0x0E	; 14
    1b5c:	e2 16       	cp	r14, r18
    1b5e:	f1 04       	cpc	r15, r1
    1b60:	51 f4       	brne	.+20     	; 0x1b76 <_ZN11Interpreter13function_callEv+0x352>
    1b62:	b8 01       	movw	r22, r16
    1b64:	ce 01       	movw	r24, r28
    1b66:	01 96       	adiw	r24, 0x01	; 1
    1b68:	f3 d4       	rcall	.+2534   	; 0x2550 <_ZN11Interpreter4exprEv>
    1b6a:	61 e2       	ldi	r22, 0x21	; 33
    1b6c:	c8 01       	movw	r24, r16
    1b6e:	aa dc       	rcall	.-1708   	; 0x14c4 <_ZN11Interpreter3eatE9TokenType>
    1b70:	8d 81       	ldd	r24, Y+5	; 0x05
    1b72:	8b b9       	out	0x0b, r24	; 11
    1b74:	ce c2       	rjmp	.+1436   	; 0x2112 <_ZN11Interpreter13function_callEv+0x8ee>
    1b76:	30 e1       	ldi	r19, 0x10	; 16
    1b78:	e3 16       	cp	r14, r19
    1b7a:	f1 04       	cpc	r15, r1
    1b7c:	29 f4       	brne	.+10     	; 0x1b88 <_ZN11Interpreter13function_callEv+0x364>
    1b7e:	61 e2       	ldi	r22, 0x21	; 33
    1b80:	c8 01       	movw	r24, r16
    1b82:	a0 dc       	rcall	.-1728   	; 0x14c4 <_ZN11Interpreter3eatE9TokenType>
    1b84:	63 b1       	in	r22, 0x03	; 3
    1b86:	11 c0       	rjmp	.+34     	; 0x1baa <_ZN11Interpreter13function_callEv+0x386>
    1b88:	81 e1       	ldi	r24, 0x11	; 17
    1b8a:	e8 16       	cp	r14, r24
    1b8c:	f1 04       	cpc	r15, r1
    1b8e:	29 f4       	brne	.+10     	; 0x1b9a <_ZN11Interpreter13function_callEv+0x376>
    1b90:	61 e2       	ldi	r22, 0x21	; 33
    1b92:	c8 01       	movw	r24, r16
    1b94:	97 dc       	rcall	.-1746   	; 0x14c4 <_ZN11Interpreter3eatE9TokenType>
    1b96:	66 b1       	in	r22, 0x06	; 6
    1b98:	08 c0       	rjmp	.+16     	; 0x1baa <_ZN11Interpreter13function_callEv+0x386>
    1b9a:	92 e1       	ldi	r25, 0x12	; 18
    1b9c:	e9 16       	cp	r14, r25
    1b9e:	f1 04       	cpc	r15, r1
    1ba0:	31 f4       	brne	.+12     	; 0x1bae <_ZN11Interpreter13function_callEv+0x38a>
    1ba2:	61 e2       	ldi	r22, 0x21	; 33
    1ba4:	c8 01       	movw	r24, r16
    1ba6:	8e dc       	rcall	.-1764   	; 0x14c4 <_ZN11Interpreter3eatE9TokenType>
    1ba8:	69 b1       	in	r22, 0x09	; 9
    1baa:	70 e0       	ldi	r23, 0x00	; 0
    1bac:	ae c2       	rjmp	.+1372   	; 0x210a <_ZN11Interpreter13function_callEv+0x8e6>
    1bae:	ea e1       	ldi	r30, 0x1A	; 26
    1bb0:	ee 16       	cp	r14, r30
    1bb2:	f1 04       	cpc	r15, r1
    1bb4:	51 f4       	brne	.+20     	; 0x1bca <_ZN11Interpreter13function_callEv+0x3a6>
    1bb6:	61 e2       	ldi	r22, 0x21	; 33
    1bb8:	c8 01       	movw	r24, r16
    1bba:	84 dc       	rcall	.-1784   	; 0x14c4 <_ZN11Interpreter3eatE9TokenType>
    1bbc:	80 e4       	ldi	r24, 0x40	; 64
    1bbe:	80 93 7c 00 	sts	0x007C, r24	; 0x80007c <__TEXT_REGION_LENGTH__+0x7e007c>
    1bc2:	87 e8       	ldi	r24, 0x87	; 135
    1bc4:	80 93 7a 00 	sts	0x007A, r24	; 0x80007a <__TEXT_REGION_LENGTH__+0x7e007a>
    1bc8:	9e c2       	rjmp	.+1340   	; 0x2106 <_ZN11Interpreter13function_callEv+0x8e2>
    1bca:	fc e1       	ldi	r31, 0x1C	; 28
    1bcc:	ef 16       	cp	r14, r31
    1bce:	f1 04       	cpc	r15, r1
    1bd0:	b1 f4       	brne	.+44     	; 0x1bfe <_ZN11Interpreter13function_callEv+0x3da>
    1bd2:	b8 01       	movw	r22, r16
    1bd4:	ce 01       	movw	r24, r28
    1bd6:	01 96       	adiw	r24, 0x01	; 1
    1bd8:	bb d4       	rcall	.+2422   	; 0x2550 <_ZN11Interpreter4exprEv>
    1bda:	8d 81       	ldd	r24, Y+5	; 0x05
    1bdc:	9e 81       	ldd	r25, Y+6	; 0x06
    1bde:	18 16       	cp	r1, r24
    1be0:	19 06       	cpc	r1, r25
    1be2:	34 f4       	brge	.+12     	; 0x1bf0 <_ZN11Interpreter13function_callEv+0x3cc>
    1be4:	8f 3f       	cpi	r24, 0xFF	; 255
    1be6:	91 05       	cpc	r25, r1
    1be8:	2c f0       	brlt	.+10     	; 0x1bf4 <_ZN11Interpreter13function_callEv+0x3d0>
    1bea:	8c e1       	ldi	r24, 0x1C	; 28
    1bec:	90 e0       	ldi	r25, 0x00	; 0
    1bee:	02 c0       	rjmp	.+4      	; 0x1bf4 <_ZN11Interpreter13function_callEv+0x3d0>
    1bf0:	8f e0       	ldi	r24, 0x0F	; 15
    1bf2:	90 e0       	ldi	r25, 0x00	; 0
    1bf4:	10 92 89 00 	sts	0x0089, r1	; 0x800089 <__TEXT_REGION_LENGTH__+0x7e0089>
    1bf8:	80 93 88 00 	sts	0x0088, r24	; 0x800088 <__TEXT_REGION_LENGTH__+0x7e0088>
    1bfc:	19 c0       	rjmp	.+50     	; 0x1c30 <_ZN11Interpreter13function_callEv+0x40c>
    1bfe:	2d e1       	ldi	r18, 0x1D	; 29
    1c00:	e2 16       	cp	r14, r18
    1c02:	f1 04       	cpc	r15, r1
    1c04:	c9 f4       	brne	.+50     	; 0x1c38 <_ZN11Interpreter13function_callEv+0x414>
    1c06:	b8 01       	movw	r22, r16
    1c08:	ce 01       	movw	r24, r28
    1c0a:	01 96       	adiw	r24, 0x01	; 1
    1c0c:	a1 d4       	rcall	.+2370   	; 0x2550 <_ZN11Interpreter4exprEv>
    1c0e:	8d 81       	ldd	r24, Y+5	; 0x05
    1c10:	9e 81       	ldd	r25, Y+6	; 0x06
    1c12:	18 16       	cp	r1, r24
    1c14:	19 06       	cpc	r1, r25
    1c16:	34 f4       	brge	.+12     	; 0x1c24 <_ZN11Interpreter13function_callEv+0x400>
    1c18:	8f 3f       	cpi	r24, 0xFF	; 255
    1c1a:	91 05       	cpc	r25, r1
    1c1c:	2c f0       	brlt	.+10     	; 0x1c28 <_ZN11Interpreter13function_callEv+0x404>
    1c1e:	8c e1       	ldi	r24, 0x1C	; 28
    1c20:	90 e0       	ldi	r25, 0x00	; 0
    1c22:	02 c0       	rjmp	.+4      	; 0x1c28 <_ZN11Interpreter13function_callEv+0x404>
    1c24:	8f e0       	ldi	r24, 0x0F	; 15
    1c26:	90 e0       	ldi	r25, 0x00	; 0
    1c28:	10 92 8b 00 	sts	0x008B, r1	; 0x80008b <__TEXT_REGION_LENGTH__+0x7e008b>
    1c2c:	80 93 8a 00 	sts	0x008A, r24	; 0x80008a <__TEXT_REGION_LENGTH__+0x7e008a>
    1c30:	61 e2       	ldi	r22, 0x21	; 33
    1c32:	c8 01       	movw	r24, r16
    1c34:	47 dc       	rcall	.-1906   	; 0x14c4 <_ZN11Interpreter3eatE9TokenType>
    1c36:	67 c2       	rjmp	.+1230   	; 0x2106 <_ZN11Interpreter13function_callEv+0x8e2>
    1c38:	3b e1       	ldi	r19, 0x1B	; 27
    1c3a:	e3 16       	cp	r14, r19
    1c3c:	f1 04       	cpc	r15, r1
    1c3e:	c9 f5       	brne	.+114    	; 0x1cb2 <_ZN11Interpreter13function_callEv+0x48e>
    1c40:	b8 01       	movw	r22, r16
    1c42:	ce 01       	movw	r24, r28
    1c44:	8e 5b       	subi	r24, 0xBE	; 190
    1c46:	9f 4f       	sbci	r25, 0xFF	; 255
    1c48:	83 d4       	rcall	.+2310   	; 0x2550 <_ZN11Interpreter4exprEv>
    1c4a:	61 e2       	ldi	r22, 0x21	; 33
    1c4c:	c8 01       	movw	r24, r16
    1c4e:	3a dc       	rcall	.-1932   	; 0x14c4 <_ZN11Interpreter3eatE9TokenType>
    1c50:	27 96       	adiw	r28, 0x07	; 7
    1c52:	8f ad       	ldd	r24, Y+63	; 0x3f
    1c54:	27 97       	sbiw	r28, 0x07	; 7
    1c56:	80 64       	ori	r24, 0x40	; 64
    1c58:	80 93 7c 00 	sts	0x007C, r24	; 0x80007c <__TEXT_REGION_LENGTH__+0x7e007c>
    1c5c:	86 e6       	ldi	r24, 0x66	; 102
    1c5e:	9e e0       	ldi	r25, 0x0E	; 14
    1c60:	01 97       	sbiw	r24, 0x01	; 1
    1c62:	f1 f7       	brne	.-4      	; 0x1c60 <_ZN11Interpreter13function_callEv+0x43c>
    1c64:	00 00       	nop
    1c66:	80 91 7a 00 	lds	r24, 0x007A	; 0x80007a <__TEXT_REGION_LENGTH__+0x7e007a>
    1c6a:	80 64       	ori	r24, 0x40	; 64
    1c6c:	80 93 7a 00 	sts	0x007A, r24	; 0x80007a <__TEXT_REGION_LENGTH__+0x7e007a>
    1c70:	80 91 7a 00 	lds	r24, 0x007A	; 0x80007a <__TEXT_REGION_LENGTH__+0x7e007a>
    1c74:	86 fd       	sbrc	r24, 6
    1c76:	fc cf       	rjmp	.-8      	; 0x1c70 <_ZN11Interpreter13function_callEv+0x44c>
    1c78:	60 91 78 00 	lds	r22, 0x0078	; 0x800078 <__TEXT_REGION_LENGTH__+0x7e0078>
    1c7c:	70 91 79 00 	lds	r23, 0x0079	; 0x800079 <__TEXT_REGION_LENGTH__+0x7e0079>
    1c80:	07 2e       	mov	r0, r23
    1c82:	00 0c       	add	r0, r0
    1c84:	88 0b       	sbc	r24, r24
    1c86:	99 0b       	sbc	r25, r25
    1c88:	0e 94 99 29 	call	0x5332	; 0x5332 <__floatsisf>
    1c8c:	20 e0       	ldi	r18, 0x00	; 0
    1c8e:	30 ec       	ldi	r19, 0xC0	; 192
    1c90:	4f e7       	ldi	r20, 0x7F	; 127
    1c92:	54 e4       	ldi	r21, 0x44	; 68
    1c94:	0e 94 fe 28 	call	0x51fc	; 0x51fc <__divsf3>
    1c98:	20 e0       	ldi	r18, 0x00	; 0
    1c9a:	30 e0       	ldi	r19, 0x00	; 0
    1c9c:	40 ea       	ldi	r20, 0xA0	; 160
    1c9e:	50 e4       	ldi	r21, 0x40	; 64
    1ca0:	0e 94 4d 2a 	call	0x549a	; 0x549a <__mulsf3>
    1ca4:	ab 01       	movw	r20, r22
    1ca6:	bc 01       	movw	r22, r24
    1ca8:	ce 01       	movw	r24, r28
    1caa:	01 96       	adiw	r24, 0x01	; 1
    1cac:	0e 94 ea 1b 	call	0x37d4	; 0x37d4 <_ZN5ValueC1Ed>
    1cb0:	30 c2       	rjmp	.+1120   	; 0x2112 <_ZN11Interpreter13function_callEv+0x8ee>
    1cb2:	92 e2       	ldi	r25, 0x22	; 34
    1cb4:	e9 16       	cp	r14, r25
    1cb6:	f1 04       	cpc	r15, r1
    1cb8:	09 f5       	brne	.+66     	; 0x1cfc <_ZN11Interpreter13function_callEv+0x4d8>
    1cba:	b8 01       	movw	r22, r16
    1cbc:	ce 01       	movw	r24, r28
    1cbe:	8e 5b       	subi	r24, 0xBE	; 190
    1cc0:	9f 4f       	sbci	r25, 0xFF	; 255
    1cc2:	46 d4       	rcall	.+2188   	; 0x2550 <_ZN11Interpreter4exprEv>
    1cc4:	61 e2       	ldi	r22, 0x21	; 33
    1cc6:	c8 01       	movw	r24, r16
    1cc8:	fd db       	rcall	.-2054   	; 0x14c4 <_ZN11Interpreter3eatE9TokenType>
    1cca:	27 96       	adiw	r28, 0x07	; 7
    1ccc:	8f ad       	ldd	r24, Y+63	; 0x3f
    1cce:	27 97       	sbiw	r28, 0x07	; 7
    1cd0:	80 64       	ori	r24, 0x40	; 64
    1cd2:	80 93 7c 00 	sts	0x007C, r24	; 0x80007c <__TEXT_REGION_LENGTH__+0x7e007c>
    1cd6:	e6 e6       	ldi	r30, 0x66	; 102
    1cd8:	fe e0       	ldi	r31, 0x0E	; 14
    1cda:	31 97       	sbiw	r30, 0x01	; 1
    1cdc:	f1 f7       	brne	.-4      	; 0x1cda <_ZN11Interpreter13function_callEv+0x4b6>
    1cde:	00 00       	nop
    1ce0:	80 91 7a 00 	lds	r24, 0x007A	; 0x80007a <__TEXT_REGION_LENGTH__+0x7e007a>
    1ce4:	80 64       	ori	r24, 0x40	; 64
    1ce6:	80 93 7a 00 	sts	0x007A, r24	; 0x80007a <__TEXT_REGION_LENGTH__+0x7e007a>
    1cea:	80 91 7a 00 	lds	r24, 0x007A	; 0x80007a <__TEXT_REGION_LENGTH__+0x7e007a>
    1cee:	86 fd       	sbrc	r24, 6
    1cf0:	fc cf       	rjmp	.-8      	; 0x1cea <_ZN11Interpreter13function_callEv+0x4c6>
    1cf2:	60 91 78 00 	lds	r22, 0x0078	; 0x800078 <__TEXT_REGION_LENGTH__+0x7e0078>
    1cf6:	70 91 79 00 	lds	r23, 0x0079	; 0x800079 <__TEXT_REGION_LENGTH__+0x7e0079>
    1cfa:	07 c2       	rjmp	.+1038   	; 0x210a <_ZN11Interpreter13function_callEv+0x8e6>
    1cfc:	f3 e1       	ldi	r31, 0x13	; 19
    1cfe:	ef 16       	cp	r14, r31
    1d00:	f1 04       	cpc	r15, r1
    1d02:	71 f4       	brne	.+28     	; 0x1d20 <_ZN11Interpreter13function_callEv+0x4fc>
    1d04:	b8 01       	movw	r22, r16
    1d06:	ce 01       	movw	r24, r28
    1d08:	01 96       	adiw	r24, 0x01	; 1
    1d0a:	22 d4       	rcall	.+2116   	; 0x2550 <_ZN11Interpreter4exprEv>
    1d0c:	61 e2       	ldi	r22, 0x21	; 33
    1d0e:	c8 01       	movw	r24, r16
    1d10:	d9 db       	rcall	.-2126   	; 0x14c4 <_ZN11Interpreter3eatE9TokenType>
    1d12:	ce 01       	movw	r24, r28
    1d14:	01 96       	adiw	r24, 0x01	; 1
    1d16:	0e 94 8e 27 	call	0x4f1c	; 0x4f1c <_ZN5Value9ToBooleanEv>
    1d1a:	0e 94 b6 01 	call	0x36c	; 0x36c <_Z7InitLCDb>
    1d1e:	f3 c1       	rjmp	.+998    	; 0x2106 <_ZN11Interpreter13function_callEv+0x8e2>
    1d20:	24 e1       	ldi	r18, 0x14	; 20
    1d22:	e2 16       	cp	r14, r18
    1d24:	f1 04       	cpc	r15, r1
    1d26:	c1 f4       	brne	.+48     	; 0x1d58 <_ZN11Interpreter13function_callEv+0x534>
    1d28:	b8 01       	movw	r22, r16
    1d2a:	ce 01       	movw	r24, r28
    1d2c:	8e 5b       	subi	r24, 0xBE	; 190
    1d2e:	9f 4f       	sbci	r25, 0xFF	; 255
    1d30:	0f d4       	rcall	.+2078   	; 0x2550 <_ZN11Interpreter4exprEv>
    1d32:	6a e1       	ldi	r22, 0x1A	; 26
    1d34:	c8 01       	movw	r24, r16
    1d36:	c6 db       	rcall	.-2164   	; 0x14c4 <_ZN11Interpreter3eatE9TokenType>
    1d38:	b8 01       	movw	r22, r16
    1d3a:	ce 01       	movw	r24, r28
    1d3c:	01 96       	adiw	r24, 0x01	; 1
    1d3e:	08 d4       	rcall	.+2064   	; 0x2550 <_ZN11Interpreter4exprEv>
    1d40:	61 e2       	ldi	r22, 0x21	; 33
    1d42:	c8 01       	movw	r24, r16
    1d44:	bf db       	rcall	.-2178   	; 0x14c4 <_ZN11Interpreter3eatE9TokenType>
    1d46:	6d 81       	ldd	r22, Y+5	; 0x05
    1d48:	7e 81       	ldd	r23, Y+6	; 0x06
    1d4a:	28 96       	adiw	r28, 0x08	; 8
    1d4c:	8e ad       	ldd	r24, Y+62	; 0x3e
    1d4e:	9f ad       	ldd	r25, Y+63	; 0x3f
    1d50:	28 97       	sbiw	r28, 0x08	; 8
    1d52:	0e 94 eb 01 	call	0x3d6	; 0x3d6 <_Z9SetLCD_XYii>
    1d56:	d7 c1       	rjmp	.+942    	; 0x2106 <_ZN11Interpreter13function_callEv+0x8e2>
    1d58:	35 e1       	ldi	r19, 0x15	; 21
    1d5a:	e3 16       	cp	r14, r19
    1d5c:	f1 04       	cpc	r15, r1
    1d5e:	31 f4       	brne	.+12     	; 0x1d6c <_ZN11Interpreter13function_callEv+0x548>
    1d60:	61 e2       	ldi	r22, 0x21	; 33
    1d62:	c8 01       	movw	r24, r16
    1d64:	af db       	rcall	.-2210   	; 0x14c4 <_ZN11Interpreter3eatE9TokenType>
    1d66:	0e 94 e8 01 	call	0x3d0	; 0x3d0 <_Z8ClearLCDv>
    1d6a:	cd c1       	rjmp	.+922    	; 0x2106 <_ZN11Interpreter13function_callEv+0x8e2>
    1d6c:	86 e1       	ldi	r24, 0x16	; 22
    1d6e:	e8 16       	cp	r14, r24
    1d70:	f1 04       	cpc	r15, r1
    1d72:	91 f4       	brne	.+36     	; 0x1d98 <_ZN11Interpreter13function_callEv+0x574>
    1d74:	b8 01       	movw	r22, r16
    1d76:	ce 01       	movw	r24, r28
    1d78:	01 96       	adiw	r24, 0x01	; 1
    1d7a:	ea d3       	rcall	.+2004   	; 0x2550 <_ZN11Interpreter4exprEv>
    1d7c:	61 e2       	ldi	r22, 0x21	; 33
    1d7e:	c8 01       	movw	r24, r16
    1d80:	a1 db       	rcall	.-2238   	; 0x14c4 <_ZN11Interpreter3eatE9TokenType>
    1d82:	ce 01       	movw	r24, r28
    1d84:	01 96       	adiw	r24, 0x01	; 1
    1d86:	0e 94 f6 27 	call	0x4fec	; 0x4fec <_ZN5Value8ToStringEv>
    1d8a:	0e 94 2c 19 	call	0x3258	; 0x3258 <_Z11send_stringPc>
    1d8e:	82 e3       	ldi	r24, 0x32	; 50
    1d90:	93 e0       	ldi	r25, 0x03	; 3
    1d92:	0e 94 2c 19 	call	0x3258	; 0x3258 <_Z11send_stringPc>
    1d96:	b7 c1       	rjmp	.+878    	; 0x2106 <_ZN11Interpreter13function_callEv+0x8e2>
    1d98:	97 e1       	ldi	r25, 0x17	; 23
    1d9a:	e9 16       	cp	r14, r25
    1d9c:	f1 04       	cpc	r15, r1
    1d9e:	59 f4       	brne	.+22     	; 0x1db6 <_ZN11Interpreter13function_callEv+0x592>
    1da0:	61 e2       	ldi	r22, 0x21	; 33
    1da2:	c8 01       	movw	r24, r16
    1da4:	8f db       	rcall	.-2274   	; 0x14c4 <_ZN11Interpreter3eatE9TokenType>
    1da6:	0e 5d       	subi	r16, 0xDE	; 222
    1da8:	18 4f       	sbci	r17, 0xF8	; 248
    1daa:	62 e3       	ldi	r22, 0x32	; 50
    1dac:	70 e0       	ldi	r23, 0x00	; 0
    1dae:	c8 01       	movw	r24, r16
    1db0:	0e 94 38 19 	call	0x3270	; 0x3270 <_Z10get_stringPcj>
    1db4:	dc c0       	rjmp	.+440    	; 0x1f6e <_ZN11Interpreter13function_callEv+0x74a>
    1db6:	e8 e1       	ldi	r30, 0x18	; 24
    1db8:	ee 16       	cp	r14, r30
    1dba:	f1 04       	cpc	r15, r1
    1dbc:	71 f4       	brne	.+28     	; 0x1dda <_ZN11Interpreter13function_callEv+0x5b6>
    1dbe:	b8 01       	movw	r22, r16
    1dc0:	ce 01       	movw	r24, r28
    1dc2:	8e 5b       	subi	r24, 0xBE	; 190
    1dc4:	9f 4f       	sbci	r25, 0xFF	; 255
    1dc6:	c4 d3       	rcall	.+1928   	; 0x2550 <_ZN11Interpreter4exprEv>
    1dc8:	61 e2       	ldi	r22, 0x21	; 33
    1dca:	c8 01       	movw	r24, r16
    1dcc:	7b db       	rcall	.-2314   	; 0x14c4 <_ZN11Interpreter3eatE9TokenType>
    1dce:	27 96       	adiw	r28, 0x07	; 7
    1dd0:	8f ad       	ldd	r24, Y+63	; 0x3f
    1dd2:	27 97       	sbiw	r28, 0x07	; 7
    1dd4:	0e 94 6c 19 	call	0x32d8	; 0x32d8 <_Z9send_bytec>
    1dd8:	96 c1       	rjmp	.+812    	; 0x2106 <_ZN11Interpreter13function_callEv+0x8e2>
    1dda:	f9 e1       	ldi	r31, 0x19	; 25
    1ddc:	ef 16       	cp	r14, r31
    1dde:	f1 04       	cpc	r15, r1
    1de0:	31 f4       	brne	.+12     	; 0x1dee <_ZN11Interpreter13function_callEv+0x5ca>
    1de2:	61 e2       	ldi	r22, 0x21	; 33
    1de4:	c8 01       	movw	r24, r16
    1de6:	6e db       	rcall	.-2340   	; 0x14c4 <_ZN11Interpreter3eatE9TokenType>
    1de8:	0e 94 54 19 	call	0x32a8	; 0x32a8 <_Z8get_bytev>
    1dec:	40 c1       	rjmp	.+640    	; 0x206e <_ZN11Interpreter13function_callEv+0x84a>
    1dee:	27 e2       	ldi	r18, 0x27	; 39
    1df0:	e2 16       	cp	r14, r18
    1df2:	f1 04       	cpc	r15, r1
    1df4:	d9 f4       	brne	.+54     	; 0x1e2c <_ZN11Interpreter13function_callEv+0x608>
    1df6:	78 01       	movw	r14, r16
    1df8:	31 e7       	ldi	r19, 0x71	; 113
    1dfa:	e3 1a       	sub	r14, r19
    1dfc:	38 ef       	ldi	r19, 0xF8	; 248
    1dfe:	f3 0a       	sbc	r15, r19
    1e00:	b8 01       	movw	r22, r16
    1e02:	ce 01       	movw	r24, r28
    1e04:	01 96       	adiw	r24, 0x01	; 1
    1e06:	a4 d3       	rcall	.+1864   	; 0x2550 <_ZN11Interpreter4exprEv>
    1e08:	ce 01       	movw	r24, r28
    1e0a:	01 96       	adiw	r24, 0x01	; 1
    1e0c:	0e 94 b4 27 	call	0x4f68	; 0x4f68 <_ZN5Value5ToIntEv>
    1e10:	0e 94 6c 19 	call	0x32d8	; 0x32d8 <_Z9send_bytec>
    1e14:	f7 01       	movw	r30, r14
    1e16:	80 81       	ld	r24, Z
    1e18:	8a 31       	cpi	r24, 0x1A	; 26
    1e1a:	19 f4       	brne	.+6      	; 0x1e22 <_ZN11Interpreter13function_callEv+0x5fe>
    1e1c:	6a e1       	ldi	r22, 0x1A	; 26
    1e1e:	c8 01       	movw	r24, r16
    1e20:	51 db       	rcall	.-2398   	; 0x14c4 <_ZN11Interpreter3eatE9TokenType>
    1e22:	f7 01       	movw	r30, r14
    1e24:	80 81       	ld	r24, Z
    1e26:	81 32       	cpi	r24, 0x21	; 33
    1e28:	59 f7       	brne	.-42     	; 0x1e00 <_ZN11Interpreter13function_callEv+0x5dc>
    1e2a:	02 cf       	rjmp	.-508    	; 0x1c30 <_ZN11Interpreter13function_callEv+0x40c>
    1e2c:	f8 e2       	ldi	r31, 0x28	; 40
    1e2e:	ef 16       	cp	r14, r31
    1e30:	f1 04       	cpc	r15, r1
    1e32:	41 f5       	brne	.+80     	; 0x1e84 <_ZN11Interpreter13function_callEv+0x660>
    1e34:	b8 01       	movw	r22, r16
    1e36:	ce 01       	movw	r24, r28
    1e38:	01 96       	adiw	r24, 0x01	; 1
    1e3a:	8a d3       	rcall	.+1812   	; 0x2550 <_ZN11Interpreter4exprEv>
    1e3c:	ce 01       	movw	r24, r28
    1e3e:	01 96       	adiw	r24, 0x01	; 1
    1e40:	0e 94 b4 27 	call	0x4f68	; 0x4f68 <_ZN5Value5ToIntEv>
    1e44:	7c 01       	movw	r14, r24
    1e46:	61 e2       	ldi	r22, 0x21	; 33
    1e48:	c8 01       	movw	r24, r16
    1e4a:	3c db       	rcall	.-2440   	; 0x14c4 <_ZN11Interpreter3eatE9TokenType>
    1e4c:	c7 01       	movw	r24, r14
    1e4e:	0e 94 0a 1a 	call	0x3414	; 0x3414 <_Z9grabbytesi>
    1e52:	a7 01       	movw	r20, r14
    1e54:	60 e0       	ldi	r22, 0x00	; 0
    1e56:	ce 01       	movw	r24, r28
    1e58:	01 96       	adiw	r24, 0x01	; 1
    1e5a:	0e 94 f2 1b 	call	0x37e4	; 0x37e4 <_ZN5ValueC1E4TYPEi>
    1e5e:	00 e0       	ldi	r16, 0x00	; 0
    1e60:	10 e0       	ldi	r17, 0x00	; 0
    1e62:	0e 15       	cp	r16, r14
    1e64:	1f 05       	cpc	r17, r15
    1e66:	0c f0       	brlt	.+2      	; 0x1e6a <_ZN11Interpreter13function_callEv+0x646>
    1e68:	54 c1       	rjmp	.+680    	; 0x2112 <_ZN11Interpreter13function_callEv+0x8ee>
    1e6a:	c8 01       	movw	r24, r16
    1e6c:	0e 94 53 1a 	call	0x34a6	; 0x34a6 <_Z11indexRxBytei>
    1e70:	48 2f       	mov	r20, r24
    1e72:	50 e0       	ldi	r21, 0x00	; 0
    1e74:	b7 01       	movw	r22, r14
    1e76:	ce 01       	movw	r24, r28
    1e78:	01 96       	adiw	r24, 0x01	; 1
    1e7a:	0e 94 71 28 	call	0x50e2	; 0x50e2 <_ZN5Value12update_arrayEii>
    1e7e:	0f 5f       	subi	r16, 0xFF	; 255
    1e80:	1f 4f       	sbci	r17, 0xFF	; 255
    1e82:	ef cf       	rjmp	.-34     	; 0x1e62 <_ZN11Interpreter13function_callEv+0x63e>
    1e84:	29 e2       	ldi	r18, 0x29	; 41
    1e86:	e2 16       	cp	r14, r18
    1e88:	f1 04       	cpc	r15, r1
    1e8a:	81 f4       	brne	.+32     	; 0x1eac <_ZN11Interpreter13function_callEv+0x688>
    1e8c:	b8 01       	movw	r22, r16
    1e8e:	ce 01       	movw	r24, r28
    1e90:	8e 5b       	subi	r24, 0xBE	; 190
    1e92:	9f 4f       	sbci	r25, 0xFF	; 255
    1e94:	5d d3       	rcall	.+1722   	; 0x2550 <_ZN11Interpreter4exprEv>
    1e96:	61 e2       	ldi	r22, 0x21	; 33
    1e98:	c8 01       	movw	r24, r16
    1e9a:	14 db       	rcall	.-2520   	; 0x14c4 <_ZN11Interpreter3eatE9TokenType>
    1e9c:	ce 01       	movw	r24, r28
    1e9e:	8e 5b       	subi	r24, 0xBE	; 190
    1ea0:	9f 4f       	sbci	r25, 0xFF	; 255
    1ea2:	0e 94 b4 27 	call	0x4f68	; 0x4f68 <_ZN5Value5ToIntEv>
    1ea6:	0e 94 53 1a 	call	0x34a6	; 0x34a6 <_Z11indexRxBytei>
    1eaa:	e1 c0       	rjmp	.+450    	; 0x206e <_ZN11Interpreter13function_callEv+0x84a>
    1eac:	3a e2       	ldi	r19, 0x2A	; 42
    1eae:	e3 16       	cp	r14, r19
    1eb0:	f1 04       	cpc	r15, r1
    1eb2:	31 f4       	brne	.+12     	; 0x1ec0 <_ZN11Interpreter13function_callEv+0x69c>
    1eb4:	61 e2       	ldi	r22, 0x21	; 33
    1eb6:	c8 01       	movw	r24, r16
    1eb8:	05 db       	rcall	.-2550   	; 0x14c4 <_ZN11Interpreter3eatE9TokenType>
    1eba:	0e 94 5c 1a 	call	0x34b8	; 0x34b8 <_Z5resetv>
    1ebe:	23 c1       	rjmp	.+582    	; 0x2106 <_ZN11Interpreter13function_callEv+0x8e2>
    1ec0:	80 e2       	ldi	r24, 0x20	; 32
    1ec2:	e8 16       	cp	r14, r24
    1ec4:	f1 04       	cpc	r15, r1
    1ec6:	31 f4       	brne	.+12     	; 0x1ed4 <_ZN11Interpreter13function_callEv+0x6b0>
    1ec8:	61 e2       	ldi	r22, 0x21	; 33
    1eca:	c8 01       	movw	r24, r16
    1ecc:	fb da       	rcall	.-2570   	; 0x14c4 <_ZN11Interpreter3eatE9TokenType>
    1ece:	0e 94 73 19 	call	0x32e6	; 0x32e6 <_Z10readRxlinev>
    1ed2:	e6 c0       	rjmp	.+460    	; 0x20a0 <_ZN11Interpreter13function_callEv+0x87c>
    1ed4:	91 e2       	ldi	r25, 0x21	; 33
    1ed6:	e9 16       	cp	r14, r25
    1ed8:	f1 04       	cpc	r15, r1
    1eda:	c1 f4       	brne	.+48     	; 0x1f0c <_ZN11Interpreter13function_callEv+0x6e8>
    1edc:	b8 01       	movw	r22, r16
    1ede:	ce 01       	movw	r24, r28
    1ee0:	01 96       	adiw	r24, 0x01	; 1
    1ee2:	36 d3       	rcall	.+1644   	; 0x2550 <_ZN11Interpreter4exprEv>
    1ee4:	8d 81       	ldd	r24, Y+5	; 0x05
    1ee6:	9e 81       	ldd	r25, Y+6	; 0x06
    1ee8:	80 36       	cpi	r24, 0x60	; 96
    1eea:	e9 e0       	ldi	r30, 0x09	; 9
    1eec:	9e 07       	cpc	r25, r30
    1eee:	29 f4       	brne	.+10     	; 0x1efa <_ZN11Interpreter13function_callEv+0x6d6>
    1ef0:	81 e0       	ldi	r24, 0x01	; 1
    1ef2:	80 93 c5 00 	sts	0x00C5, r24	; 0x8000c5 <__TEXT_REGION_LENGTH__+0x7e00c5>
    1ef6:	8f e7       	ldi	r24, 0x7F	; 127
    1ef8:	06 c0       	rjmp	.+12     	; 0x1f06 <_ZN11Interpreter13function_callEv+0x6e2>
    1efa:	80 38       	cpi	r24, 0x80	; 128
    1efc:	95 42       	sbci	r25, 0x25	; 37
    1efe:	11 f4       	brne	.+4      	; 0x1f04 <_ZN11Interpreter13function_callEv+0x6e0>
    1f00:	8f e5       	ldi	r24, 0x5F	; 95
    1f02:	01 c0       	rjmp	.+2      	; 0x1f06 <_ZN11Interpreter13function_callEv+0x6e2>
    1f04:	87 e0       	ldi	r24, 0x07	; 7
    1f06:	80 93 c4 00 	sts	0x00C4, r24	; 0x8000c4 <__TEXT_REGION_LENGTH__+0x7e00c4>
    1f0a:	92 ce       	rjmp	.-732    	; 0x1c30 <_ZN11Interpreter13function_callEv+0x40c>
    1f0c:	2f e1       	ldi	r18, 0x1F	; 31
    1f0e:	e2 16       	cp	r14, r18
    1f10:	f1 04       	cpc	r15, r1
    1f12:	49 f4       	brne	.+18     	; 0x1f26 <_ZN11Interpreter13function_callEv+0x702>
    1f14:	61 e2       	ldi	r22, 0x21	; 33
    1f16:	c8 01       	movw	r24, r16
    1f18:	d5 da       	rcall	.-2646   	; 0x14c4 <_ZN11Interpreter3eatE9TokenType>
    1f1a:	80 91 c1 00 	lds	r24, 0x00C1	; 0x8000c1 <__TEXT_REGION_LENGTH__+0x7e00c1>
    1f1e:	80 68       	ori	r24, 0x80	; 128
    1f20:	80 93 c1 00 	sts	0x00C1, r24	; 0x8000c1 <__TEXT_REGION_LENGTH__+0x7e00c1>
    1f24:	ef c0       	rjmp	.+478    	; 0x2104 <_ZN11Interpreter13function_callEv+0x8e0>
    1f26:	35 e3       	ldi	r19, 0x35	; 53
    1f28:	e3 16       	cp	r14, r19
    1f2a:	f1 04       	cpc	r15, r1
    1f2c:	91 f4       	brne	.+36     	; 0x1f52 <_ZN11Interpreter13function_callEv+0x72e>
    1f2e:	b8 01       	movw	r22, r16
    1f30:	ce 01       	movw	r24, r28
    1f32:	01 96       	adiw	r24, 0x01	; 1
    1f34:	0d d3       	rcall	.+1562   	; 0x2550 <_ZN11Interpreter4exprEv>
    1f36:	61 e2       	ldi	r22, 0x21	; 33
    1f38:	c8 01       	movw	r24, r16
    1f3a:	c4 da       	rcall	.-2680   	; 0x14c4 <_ZN11Interpreter3eatE9TokenType>
    1f3c:	ce 01       	movw	r24, r28
    1f3e:	01 96       	adiw	r24, 0x01	; 1
    1f40:	0e 94 f6 27 	call	0x4fec	; 0x4fec <_ZN5Value8ToStringEv>
    1f44:	0e 94 65 1a 	call	0x34ca	; 0x34ca <_Z12send_string1Pc>
    1f48:	82 e3       	ldi	r24, 0x32	; 50
    1f4a:	93 e0       	ldi	r25, 0x03	; 3
    1f4c:	0e 94 65 1a 	call	0x34ca	; 0x34ca <_Z12send_string1Pc>
    1f50:	da c0       	rjmp	.+436    	; 0x2106 <_ZN11Interpreter13function_callEv+0x8e2>
    1f52:	8b e2       	ldi	r24, 0x2B	; 43
    1f54:	e8 16       	cp	r14, r24
    1f56:	f1 04       	cpc	r15, r1
    1f58:	81 f4       	brne	.+32     	; 0x1f7a <_ZN11Interpreter13function_callEv+0x756>
    1f5a:	61 e2       	ldi	r22, 0x21	; 33
    1f5c:	c8 01       	movw	r24, r16
    1f5e:	b2 da       	rcall	.-2716   	; 0x14c4 <_ZN11Interpreter3eatE9TokenType>
    1f60:	0c 5a       	subi	r16, 0xAC	; 172
    1f62:	18 4f       	sbci	r17, 0xF8	; 248
    1f64:	62 e3       	ldi	r22, 0x32	; 50
    1f66:	70 e0       	ldi	r23, 0x00	; 0
    1f68:	c8 01       	movw	r24, r16
    1f6a:	0e 94 71 1a 	call	0x34e2	; 0x34e2 <_Z11get_string1Pcj>
    1f6e:	b8 01       	movw	r22, r16
    1f70:	ce 01       	movw	r24, r28
    1f72:	01 96       	adiw	r24, 0x01	; 1
    1f74:	0e 94 d7 1b 	call	0x37ae	; 0x37ae <_ZN5ValueC1EPKc>
    1f78:	cc c0       	rjmp	.+408    	; 0x2112 <_ZN11Interpreter13function_callEv+0x8ee>
    1f7a:	9c e2       	ldi	r25, 0x2C	; 44
    1f7c:	e9 16       	cp	r14, r25
    1f7e:	f1 04       	cpc	r15, r1
    1f80:	71 f4       	brne	.+28     	; 0x1f9e <_ZN11Interpreter13function_callEv+0x77a>
    1f82:	b8 01       	movw	r22, r16
    1f84:	ce 01       	movw	r24, r28
    1f86:	8e 5b       	subi	r24, 0xBE	; 190
    1f88:	9f 4f       	sbci	r25, 0xFF	; 255
    1f8a:	e2 d2       	rcall	.+1476   	; 0x2550 <_ZN11Interpreter4exprEv>
    1f8c:	61 e2       	ldi	r22, 0x21	; 33
    1f8e:	c8 01       	movw	r24, r16
    1f90:	99 da       	rcall	.-2766   	; 0x14c4 <_ZN11Interpreter3eatE9TokenType>
    1f92:	27 96       	adiw	r28, 0x07	; 7
    1f94:	8f ad       	ldd	r24, Y+63	; 0x3f
    1f96:	27 97       	sbiw	r28, 0x07	; 7
    1f98:	0e 94 a5 1a 	call	0x354a	; 0x354a <_Z10send_byte1c>
    1f9c:	b4 c0       	rjmp	.+360    	; 0x2106 <_ZN11Interpreter13function_callEv+0x8e2>
    1f9e:	ed e2       	ldi	r30, 0x2D	; 45
    1fa0:	ee 16       	cp	r14, r30
    1fa2:	f1 04       	cpc	r15, r1
    1fa4:	31 f4       	brne	.+12     	; 0x1fb2 <_ZN11Interpreter13function_callEv+0x78e>
    1fa6:	61 e2       	ldi	r22, 0x21	; 33
    1fa8:	c8 01       	movw	r24, r16
    1faa:	8c da       	rcall	.-2792   	; 0x14c4 <_ZN11Interpreter3eatE9TokenType>
    1fac:	0e 94 8d 1a 	call	0x351a	; 0x351a <_Z9get_byte1v>
    1fb0:	5e c0       	rjmp	.+188    	; 0x206e <_ZN11Interpreter13function_callEv+0x84a>
    1fb2:	f1 e3       	ldi	r31, 0x31	; 49
    1fb4:	ef 16       	cp	r14, r31
    1fb6:	f1 04       	cpc	r15, r1
    1fb8:	d9 f4       	brne	.+54     	; 0x1ff0 <_ZN11Interpreter13function_callEv+0x7cc>
    1fba:	78 01       	movw	r14, r16
    1fbc:	21 e7       	ldi	r18, 0x71	; 113
    1fbe:	e2 1a       	sub	r14, r18
    1fc0:	28 ef       	ldi	r18, 0xF8	; 248
    1fc2:	f2 0a       	sbc	r15, r18
    1fc4:	b8 01       	movw	r22, r16
    1fc6:	ce 01       	movw	r24, r28
    1fc8:	01 96       	adiw	r24, 0x01	; 1
    1fca:	c2 d2       	rcall	.+1412   	; 0x2550 <_ZN11Interpreter4exprEv>
    1fcc:	ce 01       	movw	r24, r28
    1fce:	01 96       	adiw	r24, 0x01	; 1
    1fd0:	0e 94 b4 27 	call	0x4f68	; 0x4f68 <_ZN5Value5ToIntEv>
    1fd4:	0e 94 a5 1a 	call	0x354a	; 0x354a <_Z10send_byte1c>
    1fd8:	f7 01       	movw	r30, r14
    1fda:	80 81       	ld	r24, Z
    1fdc:	8a 31       	cpi	r24, 0x1A	; 26
    1fde:	19 f4       	brne	.+6      	; 0x1fe6 <_ZN11Interpreter13function_callEv+0x7c2>
    1fe0:	6a e1       	ldi	r22, 0x1A	; 26
    1fe2:	c8 01       	movw	r24, r16
    1fe4:	6f da       	rcall	.-2850   	; 0x14c4 <_ZN11Interpreter3eatE9TokenType>
    1fe6:	f7 01       	movw	r30, r14
    1fe8:	80 81       	ld	r24, Z
    1fea:	81 32       	cpi	r24, 0x21	; 33
    1fec:	59 f7       	brne	.-42     	; 0x1fc4 <_ZN11Interpreter13function_callEv+0x7a0>
    1fee:	20 ce       	rjmp	.-960    	; 0x1c30 <_ZN11Interpreter13function_callEv+0x40c>
    1ff0:	f2 e3       	ldi	r31, 0x32	; 50
    1ff2:	ef 16       	cp	r14, r31
    1ff4:	f1 04       	cpc	r15, r1
    1ff6:	41 f5       	brne	.+80     	; 0x2048 <_ZN11Interpreter13function_callEv+0x824>
    1ff8:	b8 01       	movw	r22, r16
    1ffa:	ce 01       	movw	r24, r28
    1ffc:	01 96       	adiw	r24, 0x01	; 1
    1ffe:	a8 d2       	rcall	.+1360   	; 0x2550 <_ZN11Interpreter4exprEv>
    2000:	ce 01       	movw	r24, r28
    2002:	01 96       	adiw	r24, 0x01	; 1
    2004:	0e 94 b4 27 	call	0x4f68	; 0x4f68 <_ZN5Value5ToIntEv>
    2008:	7c 01       	movw	r14, r24
    200a:	61 e2       	ldi	r22, 0x21	; 33
    200c:	c8 01       	movw	r24, r16
    200e:	5a da       	rcall	.-2892   	; 0x14c4 <_ZN11Interpreter3eatE9TokenType>
    2010:	c7 01       	movw	r24, r14
    2012:	0e 94 43 1b 	call	0x3686	; 0x3686 <_Z10grabbytes1i>
    2016:	a7 01       	movw	r20, r14
    2018:	60 e0       	ldi	r22, 0x00	; 0
    201a:	ce 01       	movw	r24, r28
    201c:	01 96       	adiw	r24, 0x01	; 1
    201e:	0e 94 f2 1b 	call	0x37e4	; 0x37e4 <_ZN5ValueC1E4TYPEi>
    2022:	00 e0       	ldi	r16, 0x00	; 0
    2024:	10 e0       	ldi	r17, 0x00	; 0
    2026:	0e 15       	cp	r16, r14
    2028:	1f 05       	cpc	r17, r15
    202a:	0c f0       	brlt	.+2      	; 0x202e <_ZN11Interpreter13function_callEv+0x80a>
    202c:	72 c0       	rjmp	.+228    	; 0x2112 <_ZN11Interpreter13function_callEv+0x8ee>
    202e:	c8 01       	movw	r24, r16
    2030:	0e 94 8c 1b 	call	0x3718	; 0x3718 <_Z12indexRxByte1i>
    2034:	48 2f       	mov	r20, r24
    2036:	50 e0       	ldi	r21, 0x00	; 0
    2038:	b7 01       	movw	r22, r14
    203a:	ce 01       	movw	r24, r28
    203c:	01 96       	adiw	r24, 0x01	; 1
    203e:	0e 94 71 28 	call	0x50e2	; 0x50e2 <_ZN5Value12update_arrayEii>
    2042:	0f 5f       	subi	r16, 0xFF	; 255
    2044:	1f 4f       	sbci	r17, 0xFF	; 255
    2046:	ef cf       	rjmp	.-34     	; 0x2026 <_ZN11Interpreter13function_callEv+0x802>
    2048:	23 e3       	ldi	r18, 0x33	; 51
    204a:	e2 16       	cp	r14, r18
    204c:	f1 04       	cpc	r15, r1
    204e:	a9 f4       	brne	.+42     	; 0x207a <_ZN11Interpreter13function_callEv+0x856>
    2050:	b8 01       	movw	r22, r16
    2052:	ce 01       	movw	r24, r28
    2054:	8e 5b       	subi	r24, 0xBE	; 190
    2056:	9f 4f       	sbci	r25, 0xFF	; 255
    2058:	7b d2       	rcall	.+1270   	; 0x2550 <_ZN11Interpreter4exprEv>
    205a:	61 e2       	ldi	r22, 0x21	; 33
    205c:	c8 01       	movw	r24, r16
    205e:	32 da       	rcall	.-2972   	; 0x14c4 <_ZN11Interpreter3eatE9TokenType>
    2060:	ce 01       	movw	r24, r28
    2062:	8e 5b       	subi	r24, 0xBE	; 190
    2064:	9f 4f       	sbci	r25, 0xFF	; 255
    2066:	0e 94 b4 27 	call	0x4f68	; 0x4f68 <_ZN5Value5ToIntEv>
    206a:	0e 94 8c 1b 	call	0x3718	; 0x3718 <_Z12indexRxByte1i>
    206e:	68 2f       	mov	r22, r24
    2070:	ce 01       	movw	r24, r28
    2072:	01 96       	adiw	r24, 0x01	; 1
    2074:	0e 94 ba 1b 	call	0x3774	; 0x3774 <_ZN5ValueC1Ec>
    2078:	4c c0       	rjmp	.+152    	; 0x2112 <_ZN11Interpreter13function_callEv+0x8ee>
    207a:	34 e3       	ldi	r19, 0x34	; 52
    207c:	e3 16       	cp	r14, r19
    207e:	f1 04       	cpc	r15, r1
    2080:	31 f4       	brne	.+12     	; 0x208e <_ZN11Interpreter13function_callEv+0x86a>
    2082:	61 e2       	ldi	r22, 0x21	; 33
    2084:	c8 01       	movw	r24, r16
    2086:	1e da       	rcall	.-3012   	; 0x14c4 <_ZN11Interpreter3eatE9TokenType>
    2088:	0e 94 95 1b 	call	0x372a	; 0x372a <_Z6reset1v>
    208c:	3c c0       	rjmp	.+120    	; 0x2106 <_ZN11Interpreter13function_callEv+0x8e2>
    208e:	8f e2       	ldi	r24, 0x2F	; 47
    2090:	e8 16       	cp	r14, r24
    2092:	f1 04       	cpc	r15, r1
    2094:	79 f4       	brne	.+30     	; 0x20b4 <_ZN11Interpreter13function_callEv+0x890>
    2096:	61 e2       	ldi	r22, 0x21	; 33
    2098:	c8 01       	movw	r24, r16
    209a:	14 da       	rcall	.-3032   	; 0x14c4 <_ZN11Interpreter3eatE9TokenType>
    209c:	0e 94 ac 1a 	call	0x3558	; 0x3558 <_Z11readRxline1v>
    20a0:	00 97       	sbiw	r24, 0x00	; 0
    20a2:	19 f4       	brne	.+6      	; 0x20aa <_ZN11Interpreter13function_callEv+0x886>
    20a4:	64 e3       	ldi	r22, 0x34	; 52
    20a6:	73 e0       	ldi	r23, 0x03	; 3
    20a8:	01 c0       	rjmp	.+2      	; 0x20ac <_ZN11Interpreter13function_callEv+0x888>
    20aa:	bc 01       	movw	r22, r24
    20ac:	c6 01       	movw	r24, r12
    20ae:	0e 94 d7 1b 	call	0x37ae	; 0x37ae <_ZN5ValueC1EPKc>
    20b2:	37 c0       	rjmp	.+110    	; 0x2122 <_ZN11Interpreter13function_callEv+0x8fe>
    20b4:	90 e3       	ldi	r25, 0x30	; 48
    20b6:	e9 16       	cp	r14, r25
    20b8:	f1 04       	cpc	r15, r1
    20ba:	c1 f4       	brne	.+48     	; 0x20ec <_ZN11Interpreter13function_callEv+0x8c8>
    20bc:	b8 01       	movw	r22, r16
    20be:	ce 01       	movw	r24, r28
    20c0:	01 96       	adiw	r24, 0x01	; 1
    20c2:	46 d2       	rcall	.+1164   	; 0x2550 <_ZN11Interpreter4exprEv>
    20c4:	8d 81       	ldd	r24, Y+5	; 0x05
    20c6:	9e 81       	ldd	r25, Y+6	; 0x06
    20c8:	80 36       	cpi	r24, 0x60	; 96
    20ca:	e9 e0       	ldi	r30, 0x09	; 9
    20cc:	9e 07       	cpc	r25, r30
    20ce:	29 f4       	brne	.+10     	; 0x20da <_ZN11Interpreter13function_callEv+0x8b6>
    20d0:	81 e0       	ldi	r24, 0x01	; 1
    20d2:	80 93 cd 00 	sts	0x00CD, r24	; 0x8000cd <__TEXT_REGION_LENGTH__+0x7e00cd>
    20d6:	8f e7       	ldi	r24, 0x7F	; 127
    20d8:	06 c0       	rjmp	.+12     	; 0x20e6 <_ZN11Interpreter13function_callEv+0x8c2>
    20da:	80 38       	cpi	r24, 0x80	; 128
    20dc:	95 42       	sbci	r25, 0x25	; 37
    20de:	11 f4       	brne	.+4      	; 0x20e4 <_ZN11Interpreter13function_callEv+0x8c0>
    20e0:	8f e5       	ldi	r24, 0x5F	; 95
    20e2:	01 c0       	rjmp	.+2      	; 0x20e6 <_ZN11Interpreter13function_callEv+0x8c2>
    20e4:	87 e0       	ldi	r24, 0x07	; 7
    20e6:	80 93 cc 00 	sts	0x00CC, r24	; 0x8000cc <__TEXT_REGION_LENGTH__+0x7e00cc>
    20ea:	a2 cd       	rjmp	.-1212   	; 0x1c30 <_ZN11Interpreter13function_callEv+0x40c>
    20ec:	2e e2       	ldi	r18, 0x2E	; 46
    20ee:	e2 16       	cp	r14, r18
    20f0:	f1 04       	cpc	r15, r1
    20f2:	49 f4       	brne	.+18     	; 0x2106 <_ZN11Interpreter13function_callEv+0x8e2>
    20f4:	61 e2       	ldi	r22, 0x21	; 33
    20f6:	c8 01       	movw	r24, r16
    20f8:	e5 d9       	rcall	.-3126   	; 0x14c4 <_ZN11Interpreter3eatE9TokenType>
    20fa:	80 91 c9 00 	lds	r24, 0x00C9	; 0x8000c9 <__TEXT_REGION_LENGTH__+0x7e00c9>
    20fe:	80 68       	ori	r24, 0x80	; 128
    2100:	80 93 c9 00 	sts	0x00C9, r24	; 0x8000c9 <__TEXT_REGION_LENGTH__+0x7e00c9>
    2104:	78 94       	sei
    2106:	60 e0       	ldi	r22, 0x00	; 0
    2108:	70 e0       	ldi	r23, 0x00	; 0
    210a:	ce 01       	movw	r24, r28
    210c:	01 96       	adiw	r24, 0x01	; 1
    210e:	0e 94 9f 1b 	call	0x373e	; 0x373e <_ZN5ValueC1Ei>
    2112:	81 e4       	ldi	r24, 0x41	; 65
    2114:	fe 01       	movw	r30, r28
    2116:	31 96       	adiw	r30, 0x01	; 1
    2118:	d6 01       	movw	r26, r12
    211a:	01 90       	ld	r0, Z+
    211c:	0d 92       	st	X+, r0
    211e:	8a 95       	dec	r24
    2120:	e1 f7       	brne	.-8      	; 0x211a <_ZN11Interpreter13function_callEv+0x8f6>
    2122:	c6 01       	movw	r24, r12
    2124:	0f b6       	in	r0, 0x3f	; 63
    2126:	f8 94       	cli
    2128:	be be       	out	0x3e, r11	; 62
    212a:	0f be       	out	0x3f, r0	; 63
    212c:	ad be       	out	0x3d, r10	; 61
    212e:	cd 53       	subi	r28, 0x3D	; 61
    2130:	df 4f       	sbci	r29, 0xFF	; 255
    2132:	0f b6       	in	r0, 0x3f	; 63
    2134:	f8 94       	cli
    2136:	de bf       	out	0x3e, r29	; 62
    2138:	0f be       	out	0x3f, r0	; 63
    213a:	cd bf       	out	0x3d, r28	; 61
    213c:	df 91       	pop	r29
    213e:	cf 91       	pop	r28
    2140:	1f 91       	pop	r17
    2142:	0f 91       	pop	r16
    2144:	ff 90       	pop	r15
    2146:	ef 90       	pop	r14
    2148:	df 90       	pop	r13
    214a:	cf 90       	pop	r12
    214c:	bf 90       	pop	r11
    214e:	af 90       	pop	r10
    2150:	08 95       	ret

00002152 <_ZN11Interpreter6factorEv>:
    2152:	cf 92       	push	r12
    2154:	df 92       	push	r13
    2156:	ef 92       	push	r14
    2158:	ff 92       	push	r15
    215a:	0f 93       	push	r16
    215c:	1f 93       	push	r17
    215e:	cf 93       	push	r28
    2160:	df 93       	push	r29
    2162:	cd b7       	in	r28, 0x3d	; 61
    2164:	de b7       	in	r29, 0x3e	; 62
    2166:	c4 5c       	subi	r28, 0xC4	; 196
    2168:	d1 09       	sbc	r29, r1
    216a:	0f b6       	in	r0, 0x3f	; 63
    216c:	f8 94       	cli
    216e:	de bf       	out	0x3e, r29	; 62
    2170:	0f be       	out	0x3f, r0	; 63
    2172:	cd bf       	out	0x3d, r28	; 61
    2174:	7c 01       	movw	r14, r24
    2176:	8b 01       	movw	r16, r22
    2178:	6b 01       	movw	r12, r22
    217a:	81 e7       	ldi	r24, 0x71	; 113
    217c:	c8 1a       	sub	r12, r24
    217e:	88 ef       	ldi	r24, 0xF8	; 248
    2180:	d8 0a       	sbc	r13, r24
    2182:	82 e4       	ldi	r24, 0x42	; 66
    2184:	f6 01       	movw	r30, r12
    2186:	de 01       	movw	r26, r28
    2188:	11 96       	adiw	r26, 0x01	; 1
    218a:	01 90       	ld	r0, Z+
    218c:	0d 92       	st	X+, r0
    218e:	8a 95       	dec	r24
    2190:	e1 f7       	brne	.-8      	; 0x218a <_ZN11Interpreter6factorEv+0x38>
    2192:	89 81       	ldd	r24, Y+1	; 0x01
    2194:	83 30       	cpi	r24, 0x03	; 3
    2196:	79 f4       	brne	.+30     	; 0x21b6 <_ZN11Interpreter6factorEv+0x64>
    2198:	63 e0       	ldi	r22, 0x03	; 3
    219a:	c8 01       	movw	r24, r16
    219c:	93 d9       	rcall	.-3290   	; 0x14c4 <_ZN11Interpreter3eatE9TokenType>
    219e:	b8 01       	movw	r22, r16
    21a0:	ce 01       	movw	r24, r28
    21a2:	8d 5b       	subi	r24, 0xBD	; 189
    21a4:	9f 4f       	sbci	r25, 0xFF	; 255
    21a6:	d5 df       	rcall	.-86     	; 0x2152 <_ZN11Interpreter6factorEv>
    21a8:	be 01       	movw	r22, r28
    21aa:	6d 5b       	subi	r22, 0xBD	; 189
    21ac:	7f 4f       	sbci	r23, 0xFF	; 255
    21ae:	c7 01       	movw	r24, r14
    21b0:	0e 94 08 27 	call	0x4e10	; 0x4e10 <_ZpsRK5Value>
    21b4:	96 c0       	rjmp	.+300    	; 0x22e2 <_ZN11Interpreter6factorEv+0x190>
    21b6:	81 30       	cpi	r24, 0x01	; 1
    21b8:	79 f4       	brne	.+30     	; 0x21d8 <_ZN11Interpreter6factorEv+0x86>
    21ba:	61 e0       	ldi	r22, 0x01	; 1
    21bc:	c8 01       	movw	r24, r16
    21be:	82 d9       	rcall	.-3324   	; 0x14c4 <_ZN11Interpreter3eatE9TokenType>
    21c0:	b8 01       	movw	r22, r16
    21c2:	ce 01       	movw	r24, r28
    21c4:	8d 5b       	subi	r24, 0xBD	; 189
    21c6:	9f 4f       	sbci	r25, 0xFF	; 255
    21c8:	c4 df       	rcall	.-120    	; 0x2152 <_ZN11Interpreter6factorEv>
    21ca:	be 01       	movw	r22, r28
    21cc:	6d 5b       	subi	r22, 0xBD	; 189
    21ce:	7f 4f       	sbci	r23, 0xFF	; 255
    21d0:	c7 01       	movw	r24, r14
    21d2:	0e 94 49 27 	call	0x4e92	; 0x4e92 <_ZngRK5Value>
    21d6:	85 c0       	rjmp	.+266    	; 0x22e2 <_ZN11Interpreter6factorEv+0x190>
    21d8:	8e 30       	cpi	r24, 0x0E	; 14
    21da:	79 f4       	brne	.+30     	; 0x21fa <_ZN11Interpreter6factorEv+0xa8>
    21dc:	6e e0       	ldi	r22, 0x0E	; 14
    21de:	c8 01       	movw	r24, r16
    21e0:	71 d9       	rcall	.-3358   	; 0x14c4 <_ZN11Interpreter3eatE9TokenType>
    21e2:	b8 01       	movw	r22, r16
    21e4:	ce 01       	movw	r24, r28
    21e6:	8d 5b       	subi	r24, 0xBD	; 189
    21e8:	9f 4f       	sbci	r25, 0xFF	; 255
    21ea:	b3 df       	rcall	.-154    	; 0x2152 <_ZN11Interpreter6factorEv>
    21ec:	be 01       	movw	r22, r28
    21ee:	6d 5b       	subi	r22, 0xBD	; 189
    21f0:	7f 4f       	sbci	r23, 0xFF	; 255
    21f2:	c7 01       	movw	r24, r14
    21f4:	0e 94 87 22 	call	0x450e	; 0x450e <_ZntRK5Value>
    21f8:	74 c0       	rjmp	.+232    	; 0x22e2 <_ZN11Interpreter6factorEv+0x190>
    21fa:	85 32       	cpi	r24, 0x25	; 37
    21fc:	11 f4       	brne	.+4      	; 0x2202 <_ZN11Interpreter6factorEv+0xb0>
    21fe:	65 e2       	ldi	r22, 0x25	; 37
    2200:	47 c0       	rjmp	.+142    	; 0x2290 <_ZN11Interpreter6factorEv+0x13e>
    2202:	84 32       	cpi	r24, 0x24	; 36
    2204:	11 f4       	brne	.+4      	; 0x220a <_ZN11Interpreter6factorEv+0xb8>
    2206:	64 e2       	ldi	r22, 0x24	; 36
    2208:	43 c0       	rjmp	.+134    	; 0x2290 <_ZN11Interpreter6factorEv+0x13e>
    220a:	8d 30       	cpi	r24, 0x0D	; 13
    220c:	a9 f5       	brne	.+106    	; 0x2278 <_ZN11Interpreter6factorEv+0x126>
    220e:	6d e0       	ldi	r22, 0x0D	; 13
    2210:	c8 01       	movw	r24, r16
    2212:	58 d9       	rcall	.-3408   	; 0x14c4 <_ZN11Interpreter3eatE9TokenType>
    2214:	f6 01       	movw	r30, r12
    2216:	80 81       	ld	r24, Z
    2218:	80 32       	cpi	r24, 0x20	; 32
    221a:	19 f5       	brne	.+70     	; 0x2262 <_ZN11Interpreter6factorEv+0x110>
    221c:	60 e2       	ldi	r22, 0x20	; 32
    221e:	c8 01       	movw	r24, r16
    2220:	51 d9       	rcall	.-3422   	; 0x14c4 <_ZN11Interpreter3eatE9TokenType>
    2222:	b8 01       	movw	r22, r16
    2224:	ce 01       	movw	r24, r28
    2226:	8d 5b       	subi	r24, 0xBD	; 189
    2228:	9f 4f       	sbci	r25, 0xFF	; 255
    222a:	93 df       	rcall	.-218    	; 0x2152 <_ZN11Interpreter6factorEv>
    222c:	29 96       	adiw	r28, 0x09	; 9
    222e:	ce ac       	ldd	r12, Y+62	; 0x3e
    2230:	df ac       	ldd	r13, Y+63	; 0x3f
    2232:	29 97       	sbiw	r28, 0x09	; 9
    2234:	61 e2       	ldi	r22, 0x21	; 33
    2236:	c8 01       	movw	r24, r16
    2238:	45 d9       	rcall	.-3446   	; 0x14c4 <_ZN11Interpreter3eatE9TokenType>
    223a:	ce 01       	movw	r24, r28
    223c:	02 96       	adiw	r24, 0x02	; 2
    223e:	0e 94 f6 27 	call	0x4fec	; 0x4fec <_ZN5Value8ToStringEv>
    2242:	ac 01       	movw	r20, r24
    2244:	b8 01       	movw	r22, r16
    2246:	ce 01       	movw	r24, r28
    2248:	8c 57       	subi	r24, 0x7C	; 124
    224a:	9f 4f       	sbci	r25, 0xFF	; 255
    224c:	76 d9       	rcall	.-3348   	; 0x153a <_ZN11Interpreter10lookup_varEPKc>
    224e:	a6 01       	movw	r20, r12
    2250:	be 01       	movw	r22, r28
    2252:	6c 57       	subi	r22, 0x7C	; 124
    2254:	7f 4f       	sbci	r23, 0xFF	; 255
    2256:	ce 01       	movw	r24, r28
    2258:	8d 5b       	subi	r24, 0xBD	; 189
    225a:	9f 4f       	sbci	r25, 0xFF	; 255
    225c:	0e 94 3f 28 	call	0x507e	; 0x507e <_ZN5Value11index_arrayEi>
    2260:	37 c0       	rjmp	.+110    	; 0x22d0 <_ZN11Interpreter6factorEv+0x17e>
    2262:	ce 01       	movw	r24, r28
    2264:	02 96       	adiw	r24, 0x02	; 2
    2266:	0e 94 f6 27 	call	0x4fec	; 0x4fec <_ZN5Value8ToStringEv>
    226a:	ac 01       	movw	r20, r24
    226c:	b8 01       	movw	r22, r16
    226e:	ce 01       	movw	r24, r28
    2270:	8d 5b       	subi	r24, 0xBD	; 189
    2272:	9f 4f       	sbci	r25, 0xFF	; 255
    2274:	62 d9       	rcall	.-3388   	; 0x153a <_ZN11Interpreter10lookup_varEPKc>
    2276:	2c c0       	rjmp	.+88     	; 0x22d0 <_ZN11Interpreter6factorEv+0x17e>
    2278:	8d 32       	cpi	r24, 0x2D	; 45
    227a:	19 f4       	brne	.+6      	; 0x2282 <_ZN11Interpreter6factorEv+0x130>
    227c:	c7 01       	movw	r24, r14
    227e:	d2 da       	rcall	.-2652   	; 0x1824 <_ZN11Interpreter13function_callEv>
    2280:	30 c0       	rjmp	.+96     	; 0x22e2 <_ZN11Interpreter6factorEv+0x190>
    2282:	83 32       	cpi	r24, 0x23	; 35
    2284:	11 f4       	brne	.+4      	; 0x228a <_ZN11Interpreter6factorEv+0x138>
    2286:	63 e2       	ldi	r22, 0x23	; 35
    2288:	03 c0       	rjmp	.+6      	; 0x2290 <_ZN11Interpreter6factorEv+0x13e>
    228a:	8b 32       	cpi	r24, 0x2B	; 43
    228c:	39 f4       	brne	.+14     	; 0x229c <_ZN11Interpreter6factorEv+0x14a>
    228e:	6b e2       	ldi	r22, 0x2B	; 43
    2290:	c8 01       	movw	r24, r16
    2292:	18 d9       	rcall	.-3536   	; 0x14c4 <_ZN11Interpreter3eatE9TokenType>
    2294:	81 e4       	ldi	r24, 0x41	; 65
    2296:	fe 01       	movw	r30, r28
    2298:	32 96       	adiw	r30, 0x02	; 2
    229a:	1e c0       	rjmp	.+60     	; 0x22d8 <_ZN11Interpreter6factorEv+0x186>
    229c:	80 32       	cpi	r24, 0x20	; 32
    229e:	61 f4       	brne	.+24     	; 0x22b8 <_ZN11Interpreter6factorEv+0x166>
    22a0:	60 e2       	ldi	r22, 0x20	; 32
    22a2:	c8 01       	movw	r24, r16
    22a4:	0f d9       	rcall	.-3554   	; 0x14c4 <_ZN11Interpreter3eatE9TokenType>
    22a6:	b8 01       	movw	r22, r16
    22a8:	ce 01       	movw	r24, r28
    22aa:	8d 5b       	subi	r24, 0xBD	; 189
    22ac:	9f 4f       	sbci	r25, 0xFF	; 255
    22ae:	50 d1       	rcall	.+672    	; 0x2550 <_ZN11Interpreter4exprEv>
    22b0:	61 e2       	ldi	r22, 0x21	; 33
    22b2:	c8 01       	movw	r24, r16
    22b4:	07 d9       	rcall	.-3570   	; 0x14c4 <_ZN11Interpreter3eatE9TokenType>
    22b6:	0c c0       	rjmp	.+24     	; 0x22d0 <_ZN11Interpreter6factorEv+0x17e>
    22b8:	65 e3       	ldi	r22, 0x35	; 53
    22ba:	73 e0       	ldi	r23, 0x03	; 3
    22bc:	c8 01       	movw	r24, r16
    22be:	0e 94 2f 02 	call	0x45e	; 0x45e <_ZN11Interpreter5errorEPc>
    22c2:	60 e0       	ldi	r22, 0x00	; 0
    22c4:	70 e0       	ldi	r23, 0x00	; 0
    22c6:	ce 01       	movw	r24, r28
    22c8:	8d 5b       	subi	r24, 0xBD	; 189
    22ca:	9f 4f       	sbci	r25, 0xFF	; 255
    22cc:	0e 94 9f 1b 	call	0x373e	; 0x373e <_ZN5ValueC1Ei>
    22d0:	81 e4       	ldi	r24, 0x41	; 65
    22d2:	fe 01       	movw	r30, r28
    22d4:	ed 5b       	subi	r30, 0xBD	; 189
    22d6:	ff 4f       	sbci	r31, 0xFF	; 255
    22d8:	d7 01       	movw	r26, r14
    22da:	01 90       	ld	r0, Z+
    22dc:	0d 92       	st	X+, r0
    22de:	8a 95       	dec	r24
    22e0:	e1 f7       	brne	.-8      	; 0x22da <_ZN11Interpreter6factorEv+0x188>
    22e2:	c7 01       	movw	r24, r14
    22e4:	cc 53       	subi	r28, 0x3C	; 60
    22e6:	df 4f       	sbci	r29, 0xFF	; 255
    22e8:	0f b6       	in	r0, 0x3f	; 63
    22ea:	f8 94       	cli
    22ec:	de bf       	out	0x3e, r29	; 62
    22ee:	0f be       	out	0x3f, r0	; 63
    22f0:	cd bf       	out	0x3d, r28	; 61
    22f2:	df 91       	pop	r29
    22f4:	cf 91       	pop	r28
    22f6:	1f 91       	pop	r17
    22f8:	0f 91       	pop	r16
    22fa:	ff 90       	pop	r15
    22fc:	ef 90       	pop	r14
    22fe:	df 90       	pop	r13
    2300:	cf 90       	pop	r12
    2302:	08 95       	ret

00002304 <_ZN11Interpreter4termEv>:
    2304:	cf 92       	push	r12
    2306:	df 92       	push	r13
    2308:	ef 92       	push	r14
    230a:	ff 92       	push	r15
    230c:	0f 93       	push	r16
    230e:	1f 93       	push	r17
    2310:	cf 93       	push	r28
    2312:	df 93       	push	r29
    2314:	cd b7       	in	r28, 0x3d	; 61
    2316:	de b7       	in	r29, 0x3e	; 62
    2318:	c2 58       	subi	r28, 0x82	; 130
    231a:	d1 09       	sbc	r29, r1
    231c:	0f b6       	in	r0, 0x3f	; 63
    231e:	f8 94       	cli
    2320:	de bf       	out	0x3e, r29	; 62
    2322:	0f be       	out	0x3f, r0	; 63
    2324:	cd bf       	out	0x3d, r28	; 61
    2326:	8c 01       	movw	r16, r24
    2328:	7b 01       	movw	r14, r22
    232a:	13 df       	rcall	.-474    	; 0x2152 <_ZN11Interpreter6factorEv>
    232c:	67 01       	movw	r12, r14
    232e:	81 e7       	ldi	r24, 0x71	; 113
    2330:	c8 1a       	sub	r12, r24
    2332:	88 ef       	ldi	r24, 0xF8	; 248
    2334:	d8 0a       	sbc	r13, r24
    2336:	f6 01       	movw	r30, r12
    2338:	80 81       	ld	r24, Z
    233a:	88 23       	and	r24, r24
    233c:	91 f1       	breq	.+100    	; 0x23a2 <_ZN11Interpreter4termEv+0x9e>
    233e:	84 30       	cpi	r24, 0x04	; 4
    2340:	09 f4       	brne	.+2      	; 0x2344 <_ZN11Interpreter4termEv+0x40>
    2342:	40 c0       	rjmp	.+128    	; 0x23c4 <_ZN11Interpreter4termEv+0xc0>
    2344:	87 30       	cpi	r24, 0x07	; 7
    2346:	09 f4       	brne	.+2      	; 0x234a <_ZN11Interpreter4termEv+0x46>
    2348:	b4 c0       	rjmp	.+360    	; 0x24b2 <_ZN11Interpreter4termEv+0x1ae>
    234a:	88 30       	cpi	r24, 0x08	; 8
    234c:	09 f4       	brne	.+2      	; 0x2350 <_ZN11Interpreter4termEv+0x4c>
    234e:	c2 c0       	rjmp	.+388    	; 0x24d4 <_ZN11Interpreter4termEv+0x1d0>
    2350:	89 30       	cpi	r24, 0x09	; 9
    2352:	09 f4       	brne	.+2      	; 0x2356 <_ZN11Interpreter4termEv+0x52>
    2354:	d1 c0       	rjmp	.+418    	; 0x24f8 <_ZN11Interpreter4termEv+0x1f4>
    2356:	8f 30       	cpi	r24, 0x0F	; 15
    2358:	09 f4       	brne	.+2      	; 0x235c <_ZN11Interpreter4termEv+0x58>
    235a:	89 c0       	rjmp	.+274    	; 0x246e <_ZN11Interpreter4termEv+0x16a>
    235c:	82 31       	cpi	r24, 0x12	; 18
    235e:	09 f4       	brne	.+2      	; 0x2362 <_ZN11Interpreter4termEv+0x5e>
    2360:	97 c0       	rjmp	.+302    	; 0x2490 <_ZN11Interpreter4termEv+0x18c>
    2362:	80 31       	cpi	r24, 0x10	; 16
    2364:	09 f4       	brne	.+2      	; 0x2368 <_ZN11Interpreter4termEv+0x64>
    2366:	61 c0       	rjmp	.+194    	; 0x242a <_ZN11Interpreter4termEv+0x126>
    2368:	81 31       	cpi	r24, 0x11	; 17
    236a:	09 f4       	brne	.+2      	; 0x236e <_ZN11Interpreter4termEv+0x6a>
    236c:	6f c0       	rjmp	.+222    	; 0x244c <_ZN11Interpreter4termEv+0x148>
    236e:	82 30       	cpi	r24, 0x02	; 2
    2370:	09 f4       	brne	.+2      	; 0x2374 <_ZN11Interpreter4termEv+0x70>
    2372:	39 c0       	rjmp	.+114    	; 0x23e6 <_ZN11Interpreter4termEv+0xe2>
    2374:	84 31       	cpi	r24, 0x14	; 20
    2376:	09 f4       	brne	.+2      	; 0x237a <_ZN11Interpreter4termEv+0x76>
    2378:	47 c0       	rjmp	.+142    	; 0x2408 <_ZN11Interpreter4termEv+0x104>
    237a:	83 31       	cpi	r24, 0x13	; 19
    237c:	09 f0       	breq	.+2      	; 0x2380 <_ZN11Interpreter4termEv+0x7c>
    237e:	d7 c0       	rjmp	.+430    	; 0x252e <_ZN11Interpreter4termEv+0x22a>
    2380:	63 e1       	ldi	r22, 0x13	; 19
    2382:	c7 01       	movw	r24, r14
    2384:	9f d8       	rcall	.-3778   	; 0x14c4 <_ZN11Interpreter3eatE9TokenType>
    2386:	b7 01       	movw	r22, r14
    2388:	ce 01       	movw	r24, r28
    238a:	01 96       	adiw	r24, 0x01	; 1
    238c:	e2 de       	rcall	.-572    	; 0x2152 <_ZN11Interpreter6factorEv>
    238e:	ae 01       	movw	r20, r28
    2390:	4f 5f       	subi	r20, 0xFF	; 255
    2392:	5f 4f       	sbci	r21, 0xFF	; 255
    2394:	b8 01       	movw	r22, r16
    2396:	ce 01       	movw	r24, r28
    2398:	8e 5b       	subi	r24, 0xBE	; 190
    239a:	9f 4f       	sbci	r25, 0xFF	; 255
    239c:	0e 94 5b 23 	call	0x46b6	; 0x46b6 <_ZeqRK5ValueS1_>
    23a0:	bc c0       	rjmp	.+376    	; 0x251a <_ZN11Interpreter4termEv+0x216>
    23a2:	60 e0       	ldi	r22, 0x00	; 0
    23a4:	c7 01       	movw	r24, r14
    23a6:	8e d8       	rcall	.-3812   	; 0x14c4 <_ZN11Interpreter3eatE9TokenType>
    23a8:	b7 01       	movw	r22, r14
    23aa:	ce 01       	movw	r24, r28
    23ac:	01 96       	adiw	r24, 0x01	; 1
    23ae:	d1 de       	rcall	.-606    	; 0x2152 <_ZN11Interpreter6factorEv>
    23b0:	ae 01       	movw	r20, r28
    23b2:	4f 5f       	subi	r20, 0xFF	; 255
    23b4:	5f 4f       	sbci	r21, 0xFF	; 255
    23b6:	b8 01       	movw	r22, r16
    23b8:	ce 01       	movw	r24, r28
    23ba:	8e 5b       	subi	r24, 0xBE	; 190
    23bc:	9f 4f       	sbci	r25, 0xFF	; 255
    23be:	0e 94 0c 1e 	call	0x3c18	; 0x3c18 <_ZmlRK5ValueS1_>
    23c2:	ab c0       	rjmp	.+342    	; 0x251a <_ZN11Interpreter4termEv+0x216>
    23c4:	64 e0       	ldi	r22, 0x04	; 4
    23c6:	c7 01       	movw	r24, r14
    23c8:	7d d8       	rcall	.-3846   	; 0x14c4 <_ZN11Interpreter3eatE9TokenType>
    23ca:	b7 01       	movw	r22, r14
    23cc:	ce 01       	movw	r24, r28
    23ce:	01 96       	adiw	r24, 0x01	; 1
    23d0:	c0 de       	rcall	.-640    	; 0x2152 <_ZN11Interpreter6factorEv>
    23d2:	ae 01       	movw	r20, r28
    23d4:	4f 5f       	subi	r20, 0xFF	; 255
    23d6:	5f 4f       	sbci	r21, 0xFF	; 255
    23d8:	b8 01       	movw	r22, r16
    23da:	ce 01       	movw	r24, r28
    23dc:	8e 5b       	subi	r24, 0xBE	; 190
    23de:	9f 4f       	sbci	r25, 0xFF	; 255
    23e0:	0e 94 9f 1e 	call	0x3d3e	; 0x3d3e <_ZdvRK5ValueS1_>
    23e4:	9a c0       	rjmp	.+308    	; 0x251a <_ZN11Interpreter4termEv+0x216>
    23e6:	62 e0       	ldi	r22, 0x02	; 2
    23e8:	c7 01       	movw	r24, r14
    23ea:	6c d8       	rcall	.-3880   	; 0x14c4 <_ZN11Interpreter3eatE9TokenType>
    23ec:	b7 01       	movw	r22, r14
    23ee:	ce 01       	movw	r24, r28
    23f0:	01 96       	adiw	r24, 0x01	; 1
    23f2:	af de       	rcall	.-674    	; 0x2152 <_ZN11Interpreter6factorEv>
    23f4:	ae 01       	movw	r20, r28
    23f6:	4f 5f       	subi	r20, 0xFF	; 255
    23f8:	5f 4f       	sbci	r21, 0xFF	; 255
    23fa:	b8 01       	movw	r22, r16
    23fc:	ce 01       	movw	r24, r28
    23fe:	8e 5b       	subi	r24, 0xBE	; 190
    2400:	9f 4f       	sbci	r25, 0xFF	; 255
    2402:	0e 94 2d 1f 	call	0x3e5a	; 0x3e5a <_ZrmRK5ValueS1_>
    2406:	89 c0       	rjmp	.+274    	; 0x251a <_ZN11Interpreter4termEv+0x216>
    2408:	64 e1       	ldi	r22, 0x14	; 20
    240a:	c7 01       	movw	r24, r14
    240c:	5b d8       	rcall	.-3914   	; 0x14c4 <_ZN11Interpreter3eatE9TokenType>
    240e:	b7 01       	movw	r22, r14
    2410:	ce 01       	movw	r24, r28
    2412:	01 96       	adiw	r24, 0x01	; 1
    2414:	9e de       	rcall	.-708    	; 0x2152 <_ZN11Interpreter6factorEv>
    2416:	ae 01       	movw	r20, r28
    2418:	4f 5f       	subi	r20, 0xFF	; 255
    241a:	5f 4f       	sbci	r21, 0xFF	; 255
    241c:	b8 01       	movw	r22, r16
    241e:	ce 01       	movw	r24, r28
    2420:	8e 5b       	subi	r24, 0xBE	; 190
    2422:	9f 4f       	sbci	r25, 0xFF	; 255
    2424:	0e 94 f3 23 	call	0x47e6	; 0x47e6 <_ZneRK5ValueS1_>
    2428:	78 c0       	rjmp	.+240    	; 0x251a <_ZN11Interpreter4termEv+0x216>
    242a:	60 e1       	ldi	r22, 0x10	; 16
    242c:	c7 01       	movw	r24, r14
    242e:	4a d8       	rcall	.-3948   	; 0x14c4 <_ZN11Interpreter3eatE9TokenType>
    2430:	b7 01       	movw	r22, r14
    2432:	ce 01       	movw	r24, r28
    2434:	01 96       	adiw	r24, 0x01	; 1
    2436:	8d de       	rcall	.-742    	; 0x2152 <_ZN11Interpreter6factorEv>
    2438:	ae 01       	movw	r20, r28
    243a:	4f 5f       	subi	r20, 0xFF	; 255
    243c:	5f 4f       	sbci	r21, 0xFF	; 255
    243e:	b8 01       	movw	r22, r16
    2440:	ce 01       	movw	r24, r28
    2442:	8e 5b       	subi	r24, 0xBE	; 190
    2444:	9f 4f       	sbci	r25, 0xFF	; 255
    2446:	0e 94 8c 24 	call	0x4918	; 0x4918 <_ZltRK5ValueS1_>
    244a:	67 c0       	rjmp	.+206    	; 0x251a <_ZN11Interpreter4termEv+0x216>
    244c:	61 e1       	ldi	r22, 0x11	; 17
    244e:	c7 01       	movw	r24, r14
    2450:	39 d8       	rcall	.-3982   	; 0x14c4 <_ZN11Interpreter3eatE9TokenType>
    2452:	b7 01       	movw	r22, r14
    2454:	ce 01       	movw	r24, r28
    2456:	01 96       	adiw	r24, 0x01	; 1
    2458:	7c de       	rcall	.-776    	; 0x2152 <_ZN11Interpreter6factorEv>
    245a:	ae 01       	movw	r20, r28
    245c:	4f 5f       	subi	r20, 0xFF	; 255
    245e:	5f 4f       	sbci	r21, 0xFF	; 255
    2460:	b8 01       	movw	r22, r16
    2462:	ce 01       	movw	r24, r28
    2464:	8e 5b       	subi	r24, 0xBE	; 190
    2466:	9f 4f       	sbci	r25, 0xFF	; 255
    2468:	0e 94 10 25 	call	0x4a20	; 0x4a20 <_ZleRK5ValueS1_>
    246c:	56 c0       	rjmp	.+172    	; 0x251a <_ZN11Interpreter4termEv+0x216>
    246e:	6f e0       	ldi	r22, 0x0F	; 15
    2470:	c7 01       	movw	r24, r14
    2472:	28 d8       	rcall	.-4016   	; 0x14c4 <_ZN11Interpreter3eatE9TokenType>
    2474:	b7 01       	movw	r22, r14
    2476:	ce 01       	movw	r24, r28
    2478:	01 96       	adiw	r24, 0x01	; 1
    247a:	6b de       	rcall	.-810    	; 0x2152 <_ZN11Interpreter6factorEv>
    247c:	ae 01       	movw	r20, r28
    247e:	4f 5f       	subi	r20, 0xFF	; 255
    2480:	5f 4f       	sbci	r21, 0xFF	; 255
    2482:	b8 01       	movw	r22, r16
    2484:	ce 01       	movw	r24, r28
    2486:	8e 5b       	subi	r24, 0xBE	; 190
    2488:	9f 4f       	sbci	r25, 0xFF	; 255
    248a:	0e 94 b9 25 	call	0x4b72	; 0x4b72 <_ZgtRK5ValueS1_>
    248e:	45 c0       	rjmp	.+138    	; 0x251a <_ZN11Interpreter4termEv+0x216>
    2490:	62 e1       	ldi	r22, 0x12	; 18
    2492:	c7 01       	movw	r24, r14
    2494:	17 d8       	rcall	.-4050   	; 0x14c4 <_ZN11Interpreter3eatE9TokenType>
    2496:	b7 01       	movw	r22, r14
    2498:	ce 01       	movw	r24, r28
    249a:	01 96       	adiw	r24, 0x01	; 1
    249c:	5a de       	rcall	.-844    	; 0x2152 <_ZN11Interpreter6factorEv>
    249e:	ae 01       	movw	r20, r28
    24a0:	4f 5f       	subi	r20, 0xFF	; 255
    24a2:	5f 4f       	sbci	r21, 0xFF	; 255
    24a4:	b8 01       	movw	r22, r16
    24a6:	ce 01       	movw	r24, r28
    24a8:	8e 5b       	subi	r24, 0xBE	; 190
    24aa:	9f 4f       	sbci	r25, 0xFF	; 255
    24ac:	0e 94 62 26 	call	0x4cc4	; 0x4cc4 <_ZgeRK5ValueS1_>
    24b0:	34 c0       	rjmp	.+104    	; 0x251a <_ZN11Interpreter4termEv+0x216>
    24b2:	67 e0       	ldi	r22, 0x07	; 7
    24b4:	c7 01       	movw	r24, r14
    24b6:	06 d8       	rcall	.-4084   	; 0x14c4 <_ZN11Interpreter3eatE9TokenType>
    24b8:	b7 01       	movw	r22, r14
    24ba:	ce 01       	movw	r24, r28
    24bc:	01 96       	adiw	r24, 0x01	; 1
    24be:	49 de       	rcall	.-878    	; 0x2152 <_ZN11Interpreter6factorEv>
    24c0:	ae 01       	movw	r20, r28
    24c2:	4f 5f       	subi	r20, 0xFF	; 255
    24c4:	5f 4f       	sbci	r21, 0xFF	; 255
    24c6:	b8 01       	movw	r22, r16
    24c8:	ce 01       	movw	r24, r28
    24ca:	8e 5b       	subi	r24, 0xBE	; 190
    24cc:	9f 4f       	sbci	r25, 0xFF	; 255
    24ce:	0e 94 a0 20 	call	0x4140	; 0x4140 <_ZanRK5ValueS1_>
    24d2:	23 c0       	rjmp	.+70     	; 0x251a <_ZN11Interpreter4termEv+0x216>
    24d4:	68 e0       	ldi	r22, 0x08	; 8
    24d6:	c7 01       	movw	r24, r14
    24d8:	0e 94 62 0a 	call	0x14c4	; 0x14c4 <_ZN11Interpreter3eatE9TokenType>
    24dc:	b7 01       	movw	r22, r14
    24de:	ce 01       	movw	r24, r28
    24e0:	01 96       	adiw	r24, 0x01	; 1
    24e2:	37 de       	rcall	.-914    	; 0x2152 <_ZN11Interpreter6factorEv>
    24e4:	ae 01       	movw	r20, r28
    24e6:	4f 5f       	subi	r20, 0xFF	; 255
    24e8:	5f 4f       	sbci	r21, 0xFF	; 255
    24ea:	b8 01       	movw	r22, r16
    24ec:	ce 01       	movw	r24, r28
    24ee:	8e 5b       	subi	r24, 0xBE	; 190
    24f0:	9f 4f       	sbci	r25, 0xFF	; 255
    24f2:	0e 94 f6 21 	call	0x43ec	; 0x43ec <_ZorRK5ValueS1_>
    24f6:	11 c0       	rjmp	.+34     	; 0x251a <_ZN11Interpreter4termEv+0x216>
    24f8:	69 e0       	ldi	r22, 0x09	; 9
    24fa:	c7 01       	movw	r24, r14
    24fc:	0e 94 62 0a 	call	0x14c4	; 0x14c4 <_ZN11Interpreter3eatE9TokenType>
    2500:	b7 01       	movw	r22, r14
    2502:	ce 01       	movw	r24, r28
    2504:	01 96       	adiw	r24, 0x01	; 1
    2506:	25 de       	rcall	.-950    	; 0x2152 <_ZN11Interpreter6factorEv>
    2508:	ae 01       	movw	r20, r28
    250a:	4f 5f       	subi	r20, 0xFF	; 255
    250c:	5f 4f       	sbci	r21, 0xFF	; 255
    250e:	b8 01       	movw	r22, r16
    2510:	ce 01       	movw	r24, r28
    2512:	8e 5b       	subi	r24, 0xBE	; 190
    2514:	9f 4f       	sbci	r25, 0xFF	; 255
    2516:	0e 94 d0 22 	call	0x45a0	; 0x45a0 <_ZeoRK5ValueS1_>
    251a:	81 e4       	ldi	r24, 0x41	; 65
    251c:	fe 01       	movw	r30, r28
    251e:	ee 5b       	subi	r30, 0xBE	; 190
    2520:	ff 4f       	sbci	r31, 0xFF	; 255
    2522:	d8 01       	movw	r26, r16
    2524:	01 90       	ld	r0, Z+
    2526:	0d 92       	st	X+, r0
    2528:	8a 95       	dec	r24
    252a:	e1 f7       	brne	.-8      	; 0x2524 <_ZN11Interpreter4termEv+0x220>
    252c:	04 cf       	rjmp	.-504    	; 0x2336 <_ZN11Interpreter4termEv+0x32>
    252e:	c8 01       	movw	r24, r16
    2530:	ce 57       	subi	r28, 0x7E	; 126
    2532:	df 4f       	sbci	r29, 0xFF	; 255
    2534:	0f b6       	in	r0, 0x3f	; 63
    2536:	f8 94       	cli
    2538:	de bf       	out	0x3e, r29	; 62
    253a:	0f be       	out	0x3f, r0	; 63
    253c:	cd bf       	out	0x3d, r28	; 61
    253e:	df 91       	pop	r29
    2540:	cf 91       	pop	r28
    2542:	1f 91       	pop	r17
    2544:	0f 91       	pop	r16
    2546:	ff 90       	pop	r15
    2548:	ef 90       	pop	r14
    254a:	df 90       	pop	r13
    254c:	cf 90       	pop	r12
    254e:	08 95       	ret

00002550 <_ZN11Interpreter4exprEv>:
    2550:	cf 92       	push	r12
    2552:	df 92       	push	r13
    2554:	ef 92       	push	r14
    2556:	ff 92       	push	r15
    2558:	0f 93       	push	r16
    255a:	1f 93       	push	r17
    255c:	cf 93       	push	r28
    255e:	df 93       	push	r29
    2560:	cd b7       	in	r28, 0x3d	; 61
    2562:	de b7       	in	r29, 0x3e	; 62
    2564:	c2 58       	subi	r28, 0x82	; 130
    2566:	d1 09       	sbc	r29, r1
    2568:	0f b6       	in	r0, 0x3f	; 63
    256a:	f8 94       	cli
    256c:	de bf       	out	0x3e, r29	; 62
    256e:	0f be       	out	0x3f, r0	; 63
    2570:	cd bf       	out	0x3d, r28	; 61
    2572:	8c 01       	movw	r16, r24
    2574:	7b 01       	movw	r14, r22
    2576:	c6 de       	rcall	.-628    	; 0x2304 <_ZN11Interpreter4termEv>
    2578:	67 01       	movw	r12, r14
    257a:	81 e7       	ldi	r24, 0x71	; 113
    257c:	c8 1a       	sub	r12, r24
    257e:	88 ef       	ldi	r24, 0xF8	; 248
    2580:	d8 0a       	sbc	r13, r24
    2582:	f6 01       	movw	r30, r12
    2584:	80 81       	ld	r24, Z
    2586:	83 30       	cpi	r24, 0x03	; 3
    2588:	e9 f0       	breq	.+58     	; 0x25c4 <_ZN11Interpreter4exprEv+0x74>
    258a:	81 30       	cpi	r24, 0x01	; 1
    258c:	69 f1       	breq	.+90     	; 0x25e8 <_ZN11Interpreter4exprEv+0x98>
    258e:	89 31       	cpi	r24, 0x19	; 25
    2590:	09 f4       	brne	.+2      	; 0x2594 <_ZN11Interpreter4exprEv+0x44>
    2592:	3c c0       	rjmp	.+120    	; 0x260c <_ZN11Interpreter4exprEv+0xbc>
    2594:	85 30       	cpi	r24, 0x05	; 5
    2596:	09 f4       	brne	.+2      	; 0x259a <_ZN11Interpreter4exprEv+0x4a>
    2598:	4b c0       	rjmp	.+150    	; 0x2630 <_ZN11Interpreter4exprEv+0xe0>
    259a:	86 30       	cpi	r24, 0x06	; 6
    259c:	09 f0       	breq	.+2      	; 0x25a0 <_ZN11Interpreter4exprEv+0x50>
    259e:	63 c0       	rjmp	.+198    	; 0x2666 <_ZN11Interpreter4exprEv+0x116>
    25a0:	66 e0       	ldi	r22, 0x06	; 6
    25a2:	c7 01       	movw	r24, r14
    25a4:	0e 94 62 0a 	call	0x14c4	; 0x14c4 <_ZN11Interpreter3eatE9TokenType>
    25a8:	b7 01       	movw	r22, r14
    25aa:	ce 01       	movw	r24, r28
    25ac:	01 96       	adiw	r24, 0x01	; 1
    25ae:	aa de       	rcall	.-684    	; 0x2304 <_ZN11Interpreter4termEv>
    25b0:	ae 01       	movw	r20, r28
    25b2:	4f 5f       	subi	r20, 0xFF	; 255
    25b4:	5f 4f       	sbci	r21, 0xFF	; 255
    25b6:	b8 01       	movw	r22, r16
    25b8:	ce 01       	movw	r24, r28
    25ba:	8e 5b       	subi	r24, 0xBE	; 190
    25bc:	9f 4f       	sbci	r25, 0xFF	; 255
    25be:	0e 94 20 20 	call	0x4040	; 0x4040 <_ZrsRK5ValueS1_>
    25c2:	47 c0       	rjmp	.+142    	; 0x2652 <_ZN11Interpreter4exprEv+0x102>
    25c4:	63 e0       	ldi	r22, 0x03	; 3
    25c6:	c7 01       	movw	r24, r14
    25c8:	0e 94 62 0a 	call	0x14c4	; 0x14c4 <_ZN11Interpreter3eatE9TokenType>
    25cc:	b7 01       	movw	r22, r14
    25ce:	ce 01       	movw	r24, r28
    25d0:	01 96       	adiw	r24, 0x01	; 1
    25d2:	98 de       	rcall	.-720    	; 0x2304 <_ZN11Interpreter4termEv>
    25d4:	ae 01       	movw	r20, r28
    25d6:	4f 5f       	subi	r20, 0xFF	; 255
    25d8:	5f 4f       	sbci	r21, 0xFF	; 255
    25da:	b8 01       	movw	r22, r16
    25dc:	ce 01       	movw	r24, r28
    25de:	8e 5b       	subi	r24, 0xBE	; 190
    25e0:	9f 4f       	sbci	r25, 0xFF	; 255
    25e2:	0e 94 2a 1c 	call	0x3854	; 0x3854 <_ZplRK5ValueS1_>
    25e6:	35 c0       	rjmp	.+106    	; 0x2652 <_ZN11Interpreter4exprEv+0x102>
    25e8:	61 e0       	ldi	r22, 0x01	; 1
    25ea:	c7 01       	movw	r24, r14
    25ec:	0e 94 62 0a 	call	0x14c4	; 0x14c4 <_ZN11Interpreter3eatE9TokenType>
    25f0:	b7 01       	movw	r22, r14
    25f2:	ce 01       	movw	r24, r28
    25f4:	01 96       	adiw	r24, 0x01	; 1
    25f6:	86 de       	rcall	.-756    	; 0x2304 <_ZN11Interpreter4termEv>
    25f8:	ae 01       	movw	r20, r28
    25fa:	4f 5f       	subi	r20, 0xFF	; 255
    25fc:	5f 4f       	sbci	r21, 0xFF	; 255
    25fe:	b8 01       	movw	r22, r16
    2600:	ce 01       	movw	r24, r28
    2602:	8e 5b       	subi	r24, 0xBE	; 190
    2604:	9f 4f       	sbci	r25, 0xFF	; 255
    2606:	0e 94 7f 1d 	call	0x3afe	; 0x3afe <_ZmiRK5ValueS1_>
    260a:	23 c0       	rjmp	.+70     	; 0x2652 <_ZN11Interpreter4exprEv+0x102>
    260c:	69 e1       	ldi	r22, 0x19	; 25
    260e:	c7 01       	movw	r24, r14
    2610:	0e 94 62 0a 	call	0x14c4	; 0x14c4 <_ZN11Interpreter3eatE9TokenType>
    2614:	b7 01       	movw	r22, r14
    2616:	ce 01       	movw	r24, r28
    2618:	01 96       	adiw	r24, 0x01	; 1
    261a:	74 de       	rcall	.-792    	; 0x2304 <_ZN11Interpreter4termEv>
    261c:	ae 01       	movw	r20, r28
    261e:	4f 5f       	subi	r20, 0xFF	; 255
    2620:	5f 4f       	sbci	r21, 0xFF	; 255
    2622:	b8 01       	movw	r22, r16
    2624:	ce 01       	movw	r24, r28
    2626:	8e 5b       	subi	r24, 0xBE	; 190
    2628:	9f 4f       	sbci	r25, 0xFF	; 255
    262a:	0e 94 a0 20 	call	0x4140	; 0x4140 <_ZanRK5ValueS1_>
    262e:	11 c0       	rjmp	.+34     	; 0x2652 <_ZN11Interpreter4exprEv+0x102>
    2630:	65 e0       	ldi	r22, 0x05	; 5
    2632:	c7 01       	movw	r24, r14
    2634:	0e 94 62 0a 	call	0x14c4	; 0x14c4 <_ZN11Interpreter3eatE9TokenType>
    2638:	b7 01       	movw	r22, r14
    263a:	ce 01       	movw	r24, r28
    263c:	01 96       	adiw	r24, 0x01	; 1
    263e:	62 de       	rcall	.-828    	; 0x2304 <_ZN11Interpreter4termEv>
    2640:	ae 01       	movw	r20, r28
    2642:	4f 5f       	subi	r20, 0xFF	; 255
    2644:	5f 4f       	sbci	r21, 0xFF	; 255
    2646:	b8 01       	movw	r22, r16
    2648:	ce 01       	movw	r24, r28
    264a:	8e 5b       	subi	r24, 0xBE	; 190
    264c:	9f 4f       	sbci	r25, 0xFF	; 255
    264e:	0e 94 a0 1f 	call	0x3f40	; 0x3f40 <_ZlsRK5ValueS1_>
    2652:	81 e4       	ldi	r24, 0x41	; 65
    2654:	fe 01       	movw	r30, r28
    2656:	ee 5b       	subi	r30, 0xBE	; 190
    2658:	ff 4f       	sbci	r31, 0xFF	; 255
    265a:	d8 01       	movw	r26, r16
    265c:	01 90       	ld	r0, Z+
    265e:	0d 92       	st	X+, r0
    2660:	8a 95       	dec	r24
    2662:	e1 f7       	brne	.-8      	; 0x265c <_ZN11Interpreter4exprEv+0x10c>
    2664:	8e cf       	rjmp	.-228    	; 0x2582 <_ZN11Interpreter4exprEv+0x32>
    2666:	c8 01       	movw	r24, r16
    2668:	ce 57       	subi	r28, 0x7E	; 126
    266a:	df 4f       	sbci	r29, 0xFF	; 255
    266c:	0f b6       	in	r0, 0x3f	; 63
    266e:	f8 94       	cli
    2670:	de bf       	out	0x3e, r29	; 62
    2672:	0f be       	out	0x3f, r0	; 63
    2674:	cd bf       	out	0x3d, r28	; 61
    2676:	df 91       	pop	r29
    2678:	cf 91       	pop	r28
    267a:	1f 91       	pop	r17
    267c:	0f 91       	pop	r16
    267e:	ff 90       	pop	r15
    2680:	ef 90       	pop	r14
    2682:	df 90       	pop	r13
    2684:	cf 90       	pop	r12
    2686:	08 95       	ret

00002688 <_ZN11Interpreter20assignment_statementEv>:
    2688:	bf 92       	push	r11
    268a:	cf 92       	push	r12
    268c:	df 92       	push	r13
    268e:	ef 92       	push	r14
    2690:	ff 92       	push	r15
    2692:	0f 93       	push	r16
    2694:	1f 93       	push	r17
    2696:	cf 93       	push	r28
    2698:	df 93       	push	r29
    269a:	cd b7       	in	r28, 0x3d	; 61
    269c:	de b7       	in	r29, 0x3e	; 62
    269e:	c8 5d       	subi	r28, 0xD8	; 216
    26a0:	d1 09       	sbc	r29, r1
    26a2:	0f b6       	in	r0, 0x3f	; 63
    26a4:	f8 94       	cli
    26a6:	de bf       	out	0x3e, r29	; 62
    26a8:	0f be       	out	0x3f, r0	; 63
    26aa:	cd bf       	out	0x3d, r28	; 61
    26ac:	8c 01       	movw	r16, r24
    26ae:	7c 01       	movw	r14, r24
    26b0:	81 e7       	ldi	r24, 0x71	; 113
    26b2:	e8 1a       	sub	r14, r24
    26b4:	88 ef       	ldi	r24, 0xF8	; 248
    26b6:	f8 0a       	sbc	r15, r24
    26b8:	f7 01       	movw	r30, r14
    26ba:	80 81       	ld	r24, Z
    26bc:	89 32       	cpi	r24, 0x29	; 41
    26be:	39 f4       	brne	.+14     	; 0x26ce <_ZN11Interpreter20assignment_statementEv+0x46>
    26c0:	69 e2       	ldi	r22, 0x29	; 41
    26c2:	c8 01       	movw	r24, r16
    26c4:	0e 94 62 0a 	call	0x14c4	; 0x14c4 <_ZN11Interpreter3eatE9TokenType>
    26c8:	bb 24       	eor	r11, r11
    26ca:	b3 94       	inc	r11
    26cc:	01 c0       	rjmp	.+2      	; 0x26d0 <_ZN11Interpreter20assignment_statementEv+0x48>
    26ce:	b1 2c       	mov	r11, r1
    26d0:	68 01       	movw	r12, r16
    26d2:	f0 e7       	ldi	r31, 0x70	; 112
    26d4:	cf 1a       	sub	r12, r31
    26d6:	f8 ef       	ldi	r31, 0xF8	; 248
    26d8:	df 0a       	sbc	r13, r31
    26da:	c6 01       	movw	r24, r12
    26dc:	0e 94 f6 27 	call	0x4fec	; 0x4fec <_ZN5Value8ToStringEv>
    26e0:	bc 01       	movw	r22, r24
    26e2:	ce 01       	movw	r24, r28
    26e4:	8d 57       	subi	r24, 0x7D	; 125
    26e6:	9f 4f       	sbci	r25, 0xFF	; 255
    26e8:	0e 94 f0 31 	call	0x63e0	; 0x63e0 <strcpy>
    26ec:	6d e0       	ldi	r22, 0x0D	; 13
    26ee:	c8 01       	movw	r24, r16
    26f0:	0e 94 62 0a 	call	0x14c4	; 0x14c4 <_ZN11Interpreter3eatE9TokenType>
    26f4:	b1 10       	cpse	r11, r1
    26f6:	97 c0       	rjmp	.+302    	; 0x2826 <_ZN11Interpreter20assignment_statementEv+0x19e>
    26f8:	f7 01       	movw	r30, r14
    26fa:	80 81       	ld	r24, Z
    26fc:	80 32       	cpi	r24, 0x20	; 32
    26fe:	d9 f5       	brne	.+118    	; 0x2776 <_ZN11Interpreter20assignment_statementEv+0xee>
    2700:	60 e2       	ldi	r22, 0x20	; 32
    2702:	c8 01       	movw	r24, r16
    2704:	0e 94 62 0a 	call	0x14c4	; 0x14c4 <_ZN11Interpreter3eatE9TokenType>
    2708:	b8 01       	movw	r22, r16
    270a:	ce 01       	movw	r24, r28
    270c:	01 96       	adiw	r24, 0x01	; 1
    270e:	20 df       	rcall	.-448    	; 0x2550 <_ZN11Interpreter4exprEv>
    2710:	ed 80       	ldd	r14, Y+5	; 0x05
    2712:	fe 80       	ldd	r15, Y+6	; 0x06
    2714:	61 e2       	ldi	r22, 0x21	; 33
    2716:	c8 01       	movw	r24, r16
    2718:	0e 94 62 0a 	call	0x14c4	; 0x14c4 <_ZN11Interpreter3eatE9TokenType>
    271c:	63 e1       	ldi	r22, 0x13	; 19
    271e:	c8 01       	movw	r24, r16
    2720:	0e 94 62 0a 	call	0x14c4	; 0x14c4 <_ZN11Interpreter3eatE9TokenType>
    2724:	ae 01       	movw	r20, r28
    2726:	4d 57       	subi	r20, 0x7D	; 125
    2728:	5f 4f       	sbci	r21, 0xFF	; 255
    272a:	b8 01       	movw	r22, r16
    272c:	ce 01       	movw	r24, r28
    272e:	8e 5b       	subi	r24, 0xBE	; 190
    2730:	9f 4f       	sbci	r25, 0xFF	; 255
    2732:	0e 94 9d 0a 	call	0x153a	; 0x153a <_ZN11Interpreter10lookup_varEPKc>
    2736:	b8 01       	movw	r22, r16
    2738:	ce 01       	movw	r24, r28
    273a:	01 96       	adiw	r24, 0x01	; 1
    273c:	09 df       	rcall	.-494    	; 0x2550 <_ZN11Interpreter4exprEv>
    273e:	21 96       	adiw	r28, 0x01	; 1
    2740:	8f ad       	ldd	r24, Y+63	; 0x3f
    2742:	21 97       	sbiw	r28, 0x01	; 1
    2744:	81 11       	cpse	r24, r1
    2746:	09 c0       	rjmp	.+18     	; 0x275a <_ZN11Interpreter20assignment_statementEv+0xd2>
    2748:	4d 81       	ldd	r20, Y+5	; 0x05
    274a:	5e 81       	ldd	r21, Y+6	; 0x06
    274c:	b7 01       	movw	r22, r14
    274e:	ce 01       	movw	r24, r28
    2750:	8e 5b       	subi	r24, 0xBE	; 190
    2752:	9f 4f       	sbci	r25, 0xFF	; 255
    2754:	0e 94 71 28 	call	0x50e2	; 0x50e2 <_ZN5Value12update_arrayEii>
    2758:	b3 c0       	rjmp	.+358    	; 0x28c0 <_ZN11Interpreter20assignment_statementEv+0x238>
    275a:	83 30       	cpi	r24, 0x03	; 3
    275c:	09 f0       	breq	.+2      	; 0x2760 <_ZN11Interpreter20assignment_statementEv+0xd8>
    275e:	b0 c0       	rjmp	.+352    	; 0x28c0 <_ZN11Interpreter20assignment_statementEv+0x238>
    2760:	2f 81       	ldd	r18, Y+7	; 0x07
    2762:	38 85       	ldd	r19, Y+8	; 0x08
    2764:	49 85       	ldd	r20, Y+9	; 0x09
    2766:	5a 85       	ldd	r21, Y+10	; 0x0a
    2768:	b7 01       	movw	r22, r14
    276a:	ce 01       	movw	r24, r28
    276c:	8e 5b       	subi	r24, 0xBE	; 190
    276e:	9f 4f       	sbci	r25, 0xFF	; 255
    2770:	0e 94 80 28 	call	0x5100	; 0x5100 <_ZN5Value12update_arrayEid>
    2774:	a5 c0       	rjmp	.+330    	; 0x28c0 <_ZN11Interpreter20assignment_statementEv+0x238>
    2776:	83 31       	cpi	r24, 0x13	; 19
    2778:	39 f5       	brne	.+78     	; 0x27c8 <_ZN11Interpreter20assignment_statementEv+0x140>
    277a:	63 e1       	ldi	r22, 0x13	; 19
    277c:	c8 01       	movw	r24, r16
    277e:	0e 94 62 0a 	call	0x14c4	; 0x14c4 <_ZN11Interpreter3eatE9TokenType>
    2782:	b8 01       	movw	r22, r16
    2784:	ce 01       	movw	r24, r28
    2786:	01 96       	adiw	r24, 0x01	; 1
    2788:	e3 de       	rcall	.-570    	; 0x2550 <_ZN11Interpreter4exprEv>
    278a:	8d b7       	in	r24, 0x3d	; 61
    278c:	9e b7       	in	r25, 0x3e	; 62
    278e:	81 54       	subi	r24, 0x41	; 65
    2790:	91 09       	sbc	r25, r1
    2792:	0f b6       	in	r0, 0x3f	; 63
    2794:	f8 94       	cli
    2796:	9e bf       	out	0x3e, r25	; 62
    2798:	0f be       	out	0x3f, r0	; 63
    279a:	8d bf       	out	0x3d, r24	; 61
    279c:	ad b7       	in	r26, 0x3d	; 61
    279e:	be b7       	in	r27, 0x3e	; 62
    27a0:	11 96       	adiw	r26, 0x01	; 1
    27a2:	81 e4       	ldi	r24, 0x41	; 65
    27a4:	fe 01       	movw	r30, r28
    27a6:	31 96       	adiw	r30, 0x01	; 1
    27a8:	01 90       	ld	r0, Z+
    27aa:	0d 92       	st	X+, r0
    27ac:	8a 95       	dec	r24
    27ae:	e1 f7       	brne	.-8      	; 0x27a8 <_ZN11Interpreter20assignment_statementEv+0x120>
    27b0:	be 01       	movw	r22, r28
    27b2:	6d 57       	subi	r22, 0x7D	; 125
    27b4:	7f 4f       	sbci	r23, 0xFF	; 255
    27b6:	c8 01       	movw	r24, r16
    27b8:	0e 94 04 0b 	call	0x1608	; 0x1608 <_ZN11Interpreter9store_varEPKc5Value>
    27bc:	0f b6       	in	r0, 0x3f	; 63
    27be:	f8 94       	cli
    27c0:	de bf       	out	0x3e, r29	; 62
    27c2:	0f be       	out	0x3f, r0	; 63
    27c4:	cd bf       	out	0x3d, r28	; 61
    27c6:	7c c0       	rjmp	.+248    	; 0x28c0 <_ZN11Interpreter20assignment_statementEv+0x238>
    27c8:	f8 01       	movw	r30, r16
    27ca:	e6 57       	subi	r30, 0x76	; 118
    27cc:	f8 4f       	sbci	r31, 0xF8	; 248
    27ce:	11 82       	std	Z+1, r1	; 0x01
    27d0:	10 82       	st	Z, r1
    27d2:	60 e0       	ldi	r22, 0x00	; 0
    27d4:	70 e0       	ldi	r23, 0x00	; 0
    27d6:	c8 01       	movw	r24, r16
    27d8:	0e 94 1c 02 	call	0x438	; 0x438 <_ZN11Interpreter17get_next_pgm_byteEi>
    27dc:	f8 01       	movw	r30, r16
    27de:	e2 57       	subi	r30, 0x72	; 114
    27e0:	f8 4f       	sbci	r31, 0xF8	; 248
    27e2:	80 83       	st	Z, r24
    27e4:	b8 01       	movw	r22, r16
    27e6:	ce 01       	movw	r24, r28
    27e8:	89 56       	subi	r24, 0x69	; 105
    27ea:	9f 4f       	sbci	r25, 0xFF	; 255
    27ec:	0e 94 eb 08 	call	0x11d6	; 0x11d6 <_ZN11Interpreter14get_next_tokenEv>
    27f0:	82 e4       	ldi	r24, 0x42	; 66
    27f2:	fe 01       	movw	r30, r28
    27f4:	e9 56       	subi	r30, 0x69	; 105
    27f6:	ff 4f       	sbci	r31, 0xFF	; 255
    27f8:	d7 01       	movw	r26, r14
    27fa:	01 90       	ld	r0, Z+
    27fc:	0d 92       	st	X+, r0
    27fe:	8a 95       	dec	r24
    2800:	e1 f7       	brne	.-8      	; 0x27fa <_ZN11Interpreter20assignment_statementEv+0x172>
    2802:	b8 01       	movw	r22, r16
    2804:	ce 01       	movw	r24, r28
    2806:	01 96       	adiw	r24, 0x01	; 1
    2808:	a3 de       	rcall	.-698    	; 0x2550 <_ZN11Interpreter4exprEv>
    280a:	f8 01       	movw	r30, r16
    280c:	80 81       	ld	r24, Z
    280e:	88 23       	and	r24, r24
    2810:	09 f4       	brne	.+2      	; 0x2814 <_ZN11Interpreter20assignment_statementEv+0x18c>
    2812:	56 c0       	rjmp	.+172    	; 0x28c0 <_ZN11Interpreter20assignment_statementEv+0x238>
    2814:	ce 01       	movw	r24, r28
    2816:	01 96       	adiw	r24, 0x01	; 1
    2818:	0e 94 f6 27 	call	0x4fec	; 0x4fec <_ZN5Value8ToStringEv>
    281c:	1d d5       	rcall	.+2618   	; 0x3258 <_Z11send_stringPc>
    281e:	82 e3       	ldi	r24, 0x32	; 50
    2820:	93 e0       	ldi	r25, 0x03	; 3
    2822:	1a d5       	rcall	.+2612   	; 0x3258 <_Z11send_stringPc>
    2824:	4d c0       	rjmp	.+154    	; 0x28c0 <_ZN11Interpreter20assignment_statementEv+0x238>
    2826:	60 e2       	ldi	r22, 0x20	; 32
    2828:	c8 01       	movw	r24, r16
    282a:	0e 94 62 0a 	call	0x14c4	; 0x14c4 <_ZN11Interpreter3eatE9TokenType>
    282e:	b8 01       	movw	r22, r16
    2830:	ce 01       	movw	r24, r28
    2832:	01 96       	adiw	r24, 0x01	; 1
    2834:	8d de       	rcall	.-742    	; 0x2550 <_ZN11Interpreter4exprEv>
    2836:	ed 80       	ldd	r14, Y+5	; 0x05
    2838:	fe 80       	ldd	r15, Y+6	; 0x06
    283a:	61 e2       	ldi	r22, 0x21	; 33
    283c:	c8 01       	movw	r24, r16
    283e:	0e 94 62 0a 	call	0x14c4	; 0x14c4 <_ZN11Interpreter3eatE9TokenType>
    2842:	6c e2       	ldi	r22, 0x2C	; 44
    2844:	c8 01       	movw	r24, r16
    2846:	0e 94 62 0a 	call	0x14c4	; 0x14c4 <_ZN11Interpreter3eatE9TokenType>
    284a:	c6 01       	movw	r24, r12
    284c:	0e 94 f6 27 	call	0x4fec	; 0x4fec <_ZN5Value8ToStringEv>
    2850:	bc 01       	movw	r22, r24
    2852:	ce 01       	movw	r24, r28
    2854:	8e 5b       	subi	r24, 0xBE	; 190
    2856:	9f 4f       	sbci	r25, 0xFF	; 255
    2858:	0e 94 f0 31 	call	0x63e0	; 0x63e0 <strcpy>
    285c:	64 e4       	ldi	r22, 0x44	; 68
    285e:	73 e0       	ldi	r23, 0x03	; 3
    2860:	ce 01       	movw	r24, r28
    2862:	8e 5b       	subi	r24, 0xBE	; 190
    2864:	9f 4f       	sbci	r25, 0xFF	; 255
    2866:	0e 94 53 04 	call	0x8a6	; 0x8a6 <_Z10nocase_cmpPcPKc>
    286a:	a7 01       	movw	r20, r14
    286c:	89 2b       	or	r24, r25
    286e:	11 f4       	brne	.+4      	; 0x2874 <_ZN11Interpreter20assignment_statementEv+0x1ec>
    2870:	60 e0       	ldi	r22, 0x00	; 0
    2872:	01 c0       	rjmp	.+2      	; 0x2876 <_ZN11Interpreter20assignment_statementEv+0x1ee>
    2874:	63 e0       	ldi	r22, 0x03	; 3
    2876:	ce 01       	movw	r24, r28
    2878:	01 96       	adiw	r24, 0x01	; 1
    287a:	b4 d7       	rcall	.+3944   	; 0x37e4 <_ZN5ValueC1E4TYPEi>
    287c:	8d b7       	in	r24, 0x3d	; 61
    287e:	9e b7       	in	r25, 0x3e	; 62
    2880:	81 54       	subi	r24, 0x41	; 65
    2882:	91 09       	sbc	r25, r1
    2884:	0f b6       	in	r0, 0x3f	; 63
    2886:	f8 94       	cli
    2888:	9e bf       	out	0x3e, r25	; 62
    288a:	0f be       	out	0x3f, r0	; 63
    288c:	8d bf       	out	0x3d, r24	; 61
    288e:	ad b7       	in	r26, 0x3d	; 61
    2890:	be b7       	in	r27, 0x3e	; 62
    2892:	11 96       	adiw	r26, 0x01	; 1
    2894:	81 e4       	ldi	r24, 0x41	; 65
    2896:	fe 01       	movw	r30, r28
    2898:	31 96       	adiw	r30, 0x01	; 1
    289a:	01 90       	ld	r0, Z+
    289c:	0d 92       	st	X+, r0
    289e:	8a 95       	dec	r24
    28a0:	e1 f7       	brne	.-8      	; 0x289a <_ZN11Interpreter20assignment_statementEv+0x212>
    28a2:	be 01       	movw	r22, r28
    28a4:	6d 57       	subi	r22, 0x7D	; 125
    28a6:	7f 4f       	sbci	r23, 0xFF	; 255
    28a8:	c8 01       	movw	r24, r16
    28aa:	0e 94 04 0b 	call	0x1608	; 0x1608 <_ZN11Interpreter9store_varEPKc5Value>
    28ae:	0f b6       	in	r0, 0x3f	; 63
    28b0:	f8 94       	cli
    28b2:	de bf       	out	0x3e, r29	; 62
    28b4:	0f be       	out	0x3f, r0	; 63
    28b6:	cd bf       	out	0x3d, r28	; 61
    28b8:	6d e0       	ldi	r22, 0x0D	; 13
    28ba:	c8 01       	movw	r24, r16
    28bc:	0e 94 62 0a 	call	0x14c4	; 0x14c4 <_ZN11Interpreter3eatE9TokenType>
    28c0:	c8 52       	subi	r28, 0x28	; 40
    28c2:	df 4f       	sbci	r29, 0xFF	; 255
    28c4:	0f b6       	in	r0, 0x3f	; 63
    28c6:	f8 94       	cli
    28c8:	de bf       	out	0x3e, r29	; 62
    28ca:	0f be       	out	0x3f, r0	; 63
    28cc:	cd bf       	out	0x3d, r28	; 61
    28ce:	df 91       	pop	r29
    28d0:	cf 91       	pop	r28
    28d2:	1f 91       	pop	r17
    28d4:	0f 91       	pop	r16
    28d6:	ff 90       	pop	r15
    28d8:	ef 90       	pop	r14
    28da:	df 90       	pop	r13
    28dc:	cf 90       	pop	r12
    28de:	bf 90       	pop	r11
    28e0:	08 95       	ret

000028e2 <_ZN11Interpreter9statementEv>:
    28e2:	0f 93       	push	r16
    28e4:	1f 93       	push	r17
    28e6:	cf 93       	push	r28
    28e8:	df 93       	push	r29
    28ea:	cd b7       	in	r28, 0x3d	; 61
    28ec:	de b7       	in	r29, 0x3e	; 62
    28ee:	c1 54       	subi	r28, 0x41	; 65
    28f0:	d1 09       	sbc	r29, r1
    28f2:	0f b6       	in	r0, 0x3f	; 63
    28f4:	f8 94       	cli
    28f6:	de bf       	out	0x3e, r29	; 62
    28f8:	0f be       	out	0x3f, r0	; 63
    28fa:	cd bf       	out	0x3d, r28	; 61
    28fc:	8c 01       	movw	r16, r24
    28fe:	fc 01       	movw	r30, r24
    2900:	e1 57       	subi	r30, 0x71	; 113
    2902:	f8 4f       	sbci	r31, 0xF8	; 248
    2904:	80 81       	ld	r24, Z
    2906:	8d 30       	cpi	r24, 0x0D	; 13
    2908:	11 f0       	breq	.+4      	; 0x290e <_ZN11Interpreter9statementEv+0x2c>
    290a:	89 32       	cpi	r24, 0x29	; 41
    290c:	19 f4       	brne	.+6      	; 0x2914 <_ZN11Interpreter9statementEv+0x32>
    290e:	c8 01       	movw	r24, r16
    2910:	bb de       	rcall	.-650    	; 0x2688 <_ZN11Interpreter20assignment_statementEv>
    2912:	2e c0       	rjmp	.+92     	; 0x2970 <_ZN11Interpreter9statementEv+0x8e>
    2914:	8d 32       	cpi	r24, 0x2D	; 45
    2916:	31 f4       	brne	.+12     	; 0x2924 <_ZN11Interpreter9statementEv+0x42>
    2918:	b8 01       	movw	r22, r16
    291a:	ce 01       	movw	r24, r28
    291c:	01 96       	adiw	r24, 0x01	; 1
    291e:	0e 94 12 0c 	call	0x1824	; 0x1824 <_ZN11Interpreter13function_callEv>
    2922:	26 c0       	rjmp	.+76     	; 0x2970 <_ZN11Interpreter9statementEv+0x8e>
    2924:	87 32       	cpi	r24, 0x27	; 39
    2926:	19 f4       	brne	.+6      	; 0x292e <_ZN11Interpreter9statementEv+0x4c>
    2928:	c8 01       	movw	r24, r16
    292a:	b7 d2       	rcall	.+1390   	; 0x2e9a <_ZN11Interpreter15while_statementEv>
    292c:	21 c0       	rjmp	.+66     	; 0x2970 <_ZN11Interpreter9statementEv+0x8e>
    292e:	8e 32       	cpi	r24, 0x2E	; 46
    2930:	19 f4       	brne	.+6      	; 0x2938 <_ZN11Interpreter9statementEv+0x56>
    2932:	c8 01       	movw	r24, r16
    2934:	29 d0       	rcall	.+82     	; 0x2988 <_ZN11Interpreter13for_statementEv>
    2936:	1c c0       	rjmp	.+56     	; 0x2970 <_ZN11Interpreter9statementEv+0x8e>
    2938:	8a 30       	cpi	r24, 0x0A	; 10
    293a:	19 f4       	brne	.+6      	; 0x2942 <_ZN11Interpreter9statementEv+0x60>
    293c:	c8 01       	movw	r24, r16
    293e:	2e d2       	rcall	.+1116   	; 0x2d9c <_ZN11Interpreter12if_statementEv>
    2940:	17 c0       	rjmp	.+46     	; 0x2970 <_ZN11Interpreter9statementEv+0x8e>
    2942:	82 33       	cpi	r24, 0x32	; 50
    2944:	19 f4       	brne	.+6      	; 0x294c <_ZN11Interpreter9statementEv+0x6a>
    2946:	c8 01       	movw	r24, r16
    2948:	94 d1       	rcall	.+808    	; 0x2c72 <_ZN11Interpreter15gosub_statementEv>
    294a:	12 c0       	rjmp	.+36     	; 0x2970 <_ZN11Interpreter9statementEv+0x8e>
    294c:	83 32       	cpi	r24, 0x23	; 35
    294e:	81 f4       	brne	.+32     	; 0x2970 <_ZN11Interpreter9statementEv+0x8e>
    2950:	b8 01       	movw	r22, r16
    2952:	ce 01       	movw	r24, r28
    2954:	01 96       	adiw	r24, 0x01	; 1
    2956:	fc dd       	rcall	.-1032   	; 0x2550 <_ZN11Interpreter4exprEv>
    2958:	f8 01       	movw	r30, r16
    295a:	80 81       	ld	r24, Z
    295c:	88 23       	and	r24, r24
    295e:	41 f0       	breq	.+16     	; 0x2970 <_ZN11Interpreter9statementEv+0x8e>
    2960:	ce 01       	movw	r24, r28
    2962:	01 96       	adiw	r24, 0x01	; 1
    2964:	0e 94 f6 27 	call	0x4fec	; 0x4fec <_ZN5Value8ToStringEv>
    2968:	77 d4       	rcall	.+2286   	; 0x3258 <_Z11send_stringPc>
    296a:	82 e3       	ldi	r24, 0x32	; 50
    296c:	93 e0       	ldi	r25, 0x03	; 3
    296e:	74 d4       	rcall	.+2280   	; 0x3258 <_Z11send_stringPc>
    2970:	cf 5b       	subi	r28, 0xBF	; 191
    2972:	df 4f       	sbci	r29, 0xFF	; 255
    2974:	0f b6       	in	r0, 0x3f	; 63
    2976:	f8 94       	cli
    2978:	de bf       	out	0x3e, r29	; 62
    297a:	0f be       	out	0x3f, r0	; 63
    297c:	cd bf       	out	0x3d, r28	; 61
    297e:	df 91       	pop	r29
    2980:	cf 91       	pop	r28
    2982:	1f 91       	pop	r17
    2984:	0f 91       	pop	r16
    2986:	08 95       	ret

00002988 <_ZN11Interpreter13for_statementEv>:
    2988:	6f 92       	push	r6
    298a:	7f 92       	push	r7
    298c:	8f 92       	push	r8
    298e:	9f 92       	push	r9
    2990:	af 92       	push	r10
    2992:	bf 92       	push	r11
    2994:	cf 92       	push	r12
    2996:	df 92       	push	r13
    2998:	ef 92       	push	r14
    299a:	ff 92       	push	r15
    299c:	0f 93       	push	r16
    299e:	1f 93       	push	r17
    29a0:	cf 93       	push	r28
    29a2:	df 93       	push	r29
    29a4:	cd b7       	in	r28, 0x3d	; 61
    29a6:	de b7       	in	r29, 0x3e	; 62
    29a8:	c8 5d       	subi	r28, 0xD8	; 216
    29aa:	d1 09       	sbc	r29, r1
    29ac:	0f b6       	in	r0, 0x3f	; 63
    29ae:	f8 94       	cli
    29b0:	de bf       	out	0x3e, r29	; 62
    29b2:	0f be       	out	0x3f, r0	; 63
    29b4:	cd bf       	out	0x3d, r28	; 61
    29b6:	8c 01       	movw	r16, r24
    29b8:	5c 01       	movw	r10, r24
    29ba:	86 e7       	ldi	r24, 0x76	; 118
    29bc:	a8 1a       	sub	r10, r24
    29be:	88 ef       	ldi	r24, 0xF8	; 248
    29c0:	b8 0a       	sbc	r11, r24
    29c2:	f5 01       	movw	r30, r10
    29c4:	c0 80       	ld	r12, Z
    29c6:	d1 80       	ldd	r13, Z+1	; 0x01
    29c8:	f3 e0       	ldi	r31, 0x03	; 3
    29ca:	cf 0e       	add	r12, r31
    29cc:	d1 1c       	adc	r13, r1
    29ce:	6e e2       	ldi	r22, 0x2E	; 46
    29d0:	c8 01       	movw	r24, r16
    29d2:	0e 94 62 0a 	call	0x14c4	; 0x14c4 <_ZN11Interpreter3eatE9TokenType>
    29d6:	c8 01       	movw	r24, r16
    29d8:	80 57       	subi	r24, 0x70	; 112
    29da:	98 4f       	sbci	r25, 0xF8	; 248
    29dc:	0e 94 f6 27 	call	0x4fec	; 0x4fec <_ZN5Value8ToStringEv>
    29e0:	bc 01       	movw	r22, r24
    29e2:	ce 01       	movw	r24, r28
    29e4:	8d 57       	subi	r24, 0x7D	; 125
    29e6:	9f 4f       	sbci	r25, 0xFF	; 255
    29e8:	0e 94 f0 31 	call	0x63e0	; 0x63e0 <strcpy>
    29ec:	c8 01       	movw	r24, r16
    29ee:	4c de       	rcall	.-872    	; 0x2688 <_ZN11Interpreter20assignment_statementEv>
    29f0:	6f e2       	ldi	r22, 0x2F	; 47
    29f2:	c8 01       	movw	r24, r16
    29f4:	0e 94 62 0a 	call	0x14c4	; 0x14c4 <_ZN11Interpreter3eatE9TokenType>
    29f8:	c8 01       	movw	r24, r16
    29fa:	81 57       	subi	r24, 0x71	; 113
    29fc:	98 4f       	sbci	r25, 0xF8	; 248
    29fe:	7c 01       	movw	r14, r24
    2a00:	38 01       	movw	r6, r16
    2a02:	92 e7       	ldi	r25, 0x72	; 114
    2a04:	69 1a       	sub	r6, r25
    2a06:	98 ef       	ldi	r25, 0xF8	; 248
    2a08:	79 0a       	sbc	r7, r25
    2a0a:	ae 01       	movw	r20, r28
    2a0c:	4d 57       	subi	r20, 0x7D	; 125
    2a0e:	5f 4f       	sbci	r21, 0xFF	; 255
    2a10:	b8 01       	movw	r22, r16
    2a12:	ce 01       	movw	r24, r28
    2a14:	8e 5b       	subi	r24, 0xBE	; 190
    2a16:	9f 4f       	sbci	r25, 0xFF	; 255
    2a18:	0e 94 9d 0a 	call	0x153a	; 0x153a <_ZN11Interpreter10lookup_varEPKc>
    2a1c:	28 96       	adiw	r28, 0x08	; 8
    2a1e:	8e ac       	ldd	r8, Y+62	; 0x3e
    2a20:	9f ac       	ldd	r9, Y+63	; 0x3f
    2a22:	28 97       	sbiw	r28, 0x08	; 8
    2a24:	b8 01       	movw	r22, r16
    2a26:	ce 01       	movw	r24, r28
    2a28:	01 96       	adiw	r24, 0x01	; 1
    2a2a:	92 dd       	rcall	.-1244   	; 0x2550 <_ZN11Interpreter4exprEv>
    2a2c:	8d 81       	ldd	r24, Y+5	; 0x05
    2a2e:	9e 81       	ldd	r25, Y+6	; 0x06
    2a30:	88 15       	cp	r24, r8
    2a32:	99 05       	cpc	r25, r9
    2a34:	24 f4       	brge	.+8      	; 0x2a3e <_ZN11Interpreter13for_statementEv+0xb6>
    2a36:	cc 24       	eor	r12, r12
    2a38:	c3 94       	inc	r12
    2a3a:	d1 2c       	mov	r13, r1
    2a3c:	74 c0       	rjmp	.+232    	; 0x2b26 <_ZN11Interpreter13for_statementEv+0x19e>
    2a3e:	f7 01       	movw	r30, r14
    2a40:	80 81       	ld	r24, Z
    2a42:	80 33       	cpi	r24, 0x30	; 48
    2a44:	59 f4       	brne	.+22     	; 0x2a5c <_ZN11Interpreter13for_statementEv+0xd4>
    2a46:	60 e3       	ldi	r22, 0x30	; 48
    2a48:	c8 01       	movw	r24, r16
    2a4a:	0e 94 62 0a 	call	0x14c4	; 0x14c4 <_ZN11Interpreter3eatE9TokenType>
    2a4e:	b8 01       	movw	r22, r16
    2a50:	ce 01       	movw	r24, r28
    2a52:	01 96       	adiw	r24, 0x01	; 1
    2a54:	7d dd       	rcall	.-1286   	; 0x2550 <_ZN11Interpreter4exprEv>
    2a56:	8d 80       	ldd	r8, Y+5	; 0x05
    2a58:	9e 80       	ldd	r9, Y+6	; 0x06
    2a5a:	03 c0       	rjmp	.+6      	; 0x2a62 <_ZN11Interpreter13for_statementEv+0xda>
    2a5c:	88 24       	eor	r8, r8
    2a5e:	83 94       	inc	r8
    2a60:	91 2c       	mov	r9, r1
    2a62:	f7 01       	movw	r30, r14
    2a64:	80 81       	ld	r24, Z
    2a66:	81 33       	cpi	r24, 0x31	; 49
    2a68:	59 f0       	breq	.+22     	; 0x2a80 <_ZN11Interpreter13for_statementEv+0xf8>
    2a6a:	c8 01       	movw	r24, r16
    2a6c:	3a df       	rcall	.-396    	; 0x28e2 <_ZN11Interpreter9statementEv>
    2a6e:	f7 01       	movw	r30, r14
    2a70:	80 81       	ld	r24, Z
    2a72:	87 31       	cpi	r24, 0x17	; 23
    2a74:	b1 f7       	brne	.-20     	; 0x2a62 <_ZN11Interpreter13for_statementEv+0xda>
    2a76:	67 e1       	ldi	r22, 0x17	; 23
    2a78:	c8 01       	movw	r24, r16
    2a7a:	0e 94 62 0a 	call	0x14c4	; 0x14c4 <_ZN11Interpreter3eatE9TokenType>
    2a7e:	f1 cf       	rjmp	.-30     	; 0x2a62 <_ZN11Interpreter13for_statementEv+0xda>
    2a80:	ae 01       	movw	r20, r28
    2a82:	4d 57       	subi	r20, 0x7D	; 125
    2a84:	5f 4f       	sbci	r21, 0xFF	; 255
    2a86:	b8 01       	movw	r22, r16
    2a88:	ce 01       	movw	r24, r28
    2a8a:	8e 5b       	subi	r24, 0xBE	; 190
    2a8c:	9f 4f       	sbci	r25, 0xFF	; 255
    2a8e:	0e 94 9d 0a 	call	0x153a	; 0x153a <_ZN11Interpreter10lookup_varEPKc>
    2a92:	28 96       	adiw	r28, 0x08	; 8
    2a94:	6e ad       	ldd	r22, Y+62	; 0x3e
    2a96:	7f ad       	ldd	r23, Y+63	; 0x3f
    2a98:	28 97       	sbiw	r28, 0x08	; 8
    2a9a:	68 0d       	add	r22, r8
    2a9c:	79 1d       	adc	r23, r9
    2a9e:	ce 01       	movw	r24, r28
    2aa0:	01 96       	adiw	r24, 0x01	; 1
    2aa2:	4d d6       	rcall	.+3226   	; 0x373e <_ZN5ValueC1Ei>
    2aa4:	8d b7       	in	r24, 0x3d	; 61
    2aa6:	9e b7       	in	r25, 0x3e	; 62
    2aa8:	81 54       	subi	r24, 0x41	; 65
    2aaa:	91 09       	sbc	r25, r1
    2aac:	0f b6       	in	r0, 0x3f	; 63
    2aae:	f8 94       	cli
    2ab0:	9e bf       	out	0x3e, r25	; 62
    2ab2:	0f be       	out	0x3f, r0	; 63
    2ab4:	8d bf       	out	0x3d, r24	; 61
    2ab6:	ad b7       	in	r26, 0x3d	; 61
    2ab8:	be b7       	in	r27, 0x3e	; 62
    2aba:	11 96       	adiw	r26, 0x01	; 1
    2abc:	81 e4       	ldi	r24, 0x41	; 65
    2abe:	fe 01       	movw	r30, r28
    2ac0:	31 96       	adiw	r30, 0x01	; 1
    2ac2:	01 90       	ld	r0, Z+
    2ac4:	0d 92       	st	X+, r0
    2ac6:	8a 95       	dec	r24
    2ac8:	e1 f7       	brne	.-8      	; 0x2ac2 <_ZN11Interpreter13for_statementEv+0x13a>
    2aca:	be 01       	movw	r22, r28
    2acc:	6d 57       	subi	r22, 0x7D	; 125
    2ace:	7f 4f       	sbci	r23, 0xFF	; 255
    2ad0:	c8 01       	movw	r24, r16
    2ad2:	0e 94 04 0b 	call	0x1608	; 0x1608 <_ZN11Interpreter9store_varEPKc5Value>
    2ad6:	f5 01       	movw	r30, r10
    2ad8:	d1 82       	std	Z+1, r13	; 0x01
    2ada:	c0 82       	st	Z, r12
    2adc:	0f b6       	in	r0, 0x3f	; 63
    2ade:	f8 94       	cli
    2ae0:	de bf       	out	0x3e, r29	; 62
    2ae2:	0f be       	out	0x3f, r0	; 63
    2ae4:	cd bf       	out	0x3d, r28	; 61
    2ae6:	b6 01       	movw	r22, r12
    2ae8:	c8 01       	movw	r24, r16
    2aea:	0e 94 1c 02 	call	0x438	; 0x438 <_ZN11Interpreter17get_next_pgm_byteEi>
    2aee:	f3 01       	movw	r30, r6
    2af0:	80 83       	st	Z, r24
    2af2:	b8 01       	movw	r22, r16
    2af4:	ce 01       	movw	r24, r28
    2af6:	89 56       	subi	r24, 0x69	; 105
    2af8:	9f 4f       	sbci	r25, 0xFF	; 255
    2afa:	0e 94 eb 08 	call	0x11d6	; 0x11d6 <_ZN11Interpreter14get_next_tokenEv>
    2afe:	82 e4       	ldi	r24, 0x42	; 66
    2b00:	fe 01       	movw	r30, r28
    2b02:	e9 56       	subi	r30, 0x69	; 105
    2b04:	ff 4f       	sbci	r31, 0xFF	; 255
    2b06:	d7 01       	movw	r26, r14
    2b08:	01 90       	ld	r0, Z+
    2b0a:	0d 92       	st	X+, r0
    2b0c:	8a 95       	dec	r24
    2b0e:	e1 f7       	brne	.-8      	; 0x2b08 <_ZN11Interpreter13for_statementEv+0x180>
    2b10:	f7 01       	movw	r30, r14
    2b12:	80 81       	ld	r24, Z
    2b14:	8f 32       	cpi	r24, 0x2F	; 47
    2b16:	69 f7       	brne	.-38     	; 0x2af2 <_ZN11Interpreter13for_statementEv+0x16a>
    2b18:	6f e2       	ldi	r22, 0x2F	; 47
    2b1a:	c8 01       	movw	r24, r16
    2b1c:	0e 94 62 0a 	call	0x14c4	; 0x14c4 <_ZN11Interpreter3eatE9TokenType>
    2b20:	74 cf       	rjmp	.-280    	; 0x2a0a <_ZN11Interpreter13for_statementEv+0x82>
    2b22:	81 33       	cpi	r24, 0x31	; 49
    2b24:	b9 f0       	breq	.+46     	; 0x2b54 <_ZN11Interpreter13for_statementEv+0x1cc>
    2b26:	b8 01       	movw	r22, r16
    2b28:	ce 01       	movw	r24, r28
    2b2a:	89 56       	subi	r24, 0x69	; 105
    2b2c:	9f 4f       	sbci	r25, 0xFF	; 255
    2b2e:	0e 94 eb 08 	call	0x11d6	; 0x11d6 <_ZN11Interpreter14get_next_tokenEv>
    2b32:	82 e4       	ldi	r24, 0x42	; 66
    2b34:	fe 01       	movw	r30, r28
    2b36:	e9 56       	subi	r30, 0x69	; 105
    2b38:	ff 4f       	sbci	r31, 0xFF	; 255
    2b3a:	d7 01       	movw	r26, r14
    2b3c:	01 90       	ld	r0, Z+
    2b3e:	0d 92       	st	X+, r0
    2b40:	8a 95       	dec	r24
    2b42:	e1 f7       	brne	.-8      	; 0x2b3c <_ZN11Interpreter13for_statementEv+0x1b4>
    2b44:	f7 01       	movw	r30, r14
    2b46:	80 81       	ld	r24, Z
    2b48:	8e 32       	cpi	r24, 0x2E	; 46
    2b4a:	59 f7       	brne	.-42     	; 0x2b22 <_ZN11Interpreter13for_statementEv+0x19a>
    2b4c:	ff ef       	ldi	r31, 0xFF	; 255
    2b4e:	cf 1a       	sub	r12, r31
    2b50:	df 0a       	sbc	r13, r31
    2b52:	e9 cf       	rjmp	.-46     	; 0x2b26 <_ZN11Interpreter13for_statementEv+0x19e>
    2b54:	81 e0       	ldi	r24, 0x01	; 1
    2b56:	c8 1a       	sub	r12, r24
    2b58:	d1 08       	sbc	r13, r1
    2b5a:	29 f7       	brne	.-54     	; 0x2b26 <_ZN11Interpreter13for_statementEv+0x19e>
    2b5c:	61 e3       	ldi	r22, 0x31	; 49
    2b5e:	c8 01       	movw	r24, r16
    2b60:	0e 94 62 0a 	call	0x14c4	; 0x14c4 <_ZN11Interpreter3eatE9TokenType>
    2b64:	f7 01       	movw	r30, r14
    2b66:	80 81       	ld	r24, Z
    2b68:	8d 30       	cpi	r24, 0x0D	; 13
    2b6a:	21 f4       	brne	.+8      	; 0x2b74 <_ZN11Interpreter13for_statementEv+0x1ec>
    2b6c:	6d e0       	ldi	r22, 0x0D	; 13
    2b6e:	c8 01       	movw	r24, r16
    2b70:	0e 94 62 0a 	call	0x14c4	; 0x14c4 <_ZN11Interpreter3eatE9TokenType>
    2b74:	c8 52       	subi	r28, 0x28	; 40
    2b76:	df 4f       	sbci	r29, 0xFF	; 255
    2b78:	0f b6       	in	r0, 0x3f	; 63
    2b7a:	f8 94       	cli
    2b7c:	de bf       	out	0x3e, r29	; 62
    2b7e:	0f be       	out	0x3f, r0	; 63
    2b80:	cd bf       	out	0x3d, r28	; 61
    2b82:	df 91       	pop	r29
    2b84:	cf 91       	pop	r28
    2b86:	1f 91       	pop	r17
    2b88:	0f 91       	pop	r16
    2b8a:	ff 90       	pop	r15
    2b8c:	ef 90       	pop	r14
    2b8e:	df 90       	pop	r13
    2b90:	cf 90       	pop	r12
    2b92:	bf 90       	pop	r11
    2b94:	af 90       	pop	r10
    2b96:	9f 90       	pop	r9
    2b98:	8f 90       	pop	r8
    2b9a:	7f 90       	pop	r7
    2b9c:	6f 90       	pop	r6
    2b9e:	08 95       	ret

00002ba0 <_ZN11Interpreter17execute_statementEPc>:
    2ba0:	ef 92       	push	r14
    2ba2:	ff 92       	push	r15
    2ba4:	0f 93       	push	r16
    2ba6:	1f 93       	push	r17
    2ba8:	cf 93       	push	r28
    2baa:	df 93       	push	r29
    2bac:	cd b7       	in	r28, 0x3d	; 61
    2bae:	de b7       	in	r29, 0x3e	; 62
    2bb0:	c2 54       	subi	r28, 0x42	; 66
    2bb2:	d1 09       	sbc	r29, r1
    2bb4:	0f b6       	in	r0, 0x3f	; 63
    2bb6:	f8 94       	cli
    2bb8:	de bf       	out	0x3e, r29	; 62
    2bba:	0f be       	out	0x3f, r0	; 63
    2bbc:	cd bf       	out	0x3d, r28	; 61
    2bbe:	8c 01       	movw	r16, r24
    2bc0:	fc 01       	movw	r30, r24
    2bc2:	e8 57       	subi	r30, 0x78	; 120
    2bc4:	f8 4f       	sbci	r31, 0xF8	; 248
    2bc6:	71 83       	std	Z+1, r23	; 0x01
    2bc8:	60 83       	st	Z, r22
    2bca:	32 96       	adiw	r30, 0x02	; 2
    2bcc:	11 82       	std	Z+1, r1	; 0x01
    2bce:	10 82       	st	Z, r1
    2bd0:	fb 01       	movw	r30, r22
    2bd2:	01 90       	ld	r0, Z+
    2bd4:	00 20       	and	r0, r0
    2bd6:	e9 f7       	brne	.-6      	; 0x2bd2 <_ZN11Interpreter17execute_statementEPc+0x32>
    2bd8:	31 97       	sbiw	r30, 0x01	; 1
    2bda:	e6 1b       	sub	r30, r22
    2bdc:	f7 0b       	sbc	r31, r23
    2bde:	dc 01       	movw	r26, r24
    2be0:	a4 57       	subi	r26, 0x74	; 116
    2be2:	b8 4f       	sbci	r27, 0xF8	; 248
    2be4:	ed 93       	st	X+, r30
    2be6:	fc 93       	st	X, r31
    2be8:	60 e0       	ldi	r22, 0x00	; 0
    2bea:	70 e0       	ldi	r23, 0x00	; 0
    2bec:	0e 94 1c 02 	call	0x438	; 0x438 <_ZN11Interpreter17get_next_pgm_byteEi>
    2bf0:	f8 01       	movw	r30, r16
    2bf2:	e2 57       	subi	r30, 0x72	; 114
    2bf4:	f8 4f       	sbci	r31, 0xF8	; 248
    2bf6:	80 83       	st	Z, r24
    2bf8:	78 01       	movw	r14, r16
    2bfa:	81 e7       	ldi	r24, 0x71	; 113
    2bfc:	e8 1a       	sub	r14, r24
    2bfe:	88 ef       	ldi	r24, 0xF8	; 248
    2c00:	f8 0a       	sbc	r15, r24
    2c02:	b8 01       	movw	r22, r16
    2c04:	ce 01       	movw	r24, r28
    2c06:	01 96       	adiw	r24, 0x01	; 1
    2c08:	0e 94 eb 08 	call	0x11d6	; 0x11d6 <_ZN11Interpreter14get_next_tokenEv>
    2c0c:	82 e4       	ldi	r24, 0x42	; 66
    2c0e:	fe 01       	movw	r30, r28
    2c10:	31 96       	adiw	r30, 0x01	; 1
    2c12:	d7 01       	movw	r26, r14
    2c14:	01 90       	ld	r0, Z+
    2c16:	0d 92       	st	X+, r0
    2c18:	8a 95       	dec	r24
    2c1a:	e1 f7       	brne	.-8      	; 0x2c14 <_ZN11Interpreter17execute_statementEPc+0x74>
    2c1c:	c8 01       	movw	r24, r16
    2c1e:	ce 5b       	subi	r28, 0xBE	; 190
    2c20:	df 4f       	sbci	r29, 0xFF	; 255
    2c22:	0f b6       	in	r0, 0x3f	; 63
    2c24:	f8 94       	cli
    2c26:	de bf       	out	0x3e, r29	; 62
    2c28:	0f be       	out	0x3f, r0	; 63
    2c2a:	cd bf       	out	0x3d, r28	; 61
    2c2c:	df 91       	pop	r29
    2c2e:	cf 91       	pop	r28
    2c30:	1f 91       	pop	r17
    2c32:	0f 91       	pop	r16
    2c34:	ff 90       	pop	r15
    2c36:	ef 90       	pop	r14
    2c38:	54 ce       	rjmp	.-856    	; 0x28e2 <_ZN11Interpreter9statementEv>

00002c3a <_ZN11Interpreter14statement_listEv>:
    2c3a:	0f 93       	push	r16
    2c3c:	1f 93       	push	r17
    2c3e:	cf 93       	push	r28
    2c40:	df 93       	push	r29
    2c42:	ec 01       	movw	r28, r24
    2c44:	4e de       	rcall	.-868    	; 0x28e2 <_ZN11Interpreter9statementEv>
    2c46:	8e 01       	movw	r16, r28
    2c48:	01 57       	subi	r16, 0x71	; 113
    2c4a:	18 4f       	sbci	r17, 0xF8	; 248
    2c4c:	f8 01       	movw	r30, r16
    2c4e:	80 81       	ld	r24, Z
    2c50:	82 32       	cpi	r24, 0x22	; 34
    2c52:	49 f0       	breq	.+18     	; 0x2c66 <_ZN11Interpreter14statement_listEv+0x2c>
    2c54:	87 31       	cpi	r24, 0x17	; 23
    2c56:	21 f4       	brne	.+8      	; 0x2c60 <_ZN11Interpreter14statement_listEv+0x26>
    2c58:	67 e1       	ldi	r22, 0x17	; 23
    2c5a:	ce 01       	movw	r24, r28
    2c5c:	0e 94 62 0a 	call	0x14c4	; 0x14c4 <_ZN11Interpreter3eatE9TokenType>
    2c60:	ce 01       	movw	r24, r28
    2c62:	3f de       	rcall	.-898    	; 0x28e2 <_ZN11Interpreter9statementEv>
    2c64:	f3 cf       	rjmp	.-26     	; 0x2c4c <_ZN11Interpreter14statement_listEv+0x12>
    2c66:	df 91       	pop	r29
    2c68:	cf 91       	pop	r28
    2c6a:	1f 91       	pop	r17
    2c6c:	0f 91       	pop	r16
    2c6e:	08 95       	ret

00002c70 <_ZN11Interpreter3runEv>:
    2c70:	e4 cf       	rjmp	.-56     	; 0x2c3a <_ZN11Interpreter14statement_listEv>

00002c72 <_ZN11Interpreter15gosub_statementEv>:
    2c72:	8f 92       	push	r8
    2c74:	9f 92       	push	r9
    2c76:	af 92       	push	r10
    2c78:	bf 92       	push	r11
    2c7a:	cf 92       	push	r12
    2c7c:	df 92       	push	r13
    2c7e:	ef 92       	push	r14
    2c80:	ff 92       	push	r15
    2c82:	0f 93       	push	r16
    2c84:	1f 93       	push	r17
    2c86:	cf 93       	push	r28
    2c88:	df 93       	push	r29
    2c8a:	cd b7       	in	r28, 0x3d	; 61
    2c8c:	de b7       	in	r29, 0x3e	; 62
    2c8e:	c6 55       	subi	r28, 0x56	; 86
    2c90:	d1 09       	sbc	r29, r1
    2c92:	0f b6       	in	r0, 0x3f	; 63
    2c94:	f8 94       	cli
    2c96:	de bf       	out	0x3e, r29	; 62
    2c98:	0f be       	out	0x3f, r0	; 63
    2c9a:	cd bf       	out	0x3d, r28	; 61
    2c9c:	8c 01       	movw	r16, r24
    2c9e:	62 e3       	ldi	r22, 0x32	; 50
    2ca0:	0e 94 62 0a 	call	0x14c4	; 0x14c4 <_ZN11Interpreter3eatE9TokenType>
    2ca4:	48 01       	movw	r8, r16
    2ca6:	80 e7       	ldi	r24, 0x70	; 112
    2ca8:	88 1a       	sub	r8, r24
    2caa:	88 ef       	ldi	r24, 0xF8	; 248
    2cac:	98 0a       	sbc	r9, r24
    2cae:	c4 01       	movw	r24, r8
    2cb0:	0e 94 f6 27 	call	0x4fec	; 0x4fec <_ZN5Value8ToStringEv>
    2cb4:	bc 01       	movw	r22, r24
    2cb6:	ce 01       	movw	r24, r28
    2cb8:	01 96       	adiw	r24, 0x01	; 1
    2cba:	0e 94 f0 31 	call	0x63e0	; 0x63e0 <strcpy>
    2cbe:	68 01       	movw	r12, r16
    2cc0:	e6 e7       	ldi	r30, 0x76	; 118
    2cc2:	ce 1a       	sub	r12, r30
    2cc4:	e8 ef       	ldi	r30, 0xF8	; 248
    2cc6:	de 0a       	sbc	r13, r30
    2cc8:	f6 01       	movw	r30, r12
    2cca:	a0 80       	ld	r10, Z
    2ccc:	b1 80       	ldd	r11, Z+1	; 0x01
    2cce:	6d e0       	ldi	r22, 0x0D	; 13
    2cd0:	c8 01       	movw	r24, r16
    2cd2:	0e 94 62 0a 	call	0x14c4	; 0x14c4 <_ZN11Interpreter3eatE9TokenType>
    2cd6:	f6 01       	movw	r30, r12
    2cd8:	11 82       	std	Z+1, r1	; 0x01
    2cda:	10 82       	st	Z, r1
    2cdc:	78 01       	movw	r14, r16
    2cde:	f1 e7       	ldi	r31, 0x71	; 113
    2ce0:	ef 1a       	sub	r14, r31
    2ce2:	f8 ef       	ldi	r31, 0xF8	; 248
    2ce4:	ff 0a       	sbc	r15, r31
    2ce6:	b8 01       	movw	r22, r16
    2ce8:	ce 01       	movw	r24, r28
    2cea:	45 96       	adiw	r24, 0x15	; 21
    2cec:	0e 94 eb 08 	call	0x11d6	; 0x11d6 <_ZN11Interpreter14get_next_tokenEv>
    2cf0:	82 e4       	ldi	r24, 0x42	; 66
    2cf2:	fe 01       	movw	r30, r28
    2cf4:	75 96       	adiw	r30, 0x15	; 21
    2cf6:	d7 01       	movw	r26, r14
    2cf8:	01 90       	ld	r0, Z+
    2cfa:	0d 92       	st	X+, r0
    2cfc:	8a 95       	dec	r24
    2cfe:	e1 f7       	brne	.-8      	; 0x2cf8 <_ZN11Interpreter15gosub_statementEv+0x86>
    2d00:	f7 01       	movw	r30, r14
    2d02:	80 81       	ld	r24, Z
    2d04:	83 33       	cpi	r24, 0x33	; 51
    2d06:	79 f7       	brne	.-34     	; 0x2ce6 <_ZN11Interpreter15gosub_statementEv+0x74>
    2d08:	c4 01       	movw	r24, r8
    2d0a:	0e 94 f6 27 	call	0x4fec	; 0x4fec <_ZN5Value8ToStringEv>
    2d0e:	bc 01       	movw	r22, r24
    2d10:	ce 01       	movw	r24, r28
    2d12:	01 96       	adiw	r24, 0x01	; 1
    2d14:	0e 94 e7 31 	call	0x63ce	; 0x63ce <strcmp>
    2d18:	89 2b       	or	r24, r25
    2d1a:	29 f7       	brne	.-54     	; 0x2ce6 <_ZN11Interpreter15gosub_statementEv+0x74>
    2d1c:	63 e3       	ldi	r22, 0x33	; 51
    2d1e:	c8 01       	movw	r24, r16
    2d20:	0e 94 62 0a 	call	0x14c4	; 0x14c4 <_ZN11Interpreter3eatE9TokenType>
    2d24:	f7 01       	movw	r30, r14
    2d26:	80 81       	ld	r24, Z
    2d28:	88 31       	cpi	r24, 0x18	; 24
    2d2a:	41 f0       	breq	.+16     	; 0x2d3c <_ZN11Interpreter15gosub_statementEv+0xca>
    2d2c:	c8 01       	movw	r24, r16
    2d2e:	d9 dd       	rcall	.-1102   	; 0x28e2 <_ZN11Interpreter9statementEv>
    2d30:	f7 01       	movw	r30, r14
    2d32:	80 81       	ld	r24, Z
    2d34:	87 31       	cpi	r24, 0x17	; 23
    2d36:	b1 f7       	brne	.-20     	; 0x2d24 <_ZN11Interpreter15gosub_statementEv+0xb2>
    2d38:	67 e1       	ldi	r22, 0x17	; 23
    2d3a:	f1 cf       	rjmp	.-30     	; 0x2d1e <_ZN11Interpreter15gosub_statementEv+0xac>
    2d3c:	68 e1       	ldi	r22, 0x18	; 24
    2d3e:	c8 01       	movw	r24, r16
    2d40:	0e 94 62 0a 	call	0x14c4	; 0x14c4 <_ZN11Interpreter3eatE9TokenType>
    2d44:	f6 01       	movw	r30, r12
    2d46:	b1 82       	std	Z+1, r11	; 0x01
    2d48:	a0 82       	st	Z, r10
    2d4a:	b5 01       	movw	r22, r10
    2d4c:	c8 01       	movw	r24, r16
    2d4e:	0e 94 1c 02 	call	0x438	; 0x438 <_ZN11Interpreter17get_next_pgm_byteEi>
    2d52:	f8 01       	movw	r30, r16
    2d54:	e2 57       	subi	r30, 0x72	; 114
    2d56:	f8 4f       	sbci	r31, 0xF8	; 248
    2d58:	80 83       	st	Z, r24
    2d5a:	b8 01       	movw	r22, r16
    2d5c:	ce 01       	movw	r24, r28
    2d5e:	45 96       	adiw	r24, 0x15	; 21
    2d60:	0e 94 eb 08 	call	0x11d6	; 0x11d6 <_ZN11Interpreter14get_next_tokenEv>
    2d64:	82 e4       	ldi	r24, 0x42	; 66
    2d66:	fe 01       	movw	r30, r28
    2d68:	75 96       	adiw	r30, 0x15	; 21
    2d6a:	d7 01       	movw	r26, r14
    2d6c:	01 90       	ld	r0, Z+
    2d6e:	0d 92       	st	X+, r0
    2d70:	8a 95       	dec	r24
    2d72:	e1 f7       	brne	.-8      	; 0x2d6c <_ZN11Interpreter15gosub_statementEv+0xfa>
    2d74:	ca 5a       	subi	r28, 0xAA	; 170
    2d76:	df 4f       	sbci	r29, 0xFF	; 255
    2d78:	0f b6       	in	r0, 0x3f	; 63
    2d7a:	f8 94       	cli
    2d7c:	de bf       	out	0x3e, r29	; 62
    2d7e:	0f be       	out	0x3f, r0	; 63
    2d80:	cd bf       	out	0x3d, r28	; 61
    2d82:	df 91       	pop	r29
    2d84:	cf 91       	pop	r28
    2d86:	1f 91       	pop	r17
    2d88:	0f 91       	pop	r16
    2d8a:	ff 90       	pop	r15
    2d8c:	ef 90       	pop	r14
    2d8e:	df 90       	pop	r13
    2d90:	cf 90       	pop	r12
    2d92:	bf 90       	pop	r11
    2d94:	af 90       	pop	r10
    2d96:	9f 90       	pop	r9
    2d98:	8f 90       	pop	r8
    2d9a:	08 95       	ret

00002d9c <_ZN11Interpreter12if_statementEv>:
    2d9c:	ef 92       	push	r14
    2d9e:	ff 92       	push	r15
    2da0:	0f 93       	push	r16
    2da2:	1f 93       	push	r17
    2da4:	cf 93       	push	r28
    2da6:	df 93       	push	r29
    2da8:	cd b7       	in	r28, 0x3d	; 61
    2daa:	de b7       	in	r29, 0x3e	; 62
    2dac:	c3 58       	subi	r28, 0x83	; 131
    2dae:	d1 09       	sbc	r29, r1
    2db0:	0f b6       	in	r0, 0x3f	; 63
    2db2:	f8 94       	cli
    2db4:	de bf       	out	0x3e, r29	; 62
    2db6:	0f be       	out	0x3f, r0	; 63
    2db8:	cd bf       	out	0x3d, r28	; 61
    2dba:	8c 01       	movw	r16, r24
    2dbc:	6a e0       	ldi	r22, 0x0A	; 10
    2dbe:	0e 94 62 0a 	call	0x14c4	; 0x14c4 <_ZN11Interpreter3eatE9TokenType>
    2dc2:	b8 01       	movw	r22, r16
    2dc4:	ce 01       	movw	r24, r28
    2dc6:	01 96       	adiw	r24, 0x01	; 1
    2dc8:	c3 db       	rcall	.-2170   	; 0x2550 <_ZN11Interpreter4exprEv>
    2dca:	ce 01       	movw	r24, r28
    2dcc:	01 96       	adiw	r24, 0x01	; 1
    2dce:	0e 94 8e 27 	call	0x4f1c	; 0x4f1c <_ZN5Value9ToBooleanEv>
    2dd2:	98 01       	movw	r18, r16
    2dd4:	21 57       	subi	r18, 0x71	; 113
    2dd6:	38 4f       	sbci	r19, 0xF8	; 248
    2dd8:	79 01       	movw	r14, r18
    2dda:	6c e0       	ldi	r22, 0x0C	; 12
    2ddc:	88 23       	and	r24, r24
    2dde:	31 f1       	breq	.+76     	; 0x2e2c <_ZN11Interpreter12if_statementEv+0x90>
    2de0:	c8 01       	movw	r24, r16
    2de2:	0e 94 62 0a 	call	0x14c4	; 0x14c4 <_ZN11Interpreter3eatE9TokenType>
    2de6:	c8 01       	movw	r24, r16
    2de8:	7c dd       	rcall	.-1288   	; 0x28e2 <_ZN11Interpreter9statementEv>
    2dea:	67 e1       	ldi	r22, 0x17	; 23
    2dec:	c8 01       	movw	r24, r16
    2dee:	0e 94 62 0a 	call	0x14c4	; 0x14c4 <_ZN11Interpreter3eatE9TokenType>
    2df2:	f7 01       	movw	r30, r14
    2df4:	80 81       	ld	r24, Z
    2df6:	8b 30       	cpi	r24, 0x0B	; 11
    2df8:	09 f0       	breq	.+2      	; 0x2dfc <_ZN11Interpreter12if_statementEv+0x60>
    2dfa:	41 c0       	rjmp	.+130    	; 0x2e7e <_ZN11Interpreter12if_statementEv+0xe2>
    2dfc:	6b e0       	ldi	r22, 0x0B	; 11
    2dfe:	c8 01       	movw	r24, r16
    2e00:	0e 94 62 0a 	call	0x14c4	; 0x14c4 <_ZN11Interpreter3eatE9TokenType>
    2e04:	f7 01       	movw	r30, r14
    2e06:	80 81       	ld	r24, Z
    2e08:	87 31       	cpi	r24, 0x17	; 23
    2e0a:	a9 f1       	breq	.+106    	; 0x2e76 <_ZN11Interpreter12if_statementEv+0xda>
    2e0c:	b8 01       	movw	r22, r16
    2e0e:	ce 01       	movw	r24, r28
    2e10:	8e 5b       	subi	r24, 0xBE	; 190
    2e12:	9f 4f       	sbci	r25, 0xFF	; 255
    2e14:	0e 94 eb 08 	call	0x11d6	; 0x11d6 <_ZN11Interpreter14get_next_tokenEv>
    2e18:	82 e4       	ldi	r24, 0x42	; 66
    2e1a:	fe 01       	movw	r30, r28
    2e1c:	ee 5b       	subi	r30, 0xBE	; 190
    2e1e:	ff 4f       	sbci	r31, 0xFF	; 255
    2e20:	d7 01       	movw	r26, r14
    2e22:	01 90       	ld	r0, Z+
    2e24:	0d 92       	st	X+, r0
    2e26:	8a 95       	dec	r24
    2e28:	e1 f7       	brne	.-8      	; 0x2e22 <_ZN11Interpreter12if_statementEv+0x86>
    2e2a:	ec cf       	rjmp	.-40     	; 0x2e04 <_ZN11Interpreter12if_statementEv+0x68>
    2e2c:	c8 01       	movw	r24, r16
    2e2e:	0e 94 62 0a 	call	0x14c4	; 0x14c4 <_ZN11Interpreter3eatE9TokenType>
    2e32:	f7 01       	movw	r30, r14
    2e34:	80 81       	ld	r24, Z
    2e36:	87 31       	cpi	r24, 0x17	; 23
    2e38:	81 f0       	breq	.+32     	; 0x2e5a <_ZN11Interpreter12if_statementEv+0xbe>
    2e3a:	b8 01       	movw	r22, r16
    2e3c:	ce 01       	movw	r24, r28
    2e3e:	8e 5b       	subi	r24, 0xBE	; 190
    2e40:	9f 4f       	sbci	r25, 0xFF	; 255
    2e42:	0e 94 eb 08 	call	0x11d6	; 0x11d6 <_ZN11Interpreter14get_next_tokenEv>
    2e46:	82 e4       	ldi	r24, 0x42	; 66
    2e48:	fe 01       	movw	r30, r28
    2e4a:	ee 5b       	subi	r30, 0xBE	; 190
    2e4c:	ff 4f       	sbci	r31, 0xFF	; 255
    2e4e:	d7 01       	movw	r26, r14
    2e50:	01 90       	ld	r0, Z+
    2e52:	0d 92       	st	X+, r0
    2e54:	8a 95       	dec	r24
    2e56:	e1 f7       	brne	.-8      	; 0x2e50 <_ZN11Interpreter12if_statementEv+0xb4>
    2e58:	ec cf       	rjmp	.-40     	; 0x2e32 <_ZN11Interpreter12if_statementEv+0x96>
    2e5a:	67 e1       	ldi	r22, 0x17	; 23
    2e5c:	c8 01       	movw	r24, r16
    2e5e:	0e 94 62 0a 	call	0x14c4	; 0x14c4 <_ZN11Interpreter3eatE9TokenType>
    2e62:	f7 01       	movw	r30, r14
    2e64:	80 81       	ld	r24, Z
    2e66:	8b 30       	cpi	r24, 0x0B	; 11
    2e68:	51 f4       	brne	.+20     	; 0x2e7e <_ZN11Interpreter12if_statementEv+0xe2>
    2e6a:	6b e0       	ldi	r22, 0x0B	; 11
    2e6c:	c8 01       	movw	r24, r16
    2e6e:	0e 94 62 0a 	call	0x14c4	; 0x14c4 <_ZN11Interpreter3eatE9TokenType>
    2e72:	c8 01       	movw	r24, r16
    2e74:	36 dd       	rcall	.-1428   	; 0x28e2 <_ZN11Interpreter9statementEv>
    2e76:	67 e1       	ldi	r22, 0x17	; 23
    2e78:	c8 01       	movw	r24, r16
    2e7a:	0e 94 62 0a 	call	0x14c4	; 0x14c4 <_ZN11Interpreter3eatE9TokenType>
    2e7e:	cd 57       	subi	r28, 0x7D	; 125
    2e80:	df 4f       	sbci	r29, 0xFF	; 255
    2e82:	0f b6       	in	r0, 0x3f	; 63
    2e84:	f8 94       	cli
    2e86:	de bf       	out	0x3e, r29	; 62
    2e88:	0f be       	out	0x3f, r0	; 63
    2e8a:	cd bf       	out	0x3d, r28	; 61
    2e8c:	df 91       	pop	r29
    2e8e:	cf 91       	pop	r28
    2e90:	1f 91       	pop	r17
    2e92:	0f 91       	pop	r16
    2e94:	ff 90       	pop	r15
    2e96:	ef 90       	pop	r14
    2e98:	08 95       	ret

00002e9a <_ZN11Interpreter15while_statementEv>:
    2e9a:	8f 92       	push	r8
    2e9c:	9f 92       	push	r9
    2e9e:	af 92       	push	r10
    2ea0:	bf 92       	push	r11
    2ea2:	cf 92       	push	r12
    2ea4:	df 92       	push	r13
    2ea6:	ef 92       	push	r14
    2ea8:	ff 92       	push	r15
    2eaa:	0f 93       	push	r16
    2eac:	1f 93       	push	r17
    2eae:	cf 93       	push	r28
    2eb0:	df 93       	push	r29
    2eb2:	cd b7       	in	r28, 0x3d	; 61
    2eb4:	de b7       	in	r29, 0x3e	; 62
    2eb6:	c3 58       	subi	r28, 0x83	; 131
    2eb8:	d1 09       	sbc	r29, r1
    2eba:	0f b6       	in	r0, 0x3f	; 63
    2ebc:	f8 94       	cli
    2ebe:	de bf       	out	0x3e, r29	; 62
    2ec0:	0f be       	out	0x3f, r0	; 63
    2ec2:	cd bf       	out	0x3d, r28	; 61
    2ec4:	8c 01       	movw	r16, r24
    2ec6:	67 e2       	ldi	r22, 0x27	; 39
    2ec8:	0e 94 62 0a 	call	0x14c4	; 0x14c4 <_ZN11Interpreter3eatE9TokenType>
    2ecc:	58 01       	movw	r10, r16
    2ece:	86 e7       	ldi	r24, 0x76	; 118
    2ed0:	a8 1a       	sub	r10, r24
    2ed2:	88 ef       	ldi	r24, 0xF8	; 248
    2ed4:	b8 0a       	sbc	r11, r24
    2ed6:	f5 01       	movw	r30, r10
    2ed8:	c0 80       	ld	r12, Z
    2eda:	d1 80       	ldd	r13, Z+1	; 0x01
    2edc:	f1 e0       	ldi	r31, 0x01	; 1
    2ede:	cf 1a       	sub	r12, r31
    2ee0:	d1 08       	sbc	r13, r1
    2ee2:	60 e2       	ldi	r22, 0x20	; 32
    2ee4:	c8 01       	movw	r24, r16
    2ee6:	0e 94 62 0a 	call	0x14c4	; 0x14c4 <_ZN11Interpreter3eatE9TokenType>
    2eea:	c8 01       	movw	r24, r16
    2eec:	81 57       	subi	r24, 0x71	; 113
    2eee:	98 4f       	sbci	r25, 0xF8	; 248
    2ef0:	7c 01       	movw	r14, r24
    2ef2:	48 01       	movw	r8, r16
    2ef4:	92 e7       	ldi	r25, 0x72	; 114
    2ef6:	89 1a       	sub	r8, r25
    2ef8:	98 ef       	ldi	r25, 0xF8	; 248
    2efa:	99 0a       	sbc	r9, r25
    2efc:	b8 01       	movw	r22, r16
    2efe:	ce 01       	movw	r24, r28
    2f00:	01 96       	adiw	r24, 0x01	; 1
    2f02:	26 db       	rcall	.-2484   	; 0x2550 <_ZN11Interpreter4exprEv>
    2f04:	ce 01       	movw	r24, r28
    2f06:	01 96       	adiw	r24, 0x01	; 1
    2f08:	0e 94 8e 27 	call	0x4f1c	; 0x4f1c <_ZN5Value9ToBooleanEv>
    2f0c:	88 23       	and	r24, r24
    2f0e:	81 f1       	breq	.+96     	; 0x2f70 <_ZN11Interpreter15while_statementEv+0xd6>
    2f10:	61 e2       	ldi	r22, 0x21	; 33
    2f12:	c8 01       	movw	r24, r16
    2f14:	0e 94 62 0a 	call	0x14c4	; 0x14c4 <_ZN11Interpreter3eatE9TokenType>
    2f18:	67 e1       	ldi	r22, 0x17	; 23
    2f1a:	c8 01       	movw	r24, r16
    2f1c:	0e 94 62 0a 	call	0x14c4	; 0x14c4 <_ZN11Interpreter3eatE9TokenType>
    2f20:	f7 01       	movw	r30, r14
    2f22:	80 81       	ld	r24, Z
    2f24:	88 32       	cpi	r24, 0x28	; 40
    2f26:	39 f0       	breq	.+14     	; 0x2f36 <_ZN11Interpreter15while_statementEv+0x9c>
    2f28:	c8 01       	movw	r24, r16
    2f2a:	db dc       	rcall	.-1610   	; 0x28e2 <_ZN11Interpreter9statementEv>
    2f2c:	f7 01       	movw	r30, r14
    2f2e:	80 81       	ld	r24, Z
    2f30:	87 31       	cpi	r24, 0x17	; 23
    2f32:	b1 f7       	brne	.-20     	; 0x2f20 <_ZN11Interpreter15while_statementEv+0x86>
    2f34:	f1 cf       	rjmp	.-30     	; 0x2f18 <_ZN11Interpreter15while_statementEv+0x7e>
    2f36:	f5 01       	movw	r30, r10
    2f38:	d1 82       	std	Z+1, r13	; 0x01
    2f3a:	c0 82       	st	Z, r12
    2f3c:	b6 01       	movw	r22, r12
    2f3e:	c8 01       	movw	r24, r16
    2f40:	0e 94 1c 02 	call	0x438	; 0x438 <_ZN11Interpreter17get_next_pgm_byteEi>
    2f44:	f4 01       	movw	r30, r8
    2f46:	80 83       	st	Z, r24
    2f48:	b8 01       	movw	r22, r16
    2f4a:	ce 01       	movw	r24, r28
    2f4c:	8e 5b       	subi	r24, 0xBE	; 190
    2f4e:	9f 4f       	sbci	r25, 0xFF	; 255
    2f50:	0e 94 eb 08 	call	0x11d6	; 0x11d6 <_ZN11Interpreter14get_next_tokenEv>
    2f54:	82 e4       	ldi	r24, 0x42	; 66
    2f56:	fe 01       	movw	r30, r28
    2f58:	ee 5b       	subi	r30, 0xBE	; 190
    2f5a:	ff 4f       	sbci	r31, 0xFF	; 255
    2f5c:	d7 01       	movw	r26, r14
    2f5e:	01 90       	ld	r0, Z+
    2f60:	0d 92       	st	X+, r0
    2f62:	8a 95       	dec	r24
    2f64:	e1 f7       	brne	.-8      	; 0x2f5e <_ZN11Interpreter15while_statementEv+0xc4>
    2f66:	60 e2       	ldi	r22, 0x20	; 32
    2f68:	c8 01       	movw	r24, r16
    2f6a:	0e 94 62 0a 	call	0x14c4	; 0x14c4 <_ZN11Interpreter3eatE9TokenType>
    2f6e:	c6 cf       	rjmp	.-116    	; 0x2efc <_ZN11Interpreter15while_statementEv+0x62>
    2f70:	f7 01       	movw	r30, r14
    2f72:	80 81       	ld	r24, Z
    2f74:	81 32       	cpi	r24, 0x21	; 33
    2f76:	41 f5       	brne	.+80     	; 0x2fc8 <_ZN11Interpreter15while_statementEv+0x12e>
    2f78:	61 e2       	ldi	r22, 0x21	; 33
    2f7a:	c8 01       	movw	r24, r16
    2f7c:	0e 94 62 0a 	call	0x14c4	; 0x14c4 <_ZN11Interpreter3eatE9TokenType>
    2f80:	cc 24       	eor	r12, r12
    2f82:	c3 94       	inc	r12
    2f84:	d1 2c       	mov	r13, r1
    2f86:	b8 01       	movw	r22, r16
    2f88:	ce 01       	movw	r24, r28
    2f8a:	8e 5b       	subi	r24, 0xBE	; 190
    2f8c:	9f 4f       	sbci	r25, 0xFF	; 255
    2f8e:	0e 94 eb 08 	call	0x11d6	; 0x11d6 <_ZN11Interpreter14get_next_tokenEv>
    2f92:	82 e4       	ldi	r24, 0x42	; 66
    2f94:	fe 01       	movw	r30, r28
    2f96:	ee 5b       	subi	r30, 0xBE	; 190
    2f98:	ff 4f       	sbci	r31, 0xFF	; 255
    2f9a:	d7 01       	movw	r26, r14
    2f9c:	01 90       	ld	r0, Z+
    2f9e:	0d 92       	st	X+, r0
    2fa0:	8a 95       	dec	r24
    2fa2:	e1 f7       	brne	.-8      	; 0x2f9c <_ZN11Interpreter15while_statementEv+0x102>
    2fa4:	f7 01       	movw	r30, r14
    2fa6:	80 81       	ld	r24, Z
    2fa8:	87 32       	cpi	r24, 0x27	; 39
    2faa:	21 f4       	brne	.+8      	; 0x2fb4 <_ZN11Interpreter15while_statementEv+0x11a>
    2fac:	ff ef       	ldi	r31, 0xFF	; 255
    2fae:	cf 1a       	sub	r12, r31
    2fb0:	df 0a       	sbc	r13, r31
    2fb2:	e9 cf       	rjmp	.-46     	; 0x2f86 <_ZN11Interpreter15while_statementEv+0xec>
    2fb4:	88 32       	cpi	r24, 0x28	; 40
    2fb6:	39 f7       	brne	.-50     	; 0x2f86 <_ZN11Interpreter15while_statementEv+0xec>
    2fb8:	81 e0       	ldi	r24, 0x01	; 1
    2fba:	c8 1a       	sub	r12, r24
    2fbc:	d1 08       	sbc	r13, r1
    2fbe:	19 f7       	brne	.-58     	; 0x2f86 <_ZN11Interpreter15while_statementEv+0xec>
    2fc0:	68 e2       	ldi	r22, 0x28	; 40
    2fc2:	c8 01       	movw	r24, r16
    2fc4:	0e 94 62 0a 	call	0x14c4	; 0x14c4 <_ZN11Interpreter3eatE9TokenType>
    2fc8:	cd 57       	subi	r28, 0x7D	; 125
    2fca:	df 4f       	sbci	r29, 0xFF	; 255
    2fcc:	0f b6       	in	r0, 0x3f	; 63
    2fce:	f8 94       	cli
    2fd0:	de bf       	out	0x3e, r29	; 62
    2fd2:	0f be       	out	0x3f, r0	; 63
    2fd4:	cd bf       	out	0x3d, r28	; 61
    2fd6:	df 91       	pop	r29
    2fd8:	cf 91       	pop	r28
    2fda:	1f 91       	pop	r17
    2fdc:	0f 91       	pop	r16
    2fde:	ff 90       	pop	r15
    2fe0:	ef 90       	pop	r14
    2fe2:	df 90       	pop	r13
    2fe4:	cf 90       	pop	r12
    2fe6:	bf 90       	pop	r11
    2fe8:	af 90       	pop	r10
    2fea:	9f 90       	pop	r9
    2fec:	8f 90       	pop	r8
    2fee:	08 95       	ret

00002ff0 <main>:
    2ff0:	cf 93       	push	r28
    2ff2:	df 93       	push	r29
    2ff4:	cd b7       	in	r28, 0x3d	; 61
    2ff6:	de b7       	in	r29, 0x3e	; 62
    2ff8:	c3 50       	subi	r28, 0x03	; 3
    2ffa:	d8 40       	sbci	r29, 0x08	; 8
    2ffc:	0f b6       	in	r0, 0x3f	; 63
    2ffe:	f8 94       	cli
    3000:	de bf       	out	0x3e, r29	; 62
    3002:	0f be       	out	0x3f, r0	; 63
    3004:	cd bf       	out	0x3d, r28	; 61
    3006:	0f b6       	in	r0, 0x3f	; 63
    3008:	f8 94       	cli
    300a:	a8 95       	wdr
    300c:	80 91 60 00 	lds	r24, 0x0060	; 0x800060 <__TEXT_REGION_LENGTH__+0x7e0060>
    3010:	88 61       	ori	r24, 0x18	; 24
    3012:	80 93 60 00 	sts	0x0060, r24	; 0x800060 <__TEXT_REGION_LENGTH__+0x7e0060>
    3016:	10 92 60 00 	sts	0x0060, r1	; 0x800060 <__TEXT_REGION_LENGTH__+0x7e0060>
    301a:	0f be       	out	0x3f, r0	; 63
    301c:	82 ea       	ldi	r24, 0xA2	; 162
    301e:	80 93 80 00 	sts	0x0080, r24	; 0x800080 <__TEXT_REGION_LENGTH__+0x7e0080>
    3022:	8d e1       	ldi	r24, 0x1D	; 29
    3024:	80 93 81 00 	sts	0x0081, r24	; 0x800081 <__TEXT_REGION_LENGTH__+0x7e0081>
    3028:	10 92 85 00 	sts	0x0085, r1	; 0x800085 <__TEXT_REGION_LENGTH__+0x7e0085>
    302c:	10 92 84 00 	sts	0x0084, r1	; 0x800084 <__TEXT_REGION_LENGTH__+0x7e0084>
    3030:	82 e0       	ldi	r24, 0x02	; 2
    3032:	80 93 87 00 	sts	0x0087, r24	; 0x800087 <__TEXT_REGION_LENGTH__+0x7e0087>
    3036:	8f ec       	ldi	r24, 0xCF	; 207
    3038:	80 93 86 00 	sts	0x0086, r24	; 0x800086 <__TEXT_REGION_LENGTH__+0x7e0086>
    303c:	10 92 89 00 	sts	0x0089, r1	; 0x800089 <__TEXT_REGION_LENGTH__+0x7e0089>
    3040:	86 e1       	ldi	r24, 0x16	; 22
    3042:	80 93 88 00 	sts	0x0088, r24	; 0x800088 <__TEXT_REGION_LENGTH__+0x7e0088>
    3046:	10 92 8b 00 	sts	0x008B, r1	; 0x80008b <__TEXT_REGION_LENGTH__+0x7e008b>
    304a:	80 93 8a 00 	sts	0x008A, r24	; 0x80008a <__TEXT_REGION_LENGTH__+0x7e008a>
    304e:	28 e1       	ldi	r18, 0x18	; 24
    3050:	20 93 c1 00 	sts	0x00C1, r18	; 0x8000c1 <__TEXT_REGION_LENGTH__+0x7e00c1>
    3054:	91 e0       	ldi	r25, 0x01	; 1
    3056:	90 93 c5 00 	sts	0x00C5, r25	; 0x8000c5 <__TEXT_REGION_LENGTH__+0x7e00c5>
    305a:	8f e7       	ldi	r24, 0x7F	; 127
    305c:	80 93 c4 00 	sts	0x00C4, r24	; 0x8000c4 <__TEXT_REGION_LENGTH__+0x7e00c4>
    3060:	20 93 c9 00 	sts	0x00C9, r18	; 0x8000c9 <__TEXT_REGION_LENGTH__+0x7e00c9>
    3064:	90 93 cd 00 	sts	0x00CD, r25	; 0x8000cd <__TEXT_REGION_LENGTH__+0x7e00cd>
    3068:	80 93 cc 00 	sts	0x00CC, r24	; 0x8000cc <__TEXT_REGION_LENGTH__+0x7e00cc>
    306c:	8f ef       	ldi	r24, 0xFF	; 255
    306e:	8a b9       	out	0x0a, r24	; 10
    3070:	8b b9       	out	0x0b, r24	; 11
    3072:	1a d1       	rcall	.+564    	; 0x32a8 <_Z8get_bytev>
    3074:	81 11       	cpse	r24, r1
    3076:	fd cf       	rjmp	.-6      	; 0x3072 <main+0x82>
    3078:	8f ef       	ldi	r24, 0xFF	; 255
    307a:	87 b9       	out	0x07, r24	; 7
    307c:	18 b8       	out	0x08, r1	; 8
    307e:	80 91 5c 03 	lds	r24, 0x035C	; 0x80035c <waitPeriod>
    3082:	90 91 5d 03 	lds	r25, 0x035D	; 0x80035d <waitPeriod+0x1>
    3086:	9c 01       	movw	r18, r24
    3088:	2f 5f       	subi	r18, 0xFF	; 255
    308a:	3f 4f       	sbci	r19, 0xFF	; 255
    308c:	30 93 5d 03 	sts	0x035D, r19	; 0x80035d <waitPeriod+0x1>
    3090:	20 93 5c 03 	sts	0x035C, r18	; 0x80035c <waitPeriod>
    3094:	44 97       	sbiw	r24, 0x14	; 20
    3096:	0c f5       	brge	.+66     	; 0x30da <main+0xea>
    3098:	07 d1       	rcall	.+526    	; 0x32a8 <_Z8get_bytev>
    309a:	80 93 58 03 	sts	0x0358, r24	; 0x800358 <__data_end>
    309e:	88 23       	and	r24, r24
    30a0:	71 f3       	breq	.-36     	; 0x307e <main+0x8e>
    30a2:	91 e0       	ldi	r25, 0x01	; 1
    30a4:	90 93 59 03 	sts	0x0359, r25	; 0x800359 <charRx>
    30a8:	8a 33       	cpi	r24, 0x3A	; 58
    30aa:	b9 f4       	brne	.+46     	; 0x30da <main+0xea>
    30ac:	ce 01       	movw	r24, r28
    30ae:	01 96       	adiw	r24, 0x01	; 1
    30b0:	0e 94 f3 01 	call	0x3e6	; 0x3e6 <_ZN11InterpreterC1Ev>
    30b4:	80 e0       	ldi	r24, 0x00	; 0
    30b6:	0e 94 b6 01 	call	0x36c	; 0x36c <_Z7InitLCDb>
    30ba:	8c e4       	ldi	r24, 0x4C	; 76
    30bc:	93 e0       	ldi	r25, 0x03	; 3
    30be:	cc d0       	rcall	.+408    	; 0x3258 <_Z11send_stringPc>
    30c0:	62 e3       	ldi	r22, 0x32	; 50
    30c2:	70 e0       	ldi	r23, 0x00	; 0
    30c4:	ce 01       	movw	r24, r28
    30c6:	8e 52       	subi	r24, 0x2E	; 46
    30c8:	98 4f       	sbci	r25, 0xF8	; 248
    30ca:	d2 d0       	rcall	.+420    	; 0x3270 <_Z10get_stringPcj>
    30cc:	be 01       	movw	r22, r28
    30ce:	6e 52       	subi	r22, 0x2E	; 46
    30d0:	78 4f       	sbci	r23, 0xF8	; 248
    30d2:	ce 01       	movw	r24, r28
    30d4:	01 96       	adiw	r24, 0x01	; 1
    30d6:	64 dd       	rcall	.-1336   	; 0x2ba0 <_ZN11Interpreter17execute_statementEPc>
    30d8:	f0 cf       	rjmp	.-32     	; 0x30ba <main+0xca>
    30da:	80 91 59 03 	lds	r24, 0x0359	; 0x800359 <charRx>
    30de:	88 23       	and	r24, r24
    30e0:	99 f1       	breq	.+102    	; 0x3148 <main+0x158>
    30e2:	80 e4       	ldi	r24, 0x40	; 64
    30e4:	f8 2e       	mov	r15, r24
    30e6:	80 91 58 03 	lds	r24, 0x0358	; 0x800358 <__data_end>
    30ea:	88 23       	and	r24, r24
    30ec:	21 f1       	breq	.+72     	; 0x3136 <main+0x146>
    30ee:	f9 9b       	sbis	0x1f, 1	; 31
    30f0:	02 c0       	rjmp	.+4      	; 0x30f6 <main+0x106>
    30f2:	f8 b8       	out	0x08, r15	; 8
    30f4:	fc cf       	rjmp	.-8      	; 0x30ee <main+0xfe>
    30f6:	80 91 5a 03 	lds	r24, 0x035A	; 0x80035a <eePtr>
    30fa:	90 91 5b 03 	lds	r25, 0x035B	; 0x80035b <eePtr+0x1>
    30fe:	60 91 58 03 	lds	r22, 0x0358	; 0x800358 <__data_end>
    3102:	80 50       	subi	r24, 0x00	; 0
    3104:	90 40       	sbci	r25, 0x00	; 0
    3106:	0e 94 49 34 	call	0x6892	; 0x6892 <eeprom_write_byte>
    310a:	80 91 5a 03 	lds	r24, 0x035A	; 0x80035a <eePtr>
    310e:	90 91 5b 03 	lds	r25, 0x035B	; 0x80035b <eePtr+0x1>
    3112:	01 96       	adiw	r24, 0x01	; 1
    3114:	90 93 5b 03 	sts	0x035B, r25	; 0x80035b <eePtr+0x1>
    3118:	80 93 5a 03 	sts	0x035A, r24	; 0x80035a <eePtr>
    311c:	8a e0       	ldi	r24, 0x0A	; 10
    311e:	dc d0       	rcall	.+440    	; 0x32d8 <_Z9send_bytec>
    3120:	02 e3       	ldi	r16, 0x32	; 50
    3122:	10 e0       	ldi	r17, 0x00	; 0
    3124:	c1 d0       	rcall	.+386    	; 0x32a8 <_Z8get_bytev>
    3126:	80 93 58 03 	sts	0x0358, r24	; 0x800358 <__data_end>
    312a:	81 11       	cpse	r24, r1
    312c:	dc cf       	rjmp	.-72     	; 0x30e6 <main+0xf6>
    312e:	01 50       	subi	r16, 0x01	; 1
    3130:	11 09       	sbc	r17, r1
    3132:	c1 f7       	brne	.-16     	; 0x3124 <main+0x134>
    3134:	d8 cf       	rjmp	.-80     	; 0x30e6 <main+0xf6>
    3136:	80 91 5a 03 	lds	r24, 0x035A	; 0x80035a <eePtr>
    313a:	90 91 5b 03 	lds	r25, 0x035B	; 0x80035b <eePtr+0x1>
    313e:	60 e0       	ldi	r22, 0x00	; 0
    3140:	80 50       	subi	r24, 0x00	; 0
    3142:	90 40       	sbci	r25, 0x00	; 0
    3144:	0e 94 49 34 	call	0x6892	; 0x6892 <eeprom_write_byte>
    3148:	60 e0       	ldi	r22, 0x00	; 0
    314a:	70 e0       	ldi	r23, 0x00	; 0
    314c:	ce 01       	movw	r24, r28
    314e:	01 96       	adiw	r24, 0x01	; 1
    3150:	0e 94 8b 0b 	call	0x1716	; 0x1716 <_ZN11InterpreterC1EPc>
    3154:	ce 01       	movw	r24, r28
    3156:	01 96       	adiw	r24, 0x01	; 1
    3158:	8b dd       	rcall	.-1258   	; 0x2c70 <_ZN11Interpreter3runEv>
    315a:	90 e8       	ldi	r25, 0x80	; 128
    315c:	80 e6       	ldi	r24, 0x60	; 96
    315e:	2f ef       	ldi	r18, 0xFF	; 255
    3160:	3f e7       	ldi	r19, 0x7F	; 127
    3162:	46 e1       	ldi	r20, 0x16	; 22
    3164:	21 50       	subi	r18, 0x01	; 1
    3166:	30 40       	sbci	r19, 0x00	; 0
    3168:	40 40       	sbci	r20, 0x00	; 0
    316a:	e1 f7       	brne	.-8      	; 0x3164 <main+0x174>
    316c:	00 c0       	rjmp	.+0      	; 0x316e <main+0x17e>
    316e:	00 00       	nop
    3170:	98 b9       	out	0x08, r25	; 8
    3172:	2f ef       	ldi	r18, 0xFF	; 255
    3174:	3f e7       	ldi	r19, 0x7F	; 127
    3176:	46 e1       	ldi	r20, 0x16	; 22
    3178:	21 50       	subi	r18, 0x01	; 1
    317a:	30 40       	sbci	r19, 0x00	; 0
    317c:	40 40       	sbci	r20, 0x00	; 0
    317e:	e1 f7       	brne	.-8      	; 0x3178 <main+0x188>
    3180:	00 c0       	rjmp	.+0      	; 0x3182 <main+0x192>
    3182:	00 00       	nop
    3184:	88 b9       	out	0x08, r24	; 8
    3186:	eb cf       	rjmp	.-42     	; 0x315e <main+0x16e>

00003188 <__vector_20>:
    3188:	1f 92       	push	r1
    318a:	0f 92       	push	r0
    318c:	0f b6       	in	r0, 0x3f	; 63
    318e:	0f 92       	push	r0
    3190:	11 24       	eor	r1, r1
    3192:	0b b6       	in	r0, 0x3b	; 59
    3194:	0f 92       	push	r0
    3196:	2f 93       	push	r18
    3198:	3f 93       	push	r19
    319a:	4f 93       	push	r20
    319c:	8f 93       	push	r24
    319e:	9f 93       	push	r25
    31a0:	ef 93       	push	r30
    31a2:	ff 93       	push	r31
    31a4:	80 91 cc 03 	lds	r24, 0x03CC	; 0x8003cc <head>
    31a8:	90 91 cd 03 	lds	r25, 0x03CD	; 0x8003cd <head+0x1>
    31ac:	9c 01       	movw	r18, r24
    31ae:	2f 5f       	subi	r18, 0xFF	; 255
    31b0:	3f 4f       	sbci	r19, 0xFF	; 255
    31b2:	30 93 cd 03 	sts	0x03CD, r19	; 0x8003cd <head+0x1>
    31b6:	20 93 cc 03 	sts	0x03CC, r18	; 0x8003cc <head>
    31ba:	40 91 c6 00 	lds	r20, 0x00C6	; 0x8000c6 <__TEXT_REGION_LENGTH__+0x7e00c6>
    31be:	fc 01       	movw	r30, r24
    31c0:	e2 53       	subi	r30, 0x32	; 50
    31c2:	fc 4f       	sbci	r31, 0xFC	; 252
    31c4:	40 83       	st	Z, r20
    31c6:	24 36       	cpi	r18, 0x64	; 100
    31c8:	31 05       	cpc	r19, r1
    31ca:	24 f0       	brlt	.+8      	; 0x31d4 <__vector_20+0x4c>
    31cc:	10 92 cd 03 	sts	0x03CD, r1	; 0x8003cd <head+0x1>
    31d0:	10 92 cc 03 	sts	0x03CC, r1	; 0x8003cc <head>
    31d4:	ff 91       	pop	r31
    31d6:	ef 91       	pop	r30
    31d8:	9f 91       	pop	r25
    31da:	8f 91       	pop	r24
    31dc:	4f 91       	pop	r20
    31de:	3f 91       	pop	r19
    31e0:	2f 91       	pop	r18
    31e2:	0f 90       	pop	r0
    31e4:	0b be       	out	0x3b, r0	; 59
    31e6:	0f 90       	pop	r0
    31e8:	0f be       	out	0x3f, r0	; 63
    31ea:	0f 90       	pop	r0
    31ec:	1f 90       	pop	r1
    31ee:	18 95       	reti

000031f0 <__vector_28>:
    31f0:	1f 92       	push	r1
    31f2:	0f 92       	push	r0
    31f4:	0f b6       	in	r0, 0x3f	; 63
    31f6:	0f 92       	push	r0
    31f8:	11 24       	eor	r1, r1
    31fa:	0b b6       	in	r0, 0x3b	; 59
    31fc:	0f 92       	push	r0
    31fe:	2f 93       	push	r18
    3200:	3f 93       	push	r19
    3202:	4f 93       	push	r20
    3204:	8f 93       	push	r24
    3206:	9f 93       	push	r25
    3208:	ef 93       	push	r30
    320a:	ff 93       	push	r31
    320c:	80 91 62 03 	lds	r24, 0x0362	; 0x800362 <head1>
    3210:	90 91 63 03 	lds	r25, 0x0363	; 0x800363 <head1+0x1>
    3214:	9c 01       	movw	r18, r24
    3216:	2f 5f       	subi	r18, 0xFF	; 255
    3218:	3f 4f       	sbci	r19, 0xFF	; 255
    321a:	30 93 63 03 	sts	0x0363, r19	; 0x800363 <head1+0x1>
    321e:	20 93 62 03 	sts	0x0362, r18	; 0x800362 <head1>
    3222:	40 91 ce 00 	lds	r20, 0x00CE	; 0x8000ce <__TEXT_REGION_LENGTH__+0x7e00ce>
    3226:	fc 01       	movw	r30, r24
    3228:	ec 59       	subi	r30, 0x9C	; 156
    322a:	fc 4f       	sbci	r31, 0xFC	; 252
    322c:	40 83       	st	Z, r20
    322e:	24 36       	cpi	r18, 0x64	; 100
    3230:	31 05       	cpc	r19, r1
    3232:	24 f0       	brlt	.+8      	; 0x323c <__vector_28+0x4c>
    3234:	10 92 63 03 	sts	0x0363, r1	; 0x800363 <head1+0x1>
    3238:	10 92 62 03 	sts	0x0362, r1	; 0x800362 <head1>
    323c:	ff 91       	pop	r31
    323e:	ef 91       	pop	r30
    3240:	9f 91       	pop	r25
    3242:	8f 91       	pop	r24
    3244:	4f 91       	pop	r20
    3246:	3f 91       	pop	r19
    3248:	2f 91       	pop	r18
    324a:	0f 90       	pop	r0
    324c:	0b be       	out	0x3b, r0	; 59
    324e:	0f 90       	pop	r0
    3250:	0f be       	out	0x3f, r0	; 63
    3252:	0f 90       	pop	r0
    3254:	1f 90       	pop	r1
    3256:	18 95       	reti

00003258 <_Z11send_stringPc>:
    3258:	fc 01       	movw	r30, r24
    325a:	80 91 c0 00 	lds	r24, 0x00C0	; 0x8000c0 <__TEXT_REGION_LENGTH__+0x7e00c0>
    325e:	85 ff       	sbrs	r24, 5
    3260:	fc cf       	rjmp	.-8      	; 0x325a <_Z11send_stringPc+0x2>
    3262:	81 91       	ld	r24, Z+
    3264:	80 93 c6 00 	sts	0x00C6, r24	; 0x8000c6 <__TEXT_REGION_LENGTH__+0x7e00c6>
    3268:	80 81       	ld	r24, Z
    326a:	81 11       	cpse	r24, r1
    326c:	f6 cf       	rjmp	.-20     	; 0x325a <_Z11send_stringPc+0x2>
    326e:	08 95       	ret

00003270 <_Z10get_stringPcj>:
    3270:	fc 01       	movw	r30, r24
    3272:	20 e0       	ldi	r18, 0x00	; 0
    3274:	30 e0       	ldi	r19, 0x00	; 0
    3276:	40 91 c0 00 	lds	r20, 0x00C0	; 0x8000c0 <__TEXT_REGION_LENGTH__+0x7e00c0>
    327a:	47 ff       	sbrs	r20, 7
    327c:	fc cf       	rjmp	.-8      	; 0x3276 <_Z10get_stringPcj+0x6>
    327e:	40 91 c6 00 	lds	r20, 0x00C6	; 0x8000c6 <__TEXT_REGION_LENGTH__+0x7e00c6>
    3282:	41 93       	st	Z+, r20
    3284:	4a 30       	cpi	r20, 0x0A	; 10
    3286:	39 f0       	breq	.+14     	; 0x3296 <_Z10get_stringPcj+0x26>
    3288:	4d 30       	cpi	r20, 0x0D	; 13
    328a:	29 f0       	breq	.+10     	; 0x3296 <_Z10get_stringPcj+0x26>
    328c:	2f 5f       	subi	r18, 0xFF	; 255
    328e:	3f 4f       	sbci	r19, 0xFF	; 255
    3290:	26 17       	cp	r18, r22
    3292:	37 07       	cpc	r19, r23
    3294:	80 f3       	brcs	.-32     	; 0x3276 <_Z10get_stringPcj+0x6>
    3296:	fc 01       	movw	r30, r24
    3298:	e2 0f       	add	r30, r18
    329a:	f3 1f       	adc	r31, r19
    329c:	26 17       	cp	r18, r22
    329e:	37 07       	cpc	r19, r23
    32a0:	09 f4       	brne	.+2      	; 0x32a4 <_Z10get_stringPcj+0x34>
    32a2:	31 97       	sbiw	r30, 0x01	; 1
    32a4:	10 82       	st	Z, r1
    32a6:	08 95       	ret

000032a8 <_Z8get_bytev>:
    32a8:	80 e0       	ldi	r24, 0x00	; 0
    32aa:	90 e0       	ldi	r25, 0x00	; 0
    32ac:	20 91 c0 00 	lds	r18, 0x00C0	; 0x8000c0 <__TEXT_REGION_LENGTH__+0x7e00c0>
    32b0:	27 fd       	sbrc	r18, 7
    32b2:	0c c0       	rjmp	.+24     	; 0x32cc <_Z8get_bytev+0x24>
    32b4:	01 96       	adiw	r24, 0x01	; 1
    32b6:	85 36       	cpi	r24, 0x65	; 101
    32b8:	91 05       	cpc	r25, r1
    32ba:	11 f4       	brne	.+4      	; 0x32c0 <_Z8get_bytev+0x18>
    32bc:	80 e0       	ldi	r24, 0x00	; 0
    32be:	08 95       	ret
    32c0:	e6 e6       	ldi	r30, 0x66	; 102
    32c2:	fe e0       	ldi	r31, 0x0E	; 14
    32c4:	31 97       	sbiw	r30, 0x01	; 1
    32c6:	f1 f7       	brne	.-4      	; 0x32c4 <_Z8get_bytev+0x1c>
    32c8:	00 00       	nop
    32ca:	f0 cf       	rjmp	.-32     	; 0x32ac <_Z8get_bytev+0x4>
    32cc:	84 36       	cpi	r24, 0x64	; 100
    32ce:	91 05       	cpc	r25, r1
    32d0:	a9 f3       	breq	.-22     	; 0x32bc <_Z8get_bytev+0x14>
    32d2:	80 91 c6 00 	lds	r24, 0x00C6	; 0x8000c6 <__TEXT_REGION_LENGTH__+0x7e00c6>
    32d6:	08 95       	ret

000032d8 <_Z9send_bytec>:
    32d8:	90 91 c0 00 	lds	r25, 0x00C0	; 0x8000c0 <__TEXT_REGION_LENGTH__+0x7e00c0>
    32dc:	95 ff       	sbrs	r25, 5
    32de:	fc cf       	rjmp	.-8      	; 0x32d8 <_Z9send_bytec>
    32e0:	80 93 c6 00 	sts	0x00C6, r24	; 0x8000c6 <__TEXT_REGION_LENGTH__+0x7e00c6>
    32e4:	08 95       	ret

000032e6 <_Z10readRxlinev>:
    32e6:	0f 93       	push	r16
    32e8:	1f 93       	push	r17
    32ea:	cf 93       	push	r28
    32ec:	df 93       	push	r29
    32ee:	00 91 ca 03 	lds	r16, 0x03CA	; 0x8003ca <tail>
    32f2:	10 91 cb 03 	lds	r17, 0x03CB	; 0x8003cb <tail+0x1>
    32f6:	c8 01       	movw	r24, r16
    32f8:	fc 01       	movw	r30, r24
    32fa:	e2 53       	subi	r30, 0x32	; 50
    32fc:	fc 4f       	sbci	r31, 0xFC	; 252
    32fe:	40 81       	ld	r20, Z
    3300:	9c 01       	movw	r18, r24
    3302:	2f 5f       	subi	r18, 0xFF	; 255
    3304:	3f 4f       	sbci	r19, 0xFF	; 255
    3306:	4a 30       	cpi	r20, 0x0A	; 10
    3308:	71 f0       	breq	.+28     	; 0x3326 <_Z10readRxlinev+0x40>
    330a:	4d 30       	cpi	r20, 0x0D	; 13
    330c:	61 f0       	breq	.+24     	; 0x3326 <_Z10readRxlinev+0x40>
    330e:	c9 01       	movw	r24, r18
    3310:	24 36       	cpi	r18, 0x64	; 100
    3312:	31 05       	cpc	r19, r1
    3314:	14 f0       	brlt	.+4      	; 0x331a <_Z10readRxlinev+0x34>
    3316:	80 e0       	ldi	r24, 0x00	; 0
    3318:	90 e0       	ldi	r25, 0x00	; 0
    331a:	08 17       	cp	r16, r24
    331c:	19 07       	cpc	r17, r25
    331e:	61 f7       	brne	.-40     	; 0x32f8 <_Z10readRxlinev+0x12>
    3320:	80 e0       	ldi	r24, 0x00	; 0
    3322:	90 e0       	ldi	r25, 0x00	; 0
    3324:	72 c0       	rjmp	.+228    	; 0x340a <_Z10readRxlinev+0x124>
    3326:	80 17       	cp	r24, r16
    3328:	91 07       	cpc	r25, r17
    332a:	34 f4       	brge	.+12     	; 0x3338 <_Z10readRxlinev+0x52>
    332c:	80 1b       	sub	r24, r16
    332e:	91 0b       	sbc	r25, r17
    3330:	ec 01       	movw	r28, r24
    3332:	cc 59       	subi	r28, 0x9C	; 156
    3334:	df 4f       	sbci	r29, 0xFF	; 255
    3336:	03 c0       	rjmp	.+6      	; 0x333e <_Z10readRxlinev+0x58>
    3338:	ec 01       	movw	r28, r24
    333a:	c0 1b       	sub	r28, r16
    333c:	d1 0b       	sbc	r29, r17
    333e:	25 36       	cpi	r18, 0x65	; 101
    3340:	31 05       	cpc	r19, r1
    3342:	2c f4       	brge	.+10     	; 0x334e <_Z10readRxlinev+0x68>
    3344:	30 93 cb 03 	sts	0x03CB, r19	; 0x8003cb <tail+0x1>
    3348:	20 93 ca 03 	sts	0x03CA, r18	; 0x8003ca <tail>
    334c:	04 c0       	rjmp	.+8      	; 0x3356 <_Z10readRxlinev+0x70>
    334e:	10 92 cb 03 	sts	0x03CB, r1	; 0x8003cb <tail+0x1>
    3352:	10 92 ca 03 	sts	0x03CA, r1	; 0x8003ca <tail>
    3356:	80 91 ca 03 	lds	r24, 0x03CA	; 0x8003ca <tail>
    335a:	90 91 cb 03 	lds	r25, 0x03CB	; 0x8003cb <tail+0x1>
    335e:	fc 01       	movw	r30, r24
    3360:	e2 53       	subi	r30, 0x32	; 50
    3362:	fc 4f       	sbci	r31, 0xFC	; 252
    3364:	20 81       	ld	r18, Z
    3366:	2a 30       	cpi	r18, 0x0A	; 10
    3368:	69 f4       	brne	.+26     	; 0x3384 <_Z10readRxlinev+0x9e>
    336a:	01 96       	adiw	r24, 0x01	; 1
    336c:	85 36       	cpi	r24, 0x65	; 101
    336e:	91 05       	cpc	r25, r1
    3370:	2c f4       	brge	.+10     	; 0x337c <_Z10readRxlinev+0x96>
    3372:	90 93 cb 03 	sts	0x03CB, r25	; 0x8003cb <tail+0x1>
    3376:	80 93 ca 03 	sts	0x03CA, r24	; 0x8003ca <tail>
    337a:	0f c0       	rjmp	.+30     	; 0x339a <_Z10readRxlinev+0xb4>
    337c:	10 92 cb 03 	sts	0x03CB, r1	; 0x8003cb <tail+0x1>
    3380:	10 92 ca 03 	sts	0x03CA, r1	; 0x8003ca <tail>
    3384:	80 91 ca 03 	lds	r24, 0x03CA	; 0x8003ca <tail>
    3388:	90 91 cb 03 	lds	r25, 0x03CB	; 0x8003cb <tail+0x1>
    338c:	85 36       	cpi	r24, 0x65	; 101
    338e:	91 05       	cpc	r25, r1
    3390:	24 f0       	brlt	.+8      	; 0x339a <_Z10readRxlinev+0xb4>
    3392:	10 92 cb 03 	sts	0x03CB, r1	; 0x8003cb <tail+0x1>
    3396:	10 92 ca 03 	sts	0x03CA, r1	; 0x8003ca <tail>
    339a:	80 91 c8 03 	lds	r24, 0x03C8	; 0x8003c8 <msg>
    339e:	90 91 c9 03 	lds	r25, 0x03C9	; 0x8003c9 <msg+0x1>
    33a2:	00 97       	sbiw	r24, 0x00	; 0
    33a4:	11 f0       	breq	.+4      	; 0x33aa <_Z10readRxlinev+0xc4>
    33a6:	0e 94 f8 2e 	call	0x5df0	; 0x5df0 <free>
    33aa:	ce 01       	movw	r24, r28
    33ac:	01 96       	adiw	r24, 0x01	; 1
    33ae:	0e 94 60 2e 	call	0x5cc0	; 0x5cc0 <malloc>
    33b2:	90 93 c9 03 	sts	0x03C9, r25	; 0x8003c9 <msg+0x1>
    33b6:	80 93 c8 03 	sts	0x03C8, r24	; 0x8003c8 <msg>
    33ba:	80 e0       	ldi	r24, 0x00	; 0
    33bc:	90 e0       	ldi	r25, 0x00	; 0
    33be:	20 91 c8 03 	lds	r18, 0x03C8	; 0x8003c8 <msg>
    33c2:	30 91 c9 03 	lds	r19, 0x03C9	; 0x8003c9 <msg+0x1>
    33c6:	8c 17       	cp	r24, r28
    33c8:	9d 07       	cpc	r25, r29
    33ca:	94 f4       	brge	.+36     	; 0x33f0 <_Z10readRxlinev+0x10a>
    33cc:	f8 01       	movw	r30, r16
    33ce:	e2 53       	subi	r30, 0x32	; 50
    33d0:	fc 4f       	sbci	r31, 0xFC	; 252
    33d2:	40 81       	ld	r20, Z
    33d4:	d9 01       	movw	r26, r18
    33d6:	a8 0f       	add	r26, r24
    33d8:	b9 1f       	adc	r27, r25
    33da:	4c 93       	st	X, r20
    33dc:	0f 5f       	subi	r16, 0xFF	; 255
    33de:	1f 4f       	sbci	r17, 0xFF	; 255
    33e0:	10 82       	st	Z, r1
    33e2:	04 36       	cpi	r16, 0x64	; 100
    33e4:	11 05       	cpc	r17, r1
    33e6:	14 f0       	brlt	.+4      	; 0x33ec <_Z10readRxlinev+0x106>
    33e8:	00 e0       	ldi	r16, 0x00	; 0
    33ea:	10 e0       	ldi	r17, 0x00	; 0
    33ec:	01 96       	adiw	r24, 0x01	; 1
    33ee:	e7 cf       	rjmp	.-50     	; 0x33be <_Z10readRxlinev+0xd8>
    33f0:	ce 01       	movw	r24, r28
    33f2:	d7 ff       	sbrs	r29, 7
    33f4:	02 c0       	rjmp	.+4      	; 0x33fa <_Z10readRxlinev+0x114>
    33f6:	80 e0       	ldi	r24, 0x00	; 0
    33f8:	90 e0       	ldi	r25, 0x00	; 0
    33fa:	e9 01       	movw	r28, r18
    33fc:	c8 0f       	add	r28, r24
    33fe:	d9 1f       	adc	r29, r25
    3400:	18 82       	st	Y, r1
    3402:	80 91 c8 03 	lds	r24, 0x03C8	; 0x8003c8 <msg>
    3406:	90 91 c9 03 	lds	r25, 0x03C9	; 0x8003c9 <msg+0x1>
    340a:	df 91       	pop	r29
    340c:	cf 91       	pop	r28
    340e:	1f 91       	pop	r17
    3410:	0f 91       	pop	r16
    3412:	08 95       	ret

00003414 <_Z9grabbytesi>:
    3414:	cf 93       	push	r28
    3416:	df 93       	push	r29
    3418:	ec 01       	movw	r28, r24
    341a:	80 91 ca 03 	lds	r24, 0x03CA	; 0x8003ca <tail>
    341e:	90 91 cb 03 	lds	r25, 0x03CB	; 0x8003cb <tail+0x1>
    3422:	85 36       	cpi	r24, 0x65	; 101
    3424:	91 05       	cpc	r25, r1
    3426:	24 f0       	brlt	.+8      	; 0x3430 <_Z9grabbytesi+0x1c>
    3428:	10 92 cb 03 	sts	0x03CB, r1	; 0x8003cb <tail+0x1>
    342c:	10 92 ca 03 	sts	0x03CA, r1	; 0x8003ca <tail>
    3430:	80 91 c8 03 	lds	r24, 0x03C8	; 0x8003c8 <msg>
    3434:	90 91 c9 03 	lds	r25, 0x03C9	; 0x8003c9 <msg+0x1>
    3438:	00 97       	sbiw	r24, 0x00	; 0
    343a:	11 f0       	breq	.+4      	; 0x3440 <_Z9grabbytesi+0x2c>
    343c:	0e 94 f8 2e 	call	0x5df0	; 0x5df0 <free>
    3440:	ce 01       	movw	r24, r28
    3442:	01 96       	adiw	r24, 0x01	; 1
    3444:	0e 94 60 2e 	call	0x5cc0	; 0x5cc0 <malloc>
    3448:	90 93 c9 03 	sts	0x03C9, r25	; 0x8003c9 <msg+0x1>
    344c:	80 93 c8 03 	sts	0x03C8, r24	; 0x8003c8 <msg>
    3450:	80 e0       	ldi	r24, 0x00	; 0
    3452:	90 e0       	ldi	r25, 0x00	; 0
    3454:	8c 17       	cp	r24, r28
    3456:	9d 07       	cpc	r25, r29
    3458:	1c f5       	brge	.+70     	; 0x34a0 <_Z9grabbytesi+0x8c>
    345a:	e0 91 c8 03 	lds	r30, 0x03C8	; 0x8003c8 <msg>
    345e:	f0 91 c9 03 	lds	r31, 0x03C9	; 0x8003c9 <msg+0x1>
    3462:	e8 0f       	add	r30, r24
    3464:	f9 1f       	adc	r31, r25
    3466:	20 91 ca 03 	lds	r18, 0x03CA	; 0x8003ca <tail>
    346a:	30 91 cb 03 	lds	r19, 0x03CB	; 0x8003cb <tail+0x1>
    346e:	a9 01       	movw	r20, r18
    3470:	4f 5f       	subi	r20, 0xFF	; 255
    3472:	5f 4f       	sbci	r21, 0xFF	; 255
    3474:	50 93 cb 03 	sts	0x03CB, r21	; 0x8003cb <tail+0x1>
    3478:	40 93 ca 03 	sts	0x03CA, r20	; 0x8003ca <tail>
    347c:	d9 01       	movw	r26, r18
    347e:	a2 53       	subi	r26, 0x32	; 50
    3480:	bc 4f       	sbci	r27, 0xFC	; 252
    3482:	2c 91       	ld	r18, X
    3484:	20 83       	st	Z, r18
    3486:	20 91 ca 03 	lds	r18, 0x03CA	; 0x8003ca <tail>
    348a:	30 91 cb 03 	lds	r19, 0x03CB	; 0x8003cb <tail+0x1>
    348e:	25 36       	cpi	r18, 0x65	; 101
    3490:	31 05       	cpc	r19, r1
    3492:	24 f0       	brlt	.+8      	; 0x349c <_Z9grabbytesi+0x88>
    3494:	10 92 cb 03 	sts	0x03CB, r1	; 0x8003cb <tail+0x1>
    3498:	10 92 ca 03 	sts	0x03CA, r1	; 0x8003ca <tail>
    349c:	01 96       	adiw	r24, 0x01	; 1
    349e:	da cf       	rjmp	.-76     	; 0x3454 <_Z9grabbytesi+0x40>
    34a0:	df 91       	pop	r29
    34a2:	cf 91       	pop	r28
    34a4:	08 95       	ret

000034a6 <_Z11indexRxBytei>:
    34a6:	20 91 c8 03 	lds	r18, 0x03C8	; 0x8003c8 <msg>
    34aa:	30 91 c9 03 	lds	r19, 0x03C9	; 0x8003c9 <msg+0x1>
    34ae:	82 0f       	add	r24, r18
    34b0:	93 1f       	adc	r25, r19
    34b2:	fc 01       	movw	r30, r24
    34b4:	80 81       	ld	r24, Z
    34b6:	08 95       	ret

000034b8 <_Z5resetv>:
    34b8:	10 92 cd 03 	sts	0x03CD, r1	; 0x8003cd <head+0x1>
    34bc:	10 92 cc 03 	sts	0x03CC, r1	; 0x8003cc <head>
    34c0:	10 92 cb 03 	sts	0x03CB, r1	; 0x8003cb <tail+0x1>
    34c4:	10 92 ca 03 	sts	0x03CA, r1	; 0x8003ca <tail>
    34c8:	08 95       	ret

000034ca <_Z12send_string1Pc>:
    34ca:	fc 01       	movw	r30, r24
    34cc:	80 91 c8 00 	lds	r24, 0x00C8	; 0x8000c8 <__TEXT_REGION_LENGTH__+0x7e00c8>
    34d0:	85 ff       	sbrs	r24, 5
    34d2:	fc cf       	rjmp	.-8      	; 0x34cc <_Z12send_string1Pc+0x2>
    34d4:	81 91       	ld	r24, Z+
    34d6:	80 93 ce 00 	sts	0x00CE, r24	; 0x8000ce <__TEXT_REGION_LENGTH__+0x7e00ce>
    34da:	80 81       	ld	r24, Z
    34dc:	81 11       	cpse	r24, r1
    34de:	f6 cf       	rjmp	.-20     	; 0x34cc <_Z12send_string1Pc+0x2>
    34e0:	08 95       	ret

000034e2 <_Z11get_string1Pcj>:
    34e2:	fc 01       	movw	r30, r24
    34e4:	20 e0       	ldi	r18, 0x00	; 0
    34e6:	30 e0       	ldi	r19, 0x00	; 0
    34e8:	40 91 c8 00 	lds	r20, 0x00C8	; 0x8000c8 <__TEXT_REGION_LENGTH__+0x7e00c8>
    34ec:	47 ff       	sbrs	r20, 7
    34ee:	fc cf       	rjmp	.-8      	; 0x34e8 <_Z11get_string1Pcj+0x6>
    34f0:	40 91 ce 00 	lds	r20, 0x00CE	; 0x8000ce <__TEXT_REGION_LENGTH__+0x7e00ce>
    34f4:	41 93       	st	Z+, r20
    34f6:	4a 30       	cpi	r20, 0x0A	; 10
    34f8:	39 f0       	breq	.+14     	; 0x3508 <_Z11get_string1Pcj+0x26>
    34fa:	4d 30       	cpi	r20, 0x0D	; 13
    34fc:	29 f0       	breq	.+10     	; 0x3508 <_Z11get_string1Pcj+0x26>
    34fe:	2f 5f       	subi	r18, 0xFF	; 255
    3500:	3f 4f       	sbci	r19, 0xFF	; 255
    3502:	26 17       	cp	r18, r22
    3504:	37 07       	cpc	r19, r23
    3506:	80 f3       	brcs	.-32     	; 0x34e8 <_Z11get_string1Pcj+0x6>
    3508:	fc 01       	movw	r30, r24
    350a:	e2 0f       	add	r30, r18
    350c:	f3 1f       	adc	r31, r19
    350e:	26 17       	cp	r18, r22
    3510:	37 07       	cpc	r19, r23
    3512:	09 f4       	brne	.+2      	; 0x3516 <_Z11get_string1Pcj+0x34>
    3514:	31 97       	sbiw	r30, 0x01	; 1
    3516:	10 82       	st	Z, r1
    3518:	08 95       	ret

0000351a <_Z9get_byte1v>:
    351a:	80 e0       	ldi	r24, 0x00	; 0
    351c:	90 e0       	ldi	r25, 0x00	; 0
    351e:	20 91 c8 00 	lds	r18, 0x00C8	; 0x8000c8 <__TEXT_REGION_LENGTH__+0x7e00c8>
    3522:	27 fd       	sbrc	r18, 7
    3524:	0c c0       	rjmp	.+24     	; 0x353e <_Z9get_byte1v+0x24>
    3526:	01 96       	adiw	r24, 0x01	; 1
    3528:	85 36       	cpi	r24, 0x65	; 101
    352a:	91 05       	cpc	r25, r1
    352c:	11 f4       	brne	.+4      	; 0x3532 <_Z9get_byte1v+0x18>
    352e:	80 e0       	ldi	r24, 0x00	; 0
    3530:	08 95       	ret
    3532:	e6 e6       	ldi	r30, 0x66	; 102
    3534:	fe e0       	ldi	r31, 0x0E	; 14
    3536:	31 97       	sbiw	r30, 0x01	; 1
    3538:	f1 f7       	brne	.-4      	; 0x3536 <_Z9get_byte1v+0x1c>
    353a:	00 00       	nop
    353c:	f0 cf       	rjmp	.-32     	; 0x351e <_Z9get_byte1v+0x4>
    353e:	84 36       	cpi	r24, 0x64	; 100
    3540:	91 05       	cpc	r25, r1
    3542:	a9 f3       	breq	.-22     	; 0x352e <_Z9get_byte1v+0x14>
    3544:	80 91 ce 00 	lds	r24, 0x00CE	; 0x8000ce <__TEXT_REGION_LENGTH__+0x7e00ce>
    3548:	08 95       	ret

0000354a <_Z10send_byte1c>:
    354a:	90 91 c8 00 	lds	r25, 0x00C8	; 0x8000c8 <__TEXT_REGION_LENGTH__+0x7e00c8>
    354e:	95 ff       	sbrs	r25, 5
    3550:	fc cf       	rjmp	.-8      	; 0x354a <_Z10send_byte1c>
    3552:	80 93 ce 00 	sts	0x00CE, r24	; 0x8000ce <__TEXT_REGION_LENGTH__+0x7e00ce>
    3556:	08 95       	ret

00003558 <_Z11readRxline1v>:
    3558:	0f 93       	push	r16
    355a:	1f 93       	push	r17
    355c:	cf 93       	push	r28
    355e:	df 93       	push	r29
    3560:	00 91 60 03 	lds	r16, 0x0360	; 0x800360 <tail1>
    3564:	10 91 61 03 	lds	r17, 0x0361	; 0x800361 <tail1+0x1>
    3568:	c8 01       	movw	r24, r16
    356a:	fc 01       	movw	r30, r24
    356c:	ec 59       	subi	r30, 0x9C	; 156
    356e:	fc 4f       	sbci	r31, 0xFC	; 252
    3570:	40 81       	ld	r20, Z
    3572:	9c 01       	movw	r18, r24
    3574:	2f 5f       	subi	r18, 0xFF	; 255
    3576:	3f 4f       	sbci	r19, 0xFF	; 255
    3578:	4a 30       	cpi	r20, 0x0A	; 10
    357a:	71 f0       	breq	.+28     	; 0x3598 <_Z11readRxline1v+0x40>
    357c:	4d 30       	cpi	r20, 0x0D	; 13
    357e:	61 f0       	breq	.+24     	; 0x3598 <_Z11readRxline1v+0x40>
    3580:	c9 01       	movw	r24, r18
    3582:	24 36       	cpi	r18, 0x64	; 100
    3584:	31 05       	cpc	r19, r1
    3586:	14 f0       	brlt	.+4      	; 0x358c <_Z11readRxline1v+0x34>
    3588:	80 e0       	ldi	r24, 0x00	; 0
    358a:	90 e0       	ldi	r25, 0x00	; 0
    358c:	08 17       	cp	r16, r24
    358e:	19 07       	cpc	r17, r25
    3590:	61 f7       	brne	.-40     	; 0x356a <_Z11readRxline1v+0x12>
    3592:	80 e0       	ldi	r24, 0x00	; 0
    3594:	90 e0       	ldi	r25, 0x00	; 0
    3596:	72 c0       	rjmp	.+228    	; 0x367c <_Z11readRxline1v+0x124>
    3598:	80 17       	cp	r24, r16
    359a:	91 07       	cpc	r25, r17
    359c:	34 f4       	brge	.+12     	; 0x35aa <_Z11readRxline1v+0x52>
    359e:	80 1b       	sub	r24, r16
    35a0:	91 0b       	sbc	r25, r17
    35a2:	ec 01       	movw	r28, r24
    35a4:	cc 59       	subi	r28, 0x9C	; 156
    35a6:	df 4f       	sbci	r29, 0xFF	; 255
    35a8:	03 c0       	rjmp	.+6      	; 0x35b0 <_Z11readRxline1v+0x58>
    35aa:	ec 01       	movw	r28, r24
    35ac:	c0 1b       	sub	r28, r16
    35ae:	d1 0b       	sbc	r29, r17
    35b0:	25 36       	cpi	r18, 0x65	; 101
    35b2:	31 05       	cpc	r19, r1
    35b4:	2c f4       	brge	.+10     	; 0x35c0 <_Z11readRxline1v+0x68>
    35b6:	30 93 61 03 	sts	0x0361, r19	; 0x800361 <tail1+0x1>
    35ba:	20 93 60 03 	sts	0x0360, r18	; 0x800360 <tail1>
    35be:	04 c0       	rjmp	.+8      	; 0x35c8 <_Z11readRxline1v+0x70>
    35c0:	10 92 61 03 	sts	0x0361, r1	; 0x800361 <tail1+0x1>
    35c4:	10 92 60 03 	sts	0x0360, r1	; 0x800360 <tail1>
    35c8:	80 91 60 03 	lds	r24, 0x0360	; 0x800360 <tail1>
    35cc:	90 91 61 03 	lds	r25, 0x0361	; 0x800361 <tail1+0x1>
    35d0:	fc 01       	movw	r30, r24
    35d2:	ec 59       	subi	r30, 0x9C	; 156
    35d4:	fc 4f       	sbci	r31, 0xFC	; 252
    35d6:	20 81       	ld	r18, Z
    35d8:	2a 30       	cpi	r18, 0x0A	; 10
    35da:	69 f4       	brne	.+26     	; 0x35f6 <_Z11readRxline1v+0x9e>
    35dc:	01 96       	adiw	r24, 0x01	; 1
    35de:	85 36       	cpi	r24, 0x65	; 101
    35e0:	91 05       	cpc	r25, r1
    35e2:	2c f4       	brge	.+10     	; 0x35ee <_Z11readRxline1v+0x96>
    35e4:	90 93 61 03 	sts	0x0361, r25	; 0x800361 <tail1+0x1>
    35e8:	80 93 60 03 	sts	0x0360, r24	; 0x800360 <tail1>
    35ec:	0f c0       	rjmp	.+30     	; 0x360c <_Z11readRxline1v+0xb4>
    35ee:	10 92 61 03 	sts	0x0361, r1	; 0x800361 <tail1+0x1>
    35f2:	10 92 60 03 	sts	0x0360, r1	; 0x800360 <tail1>
    35f6:	80 91 60 03 	lds	r24, 0x0360	; 0x800360 <tail1>
    35fa:	90 91 61 03 	lds	r25, 0x0361	; 0x800361 <tail1+0x1>
    35fe:	85 36       	cpi	r24, 0x65	; 101
    3600:	91 05       	cpc	r25, r1
    3602:	24 f0       	brlt	.+8      	; 0x360c <_Z11readRxline1v+0xb4>
    3604:	10 92 61 03 	sts	0x0361, r1	; 0x800361 <tail1+0x1>
    3608:	10 92 60 03 	sts	0x0360, r1	; 0x800360 <tail1>
    360c:	80 91 5e 03 	lds	r24, 0x035E	; 0x80035e <msg1>
    3610:	90 91 5f 03 	lds	r25, 0x035F	; 0x80035f <msg1+0x1>
    3614:	00 97       	sbiw	r24, 0x00	; 0
    3616:	11 f0       	breq	.+4      	; 0x361c <_Z11readRxline1v+0xc4>
    3618:	0e 94 f8 2e 	call	0x5df0	; 0x5df0 <free>
    361c:	ce 01       	movw	r24, r28
    361e:	01 96       	adiw	r24, 0x01	; 1
    3620:	0e 94 60 2e 	call	0x5cc0	; 0x5cc0 <malloc>
    3624:	90 93 5f 03 	sts	0x035F, r25	; 0x80035f <msg1+0x1>
    3628:	80 93 5e 03 	sts	0x035E, r24	; 0x80035e <msg1>
    362c:	80 e0       	ldi	r24, 0x00	; 0
    362e:	90 e0       	ldi	r25, 0x00	; 0
    3630:	20 91 5e 03 	lds	r18, 0x035E	; 0x80035e <msg1>
    3634:	30 91 5f 03 	lds	r19, 0x035F	; 0x80035f <msg1+0x1>
    3638:	8c 17       	cp	r24, r28
    363a:	9d 07       	cpc	r25, r29
    363c:	94 f4       	brge	.+36     	; 0x3662 <_Z11readRxline1v+0x10a>
    363e:	f8 01       	movw	r30, r16
    3640:	ec 59       	subi	r30, 0x9C	; 156
    3642:	fc 4f       	sbci	r31, 0xFC	; 252
    3644:	40 81       	ld	r20, Z
    3646:	d9 01       	movw	r26, r18
    3648:	a8 0f       	add	r26, r24
    364a:	b9 1f       	adc	r27, r25
    364c:	4c 93       	st	X, r20
    364e:	0f 5f       	subi	r16, 0xFF	; 255
    3650:	1f 4f       	sbci	r17, 0xFF	; 255
    3652:	10 82       	st	Z, r1
    3654:	04 36       	cpi	r16, 0x64	; 100
    3656:	11 05       	cpc	r17, r1
    3658:	14 f0       	brlt	.+4      	; 0x365e <_Z11readRxline1v+0x106>
    365a:	00 e0       	ldi	r16, 0x00	; 0
    365c:	10 e0       	ldi	r17, 0x00	; 0
    365e:	01 96       	adiw	r24, 0x01	; 1
    3660:	e7 cf       	rjmp	.-50     	; 0x3630 <_Z11readRxline1v+0xd8>
    3662:	ce 01       	movw	r24, r28
    3664:	d7 ff       	sbrs	r29, 7
    3666:	02 c0       	rjmp	.+4      	; 0x366c <_Z11readRxline1v+0x114>
    3668:	80 e0       	ldi	r24, 0x00	; 0
    366a:	90 e0       	ldi	r25, 0x00	; 0
    366c:	e9 01       	movw	r28, r18
    366e:	c8 0f       	add	r28, r24
    3670:	d9 1f       	adc	r29, r25
    3672:	18 82       	st	Y, r1
    3674:	80 91 5e 03 	lds	r24, 0x035E	; 0x80035e <msg1>
    3678:	90 91 5f 03 	lds	r25, 0x035F	; 0x80035f <msg1+0x1>
    367c:	df 91       	pop	r29
    367e:	cf 91       	pop	r28
    3680:	1f 91       	pop	r17
    3682:	0f 91       	pop	r16
    3684:	08 95       	ret

00003686 <_Z10grabbytes1i>:
    3686:	cf 93       	push	r28
    3688:	df 93       	push	r29
    368a:	ec 01       	movw	r28, r24
    368c:	80 91 60 03 	lds	r24, 0x0360	; 0x800360 <tail1>
    3690:	90 91 61 03 	lds	r25, 0x0361	; 0x800361 <tail1+0x1>
    3694:	85 36       	cpi	r24, 0x65	; 101
    3696:	91 05       	cpc	r25, r1
    3698:	24 f0       	brlt	.+8      	; 0x36a2 <_Z10grabbytes1i+0x1c>
    369a:	10 92 61 03 	sts	0x0361, r1	; 0x800361 <tail1+0x1>
    369e:	10 92 60 03 	sts	0x0360, r1	; 0x800360 <tail1>
    36a2:	80 91 5e 03 	lds	r24, 0x035E	; 0x80035e <msg1>
    36a6:	90 91 5f 03 	lds	r25, 0x035F	; 0x80035f <msg1+0x1>
    36aa:	00 97       	sbiw	r24, 0x00	; 0
    36ac:	11 f0       	breq	.+4      	; 0x36b2 <_Z10grabbytes1i+0x2c>
    36ae:	0e 94 f8 2e 	call	0x5df0	; 0x5df0 <free>
    36b2:	ce 01       	movw	r24, r28
    36b4:	01 96       	adiw	r24, 0x01	; 1
    36b6:	0e 94 60 2e 	call	0x5cc0	; 0x5cc0 <malloc>
    36ba:	90 93 5f 03 	sts	0x035F, r25	; 0x80035f <msg1+0x1>
    36be:	80 93 5e 03 	sts	0x035E, r24	; 0x80035e <msg1>
    36c2:	80 e0       	ldi	r24, 0x00	; 0
    36c4:	90 e0       	ldi	r25, 0x00	; 0
    36c6:	8c 17       	cp	r24, r28
    36c8:	9d 07       	cpc	r25, r29
    36ca:	1c f5       	brge	.+70     	; 0x3712 <_Z10grabbytes1i+0x8c>
    36cc:	e0 91 5e 03 	lds	r30, 0x035E	; 0x80035e <msg1>
    36d0:	f0 91 5f 03 	lds	r31, 0x035F	; 0x80035f <msg1+0x1>
    36d4:	e8 0f       	add	r30, r24
    36d6:	f9 1f       	adc	r31, r25
    36d8:	20 91 60 03 	lds	r18, 0x0360	; 0x800360 <tail1>
    36dc:	30 91 61 03 	lds	r19, 0x0361	; 0x800361 <tail1+0x1>
    36e0:	a9 01       	movw	r20, r18
    36e2:	4f 5f       	subi	r20, 0xFF	; 255
    36e4:	5f 4f       	sbci	r21, 0xFF	; 255
    36e6:	50 93 61 03 	sts	0x0361, r21	; 0x800361 <tail1+0x1>
    36ea:	40 93 60 03 	sts	0x0360, r20	; 0x800360 <tail1>
    36ee:	d9 01       	movw	r26, r18
    36f0:	ac 59       	subi	r26, 0x9C	; 156
    36f2:	bc 4f       	sbci	r27, 0xFC	; 252
    36f4:	2c 91       	ld	r18, X
    36f6:	20 83       	st	Z, r18
    36f8:	20 91 60 03 	lds	r18, 0x0360	; 0x800360 <tail1>
    36fc:	30 91 61 03 	lds	r19, 0x0361	; 0x800361 <tail1+0x1>
    3700:	25 36       	cpi	r18, 0x65	; 101
    3702:	31 05       	cpc	r19, r1
    3704:	24 f0       	brlt	.+8      	; 0x370e <_Z10grabbytes1i+0x88>
    3706:	10 92 61 03 	sts	0x0361, r1	; 0x800361 <tail1+0x1>
    370a:	10 92 60 03 	sts	0x0360, r1	; 0x800360 <tail1>
    370e:	01 96       	adiw	r24, 0x01	; 1
    3710:	da cf       	rjmp	.-76     	; 0x36c6 <_Z10grabbytes1i+0x40>
    3712:	df 91       	pop	r29
    3714:	cf 91       	pop	r28
    3716:	08 95       	ret

00003718 <_Z12indexRxByte1i>:
    3718:	20 91 5e 03 	lds	r18, 0x035E	; 0x80035e <msg1>
    371c:	30 91 5f 03 	lds	r19, 0x035F	; 0x80035f <msg1+0x1>
    3720:	82 0f       	add	r24, r18
    3722:	93 1f       	adc	r25, r19
    3724:	fc 01       	movw	r30, r24
    3726:	80 81       	ld	r24, Z
    3728:	08 95       	ret

0000372a <_Z6reset1v>:
    372a:	10 92 63 03 	sts	0x0363, r1	; 0x800363 <head1+0x1>
    372e:	10 92 62 03 	sts	0x0362, r1	; 0x800362 <head1>
    3732:	10 92 61 03 	sts	0x0361, r1	; 0x800361 <tail1+0x1>
    3736:	10 92 60 03 	sts	0x0360, r1	; 0x800360 <tail1>
    373a:	08 95       	ret

0000373c <_ZN5ValueC1Ev>:
    373c:	08 95       	ret

0000373e <_ZN5ValueC1Ei>:
    373e:	cf 93       	push	r28
    3740:	df 93       	push	r29
    3742:	ec 01       	movw	r28, r24
    3744:	6c 83       	std	Y+4, r22	; 0x04
    3746:	7d 83       	std	Y+5, r23	; 0x05
    3748:	7f 93       	push	r23
    374a:	6f 93       	push	r22
    374c:	80 e5       	ldi	r24, 0x50	; 80
    374e:	93 e0       	ldi	r25, 0x03	; 3
    3750:	9f 93       	push	r25
    3752:	8f 93       	push	r24
    3754:	ce 01       	movw	r24, r28
    3756:	0a 96       	adiw	r24, 0x0a	; 10
    3758:	9f 93       	push	r25
    375a:	8f 93       	push	r24
    375c:	0e 94 46 32 	call	0x648c	; 0x648c <sprintf>
    3760:	1f ae       	std	Y+63, r1	; 0x3f
    3762:	0f 90       	pop	r0
    3764:	0f 90       	pop	r0
    3766:	0f 90       	pop	r0
    3768:	0f 90       	pop	r0
    376a:	0f 90       	pop	r0
    376c:	0f 90       	pop	r0
    376e:	df 91       	pop	r29
    3770:	cf 91       	pop	r28
    3772:	08 95       	ret

00003774 <_ZN5ValueC1Ec>:
    3774:	cf 93       	push	r28
    3776:	df 93       	push	r29
    3778:	ec 01       	movw	r28, r24
    377a:	86 2f       	mov	r24, r22
    377c:	90 e0       	ldi	r25, 0x00	; 0
    377e:	9d 83       	std	Y+5, r25	; 0x05
    3780:	8c 83       	std	Y+4, r24	; 0x04
    3782:	1f 92       	push	r1
    3784:	6f 93       	push	r22
    3786:	80 e5       	ldi	r24, 0x50	; 80
    3788:	93 e0       	ldi	r25, 0x03	; 3
    378a:	9f 93       	push	r25
    378c:	8f 93       	push	r24
    378e:	ce 01       	movw	r24, r28
    3790:	0a 96       	adiw	r24, 0x0a	; 10
    3792:	9f 93       	push	r25
    3794:	8f 93       	push	r24
    3796:	0e 94 46 32 	call	0x648c	; 0x648c <sprintf>
    379a:	1f ae       	std	Y+63, r1	; 0x3f
    379c:	0f 90       	pop	r0
    379e:	0f 90       	pop	r0
    37a0:	0f 90       	pop	r0
    37a2:	0f 90       	pop	r0
    37a4:	0f 90       	pop	r0
    37a6:	0f 90       	pop	r0
    37a8:	df 91       	pop	r29
    37aa:	cf 91       	pop	r28
    37ac:	08 95       	ret

000037ae <_ZN5ValueC1EPKc>:
    37ae:	cf 93       	push	r28
    37b0:	df 93       	push	r29
    37b2:	ec 01       	movw	r28, r24
    37b4:	0a 96       	adiw	r24, 0x0a	; 10
    37b6:	0e 94 f0 31 	call	0x63e0	; 0x63e0 <strcpy>
    37ba:	81 e0       	ldi	r24, 0x01	; 1
    37bc:	8f af       	std	Y+63, r24	; 0x3f
    37be:	df 91       	pop	r29
    37c0:	cf 91       	pop	r28
    37c2:	08 95       	ret

000037c4 <_ZN5ValueC1Eb>:
    37c4:	fc 01       	movw	r30, r24
    37c6:	e0 5c       	subi	r30, 0xC0	; 192
    37c8:	ff 4f       	sbci	r31, 0xFF	; 255
    37ca:	60 83       	st	Z, r22
    37cc:	22 e0       	ldi	r18, 0x02	; 2
    37ce:	fc 01       	movw	r30, r24
    37d0:	27 af       	std	Z+63, r18	; 0x3f
    37d2:	08 95       	ret

000037d4 <_ZN5ValueC1Ed>:
    37d4:	fc 01       	movw	r30, r24
    37d6:	46 83       	std	Z+6, r20	; 0x06
    37d8:	57 83       	std	Z+7, r21	; 0x07
    37da:	60 87       	std	Z+8, r22	; 0x08
    37dc:	71 87       	std	Z+9, r23	; 0x09
    37de:	23 e0       	ldi	r18, 0x03	; 3
    37e0:	27 af       	std	Z+63, r18	; 0x3f
    37e2:	08 95       	ret

000037e4 <_ZN5ValueC1E4TYPEi>:
    37e4:	0f 93       	push	r16
    37e6:	1f 93       	push	r17
    37e8:	cf 93       	push	r28
    37ea:	df 93       	push	r29
    37ec:	ec 01       	movw	r28, r24
    37ee:	8a 01       	movw	r16, r20
    37f0:	6f af       	std	Y+63, r22	; 0x3f
    37f2:	81 e0       	ldi	r24, 0x01	; 1
    37f4:	8c af       	std	Y+60, r24	; 0x3c
    37f6:	61 11       	cpse	r22, r1
    37f8:	11 c0       	rjmp	.+34     	; 0x381c <_ZN5ValueC1E4TYPEi+0x38>
    37fa:	ca 01       	movw	r24, r20
    37fc:	88 0f       	add	r24, r24
    37fe:	99 1f       	adc	r25, r25
    3800:	0e 94 60 2e 	call	0x5cc0	; 0x5cc0 <malloc>
    3804:	88 83       	st	Y, r24
    3806:	99 83       	std	Y+1, r25	; 0x01
    3808:	fc 01       	movw	r30, r24
    380a:	80 e0       	ldi	r24, 0x00	; 0
    380c:	90 e0       	ldi	r25, 0x00	; 0
    380e:	80 17       	cp	r24, r16
    3810:	91 07       	cpc	r25, r17
    3812:	dc f4       	brge	.+54     	; 0x384a <_ZN5ValueC1E4TYPEi+0x66>
    3814:	11 92       	st	Z+, r1
    3816:	11 92       	st	Z+, r1
    3818:	01 96       	adiw	r24, 0x01	; 1
    381a:	f9 cf       	rjmp	.-14     	; 0x380e <_ZN5ValueC1E4TYPEi+0x2a>
    381c:	63 30       	cpi	r22, 0x03	; 3
    381e:	a9 f4       	brne	.+42     	; 0x384a <_ZN5ValueC1E4TYPEi+0x66>
    3820:	ca 01       	movw	r24, r20
    3822:	88 0f       	add	r24, r24
    3824:	99 1f       	adc	r25, r25
    3826:	88 0f       	add	r24, r24
    3828:	99 1f       	adc	r25, r25
    382a:	0e 94 60 2e 	call	0x5cc0	; 0x5cc0 <malloc>
    382e:	8a 83       	std	Y+2, r24	; 0x02
    3830:	9b 83       	std	Y+3, r25	; 0x03
    3832:	fc 01       	movw	r30, r24
    3834:	80 e0       	ldi	r24, 0x00	; 0
    3836:	90 e0       	ldi	r25, 0x00	; 0
    3838:	80 17       	cp	r24, r16
    383a:	91 07       	cpc	r25, r17
    383c:	34 f4       	brge	.+12     	; 0x384a <_ZN5ValueC1E4TYPEi+0x66>
    383e:	11 92       	st	Z+, r1
    3840:	11 92       	st	Z+, r1
    3842:	11 92       	st	Z+, r1
    3844:	11 92       	st	Z+, r1
    3846:	01 96       	adiw	r24, 0x01	; 1
    3848:	f7 cf       	rjmp	.-18     	; 0x3838 <_ZN5ValueC1E4TYPEi+0x54>
    384a:	df 91       	pop	r29
    384c:	cf 91       	pop	r28
    384e:	1f 91       	pop	r17
    3850:	0f 91       	pop	r16
    3852:	08 95       	ret

00003854 <_ZplRK5ValueS1_>:
    3854:	5f 92       	push	r5
    3856:	6f 92       	push	r6
    3858:	7f 92       	push	r7
    385a:	8f 92       	push	r8
    385c:	9f 92       	push	r9
    385e:	af 92       	push	r10
    3860:	bf 92       	push	r11
    3862:	cf 92       	push	r12
    3864:	df 92       	push	r13
    3866:	ef 92       	push	r14
    3868:	ff 92       	push	r15
    386a:	0f 93       	push	r16
    386c:	1f 93       	push	r17
    386e:	cf 93       	push	r28
    3870:	df 93       	push	r29
    3872:	cd b7       	in	r28, 0x3d	; 61
    3874:	de b7       	in	r29, 0x3e	; 62
    3876:	c5 5a       	subi	r28, 0xA5	; 165
    3878:	d1 09       	sbc	r29, r1
    387a:	0f b6       	in	r0, 0x3f	; 63
    387c:	f8 94       	cli
    387e:	de bf       	out	0x3e, r29	; 62
    3880:	0f be       	out	0x3f, r0	; 63
    3882:	cd bf       	out	0x3d, r28	; 61
    3884:	6c 01       	movw	r12, r24
    3886:	8b 01       	movw	r16, r22
    3888:	7a 01       	movw	r14, r20
    388a:	fb 01       	movw	r30, r22
    388c:	57 ac       	ldd	r5, Z+63	; 0x3f
    388e:	fa 01       	movw	r30, r20
    3890:	b7 ac       	ldd	r11, Z+63	; 0x3f
    3892:	f1 e0       	ldi	r31, 0x01	; 1
    3894:	5f 16       	cp	r5, r31
    3896:	29 f1       	breq	.+74     	; 0x38e2 <_ZplRK5ValueS1_+0x8e>
    3898:	bf 12       	cpse	r11, r31
    389a:	a7 c0       	rjmp	.+334    	; 0x39ea <_ZplRK5ValueS1_+0x196>
    389c:	ce 01       	movw	r24, r28
    389e:	8c 58       	subi	r24, 0x8C	; 140
    38a0:	9f 4f       	sbci	r25, 0xFF	; 255
    38a2:	5c 01       	movw	r10, r24
    38a4:	fb 01       	movw	r30, r22
    38a6:	3a 96       	adiw	r30, 0x0a	; 10
    38a8:	3f 01       	movw	r6, r30
    38aa:	ca 01       	movw	r24, r20
    38ac:	0a 96       	adiw	r24, 0x0a	; 10
    38ae:	4c 01       	movw	r8, r24
    38b0:	51 10       	cpse	r5, r1
    38b2:	ef c0       	rjmp	.+478    	; 0x3a92 <_ZplRK5ValueS1_+0x23e>
    38b4:	fb 01       	movw	r30, r22
    38b6:	85 81       	ldd	r24, Z+5	; 0x05
    38b8:	8f 93       	push	r24
    38ba:	84 81       	ldd	r24, Z+4	; 0x04
    38bc:	8f 93       	push	r24
    38be:	80 e5       	ldi	r24, 0x50	; 80
    38c0:	93 e0       	ldi	r25, 0x03	; 3
    38c2:	9f 93       	push	r25
    38c4:	8f 93       	push	r24
    38c6:	bf 92       	push	r11
    38c8:	af 92       	push	r10
    38ca:	0e 94 46 32 	call	0x648c	; 0x648c <sprintf>
    38ce:	b3 01       	movw	r22, r6
    38d0:	c5 01       	movw	r24, r10
    38d2:	0e 94 f0 31 	call	0x63e0	; 0x63e0 <strcpy>
    38d6:	b4 01       	movw	r22, r8
    38d8:	c5 01       	movw	r24, r10
    38da:	0e 94 dc 31 	call	0x63b8	; 0x63b8 <strcat>
    38de:	b5 01       	movw	r22, r10
    38e0:	24 c0       	rjmp	.+72     	; 0x392a <_ZplRK5ValueS1_+0xd6>
    38e2:	fb 01       	movw	r30, r22
    38e4:	3a 96       	adiw	r30, 0x0a	; 10
    38e6:	4f 01       	movw	r8, r30
    38e8:	b1 10       	cpse	r11, r1
    38ea:	31 c0       	rjmp	.+98     	; 0x394e <_ZplRK5ValueS1_+0xfa>
    38ec:	fa 01       	movw	r30, r20
    38ee:	85 81       	ldd	r24, Z+5	; 0x05
    38f0:	8f 93       	push	r24
    38f2:	84 81       	ldd	r24, Z+4	; 0x04
    38f4:	8f 93       	push	r24
    38f6:	80 e5       	ldi	r24, 0x50	; 80
    38f8:	93 e0       	ldi	r25, 0x03	; 3
    38fa:	9f 93       	push	r25
    38fc:	8f 93       	push	r24
    38fe:	8e 01       	movw	r16, r28
    3900:	0e 5b       	subi	r16, 0xBE	; 190
    3902:	1f 4f       	sbci	r17, 0xFF	; 255
    3904:	1f 93       	push	r17
    3906:	0f 93       	push	r16
    3908:	0e 94 46 32 	call	0x648c	; 0x648c <sprintf>
    390c:	b4 01       	movw	r22, r8
    390e:	ce 01       	movw	r24, r28
    3910:	8c 58       	subi	r24, 0x8C	; 140
    3912:	9f 4f       	sbci	r25, 0xFF	; 255
    3914:	0e 94 f0 31 	call	0x63e0	; 0x63e0 <strcpy>
    3918:	b8 01       	movw	r22, r16
    391a:	ce 01       	movw	r24, r28
    391c:	8c 58       	subi	r24, 0x8C	; 140
    391e:	9f 4f       	sbci	r25, 0xFF	; 255
    3920:	0e 94 dc 31 	call	0x63b8	; 0x63b8 <strcat>
    3924:	be 01       	movw	r22, r28
    3926:	6c 58       	subi	r22, 0x8C	; 140
    3928:	7f 4f       	sbci	r23, 0xFF	; 255
    392a:	ce 01       	movw	r24, r28
    392c:	01 96       	adiw	r24, 0x01	; 1
    392e:	3f df       	rcall	.-386    	; 0x37ae <_ZN5ValueC1EPKc>
    3930:	81 e4       	ldi	r24, 0x41	; 65
    3932:	fe 01       	movw	r30, r28
    3934:	31 96       	adiw	r30, 0x01	; 1
    3936:	d6 01       	movw	r26, r12
    3938:	01 90       	ld	r0, Z+
    393a:	0d 92       	st	X+, r0
    393c:	8a 95       	dec	r24
    393e:	e1 f7       	brne	.-8      	; 0x3938 <_ZplRK5ValueS1_+0xe4>
    3940:	0f 90       	pop	r0
    3942:	0f 90       	pop	r0
    3944:	0f 90       	pop	r0
    3946:	0f 90       	pop	r0
    3948:	0f 90       	pop	r0
    394a:	0f 90       	pop	r0
    394c:	c0 c0       	rjmp	.+384    	; 0x3ace <_ZplRK5ValueS1_+0x27a>
    394e:	f3 e0       	ldi	r31, 0x03	; 3
    3950:	bf 12       	cpse	r11, r31
    3952:	34 c0       	rjmp	.+104    	; 0x39bc <_ZplRK5ValueS1_+0x168>
    3954:	fa 01       	movw	r30, r20
    3956:	81 85       	ldd	r24, Z+9	; 0x09
    3958:	8f 93       	push	r24
    395a:	80 85       	ldd	r24, Z+8	; 0x08
    395c:	8f 93       	push	r24
    395e:	87 81       	ldd	r24, Z+7	; 0x07
    3960:	8f 93       	push	r24
    3962:	86 81       	ldd	r24, Z+6	; 0x06
    3964:	8f 93       	push	r24
    3966:	83 e5       	ldi	r24, 0x53	; 83
    3968:	93 e0       	ldi	r25, 0x03	; 3
    396a:	9f 93       	push	r25
    396c:	8f 93       	push	r24
    396e:	8e 01       	movw	r16, r28
    3970:	0e 5b       	subi	r16, 0xBE	; 190
    3972:	1f 4f       	sbci	r17, 0xFF	; 255
    3974:	1f 93       	push	r17
    3976:	0f 93       	push	r16
    3978:	0e 94 46 32 	call	0x648c	; 0x648c <sprintf>
    397c:	b4 01       	movw	r22, r8
    397e:	ce 01       	movw	r24, r28
    3980:	8c 58       	subi	r24, 0x8C	; 140
    3982:	9f 4f       	sbci	r25, 0xFF	; 255
    3984:	0e 94 f0 31 	call	0x63e0	; 0x63e0 <strcpy>
    3988:	b8 01       	movw	r22, r16
    398a:	ce 01       	movw	r24, r28
    398c:	8c 58       	subi	r24, 0x8C	; 140
    398e:	9f 4f       	sbci	r25, 0xFF	; 255
    3990:	0e 94 dc 31 	call	0x63b8	; 0x63b8 <strcat>
    3994:	be 01       	movw	r22, r28
    3996:	6c 58       	subi	r22, 0x8C	; 140
    3998:	7f 4f       	sbci	r23, 0xFF	; 255
    399a:	ce 01       	movw	r24, r28
    399c:	01 96       	adiw	r24, 0x01	; 1
    399e:	07 df       	rcall	.-498    	; 0x37ae <_ZN5ValueC1EPKc>
    39a0:	81 e4       	ldi	r24, 0x41	; 65
    39a2:	fe 01       	movw	r30, r28
    39a4:	31 96       	adiw	r30, 0x01	; 1
    39a6:	d6 01       	movw	r26, r12
    39a8:	01 90       	ld	r0, Z+
    39aa:	0d 92       	st	X+, r0
    39ac:	8a 95       	dec	r24
    39ae:	e1 f7       	brne	.-8      	; 0x39a8 <_ZplRK5ValueS1_+0x154>
    39b0:	0f b6       	in	r0, 0x3f	; 63
    39b2:	f8 94       	cli
    39b4:	de bf       	out	0x3e, r29	; 62
    39b6:	0f be       	out	0x3f, r0	; 63
    39b8:	cd bf       	out	0x3d, r28	; 61
    39ba:	89 c0       	rjmp	.+274    	; 0x3ace <_ZplRK5ValueS1_+0x27a>
    39bc:	b8 01       	movw	r22, r16
    39be:	66 5f       	subi	r22, 0xF6	; 246
    39c0:	7f 4f       	sbci	r23, 0xFF	; 255
    39c2:	ce 01       	movw	r24, r28
    39c4:	8c 58       	subi	r24, 0x8C	; 140
    39c6:	9f 4f       	sbci	r25, 0xFF	; 255
    39c8:	0e 94 f0 31 	call	0x63e0	; 0x63e0 <strcpy>
    39cc:	b7 01       	movw	r22, r14
    39ce:	66 5f       	subi	r22, 0xF6	; 246
    39d0:	7f 4f       	sbci	r23, 0xFF	; 255
    39d2:	ce 01       	movw	r24, r28
    39d4:	8c 58       	subi	r24, 0x8C	; 140
    39d6:	9f 4f       	sbci	r25, 0xFF	; 255
    39d8:	0e 94 dc 31 	call	0x63b8	; 0x63b8 <strcat>
    39dc:	be 01       	movw	r22, r28
    39de:	6c 58       	subi	r22, 0x8C	; 140
    39e0:	7f 4f       	sbci	r23, 0xFF	; 255
    39e2:	ce 01       	movw	r24, r28
    39e4:	01 96       	adiw	r24, 0x01	; 1
    39e6:	e3 de       	rcall	.-570    	; 0x37ae <_ZN5ValueC1EPKc>
    39e8:	4b c0       	rjmp	.+150    	; 0x3a80 <_ZplRK5ValueS1_+0x22c>
    39ea:	93 e0       	ldi	r25, 0x03	; 3
    39ec:	59 12       	cpse	r5, r25
    39ee:	0d c0       	rjmp	.+26     	; 0x3a0a <_ZplRK5ValueS1_+0x1b6>
    39f0:	fa 01       	movw	r30, r20
    39f2:	b9 12       	cpse	r11, r25
    39f4:	1c c0       	rjmp	.+56     	; 0x3a2e <_ZplRK5ValueS1_+0x1da>
    39f6:	26 81       	ldd	r18, Z+6	; 0x06
    39f8:	37 81       	ldd	r19, Z+7	; 0x07
    39fa:	40 85       	ldd	r20, Z+8	; 0x08
    39fc:	51 85       	ldd	r21, Z+9	; 0x09
    39fe:	fb 01       	movw	r30, r22
    3a00:	66 81       	ldd	r22, Z+6	; 0x06
    3a02:	77 81       	ldd	r23, Z+7	; 0x07
    3a04:	80 85       	ldd	r24, Z+8	; 0x08
    3a06:	91 85       	ldd	r25, Z+9	; 0x09
    3a08:	2a c0       	rjmp	.+84     	; 0x3a5e <_ZplRK5ValueS1_+0x20a>
    3a0a:	fb 01       	movw	r30, r22
    3a0c:	64 81       	ldd	r22, Z+4	; 0x04
    3a0e:	75 81       	ldd	r23, Z+5	; 0x05
    3a10:	f3 e0       	ldi	r31, 0x03	; 3
    3a12:	bf 12       	cpse	r11, r31
    3a14:	2d c0       	rjmp	.+90     	; 0x3a70 <_ZplRK5ValueS1_+0x21c>
    3a16:	07 2e       	mov	r0, r23
    3a18:	00 0c       	add	r0, r0
    3a1a:	88 0b       	sbc	r24, r24
    3a1c:	99 0b       	sbc	r25, r25
    3a1e:	0e 94 99 29 	call	0x5332	; 0x5332 <__floatsisf>
    3a22:	f7 01       	movw	r30, r14
    3a24:	26 81       	ldd	r18, Z+6	; 0x06
    3a26:	37 81       	ldd	r19, Z+7	; 0x07
    3a28:	40 85       	ldd	r20, Z+8	; 0x08
    3a2a:	51 85       	ldd	r21, Z+9	; 0x09
    3a2c:	18 c0       	rjmp	.+48     	; 0x3a5e <_ZplRK5ValueS1_+0x20a>
    3a2e:	64 81       	ldd	r22, Z+4	; 0x04
    3a30:	75 81       	ldd	r23, Z+5	; 0x05
    3a32:	07 2e       	mov	r0, r23
    3a34:	00 0c       	add	r0, r0
    3a36:	88 0b       	sbc	r24, r24
    3a38:	99 0b       	sbc	r25, r25
    3a3a:	0e 94 99 29 	call	0x5332	; 0x5332 <__floatsisf>
    3a3e:	9b 01       	movw	r18, r22
    3a40:	ac 01       	movw	r20, r24
    3a42:	f8 01       	movw	r30, r16
    3a44:	66 81       	ldd	r22, Z+6	; 0x06
    3a46:	77 81       	ldd	r23, Z+7	; 0x07
    3a48:	80 85       	ldd	r24, Z+8	; 0x08
    3a4a:	91 85       	ldd	r25, Z+9	; 0x09
    3a4c:	0e 94 96 28 	call	0x512c	; 0x512c <__addsf3>
    3a50:	f6 01       	movw	r30, r12
    3a52:	66 83       	std	Z+6, r22	; 0x06
    3a54:	77 83       	std	Z+7, r23	; 0x07
    3a56:	80 87       	std	Z+8, r24	; 0x08
    3a58:	91 87       	std	Z+9, r25	; 0x09
    3a5a:	57 ae       	std	Z+63, r5	; 0x3f
    3a5c:	38 c0       	rjmp	.+112    	; 0x3ace <_ZplRK5ValueS1_+0x27a>
    3a5e:	0e 94 96 28 	call	0x512c	; 0x512c <__addsf3>
    3a62:	f6 01       	movw	r30, r12
    3a64:	66 83       	std	Z+6, r22	; 0x06
    3a66:	77 83       	std	Z+7, r23	; 0x07
    3a68:	80 87       	std	Z+8, r24	; 0x08
    3a6a:	91 87       	std	Z+9, r25	; 0x09
    3a6c:	b7 ae       	std	Z+63, r11	; 0x3f
    3a6e:	2f c0       	rjmp	.+94     	; 0x3ace <_ZplRK5ValueS1_+0x27a>
    3a70:	fa 01       	movw	r30, r20
    3a72:	84 81       	ldd	r24, Z+4	; 0x04
    3a74:	95 81       	ldd	r25, Z+5	; 0x05
    3a76:	68 0f       	add	r22, r24
    3a78:	79 1f       	adc	r23, r25
    3a7a:	ce 01       	movw	r24, r28
    3a7c:	01 96       	adiw	r24, 0x01	; 1
    3a7e:	5f de       	rcall	.-834    	; 0x373e <_ZN5ValueC1Ei>
    3a80:	81 e4       	ldi	r24, 0x41	; 65
    3a82:	fe 01       	movw	r30, r28
    3a84:	31 96       	adiw	r30, 0x01	; 1
    3a86:	d6 01       	movw	r26, r12
    3a88:	01 90       	ld	r0, Z+
    3a8a:	0d 92       	st	X+, r0
    3a8c:	8a 95       	dec	r24
    3a8e:	e1 f7       	brne	.-8      	; 0x3a88 <_ZplRK5ValueS1_+0x234>
    3a90:	1e c0       	rjmp	.+60     	; 0x3ace <_ZplRK5ValueS1_+0x27a>
    3a92:	f3 e0       	ldi	r31, 0x03	; 3
    3a94:	5f 12       	cpse	r5, r31
    3a96:	92 cf       	rjmp	.-220    	; 0x39bc <_ZplRK5ValueS1_+0x168>
    3a98:	f8 01       	movw	r30, r16
    3a9a:	81 85       	ldd	r24, Z+9	; 0x09
    3a9c:	8f 93       	push	r24
    3a9e:	80 85       	ldd	r24, Z+8	; 0x08
    3aa0:	8f 93       	push	r24
    3aa2:	87 81       	ldd	r24, Z+7	; 0x07
    3aa4:	8f 93       	push	r24
    3aa6:	86 81       	ldd	r24, Z+6	; 0x06
    3aa8:	8f 93       	push	r24
    3aaa:	83 e5       	ldi	r24, 0x53	; 83
    3aac:	93 e0       	ldi	r25, 0x03	; 3
    3aae:	9f 93       	push	r25
    3ab0:	8f 93       	push	r24
    3ab2:	bf 92       	push	r11
    3ab4:	af 92       	push	r10
    3ab6:	0e 94 46 32 	call	0x648c	; 0x648c <sprintf>
    3aba:	b3 01       	movw	r22, r6
    3abc:	c5 01       	movw	r24, r10
    3abe:	0e 94 f0 31 	call	0x63e0	; 0x63e0 <strcpy>
    3ac2:	b4 01       	movw	r22, r8
    3ac4:	c5 01       	movw	r24, r10
    3ac6:	0e 94 dc 31 	call	0x63b8	; 0x63b8 <strcat>
    3aca:	b5 01       	movw	r22, r10
    3acc:	66 cf       	rjmp	.-308    	; 0x399a <_ZplRK5ValueS1_+0x146>
    3ace:	c6 01       	movw	r24, r12
    3ad0:	cb 55       	subi	r28, 0x5B	; 91
    3ad2:	df 4f       	sbci	r29, 0xFF	; 255
    3ad4:	0f b6       	in	r0, 0x3f	; 63
    3ad6:	f8 94       	cli
    3ad8:	de bf       	out	0x3e, r29	; 62
    3ada:	0f be       	out	0x3f, r0	; 63
    3adc:	cd bf       	out	0x3d, r28	; 61
    3ade:	df 91       	pop	r29
    3ae0:	cf 91       	pop	r28
    3ae2:	1f 91       	pop	r17
    3ae4:	0f 91       	pop	r16
    3ae6:	ff 90       	pop	r15
    3ae8:	ef 90       	pop	r14
    3aea:	df 90       	pop	r13
    3aec:	cf 90       	pop	r12
    3aee:	bf 90       	pop	r11
    3af0:	af 90       	pop	r10
    3af2:	9f 90       	pop	r9
    3af4:	8f 90       	pop	r8
    3af6:	7f 90       	pop	r7
    3af8:	6f 90       	pop	r6
    3afa:	5f 90       	pop	r5
    3afc:	08 95       	ret

00003afe <_ZmiRK5ValueS1_>:
    3afe:	af 92       	push	r10
    3b00:	bf 92       	push	r11
    3b02:	cf 92       	push	r12
    3b04:	df 92       	push	r13
    3b06:	ef 92       	push	r14
    3b08:	ff 92       	push	r15
    3b0a:	0f 93       	push	r16
    3b0c:	1f 93       	push	r17
    3b0e:	cf 93       	push	r28
    3b10:	df 93       	push	r29
    3b12:	cd b7       	in	r28, 0x3d	; 61
    3b14:	de b7       	in	r29, 0x3e	; 62
    3b16:	c1 54       	subi	r28, 0x41	; 65
    3b18:	d1 09       	sbc	r29, r1
    3b1a:	0f b6       	in	r0, 0x3f	; 63
    3b1c:	f8 94       	cli
    3b1e:	de bf       	out	0x3e, r29	; 62
    3b20:	0f be       	out	0x3f, r0	; 63
    3b22:	cd bf       	out	0x3d, r28	; 61
    3b24:	8c 01       	movw	r16, r24
    3b26:	7b 01       	movw	r14, r22
    3b28:	6a 01       	movw	r12, r20
    3b2a:	fb 01       	movw	r30, r22
    3b2c:	a7 ac       	ldd	r10, Z+63	; 0x3f
    3b2e:	f1 e0       	ldi	r31, 0x01	; 1
    3b30:	af 16       	cp	r10, r31
    3b32:	29 f0       	breq	.+10     	; 0x3b3e <_ZmiRK5ValueS1_+0x40>
    3b34:	fa 01       	movw	r30, r20
    3b36:	b7 ac       	ldd	r11, Z+63	; 0x3f
    3b38:	f1 e0       	ldi	r31, 0x01	; 1
    3b3a:	bf 12       	cpse	r11, r31
    3b3c:	07 c0       	rjmp	.+14     	; 0x3b4c <_ZmiRK5ValueS1_+0x4e>
    3b3e:	b7 01       	movw	r22, r14
    3b40:	66 5f       	subi	r22, 0xF6	; 246
    3b42:	7f 4f       	sbci	r23, 0xFF	; 255
    3b44:	ce 01       	movw	r24, r28
    3b46:	01 96       	adiw	r24, 0x01	; 1
    3b48:	32 de       	rcall	.-924    	; 0x37ae <_ZN5ValueC1EPKc>
    3b4a:	4b c0       	rjmp	.+150    	; 0x3be2 <_ZmiRK5ValueS1_+0xe4>
    3b4c:	83 e0       	ldi	r24, 0x03	; 3
    3b4e:	a8 12       	cpse	r10, r24
    3b50:	0d c0       	rjmp	.+26     	; 0x3b6c <_ZmiRK5ValueS1_+0x6e>
    3b52:	fa 01       	movw	r30, r20
    3b54:	b8 12       	cpse	r11, r24
    3b56:	1c c0       	rjmp	.+56     	; 0x3b90 <_ZmiRK5ValueS1_+0x92>
    3b58:	26 81       	ldd	r18, Z+6	; 0x06
    3b5a:	37 81       	ldd	r19, Z+7	; 0x07
    3b5c:	40 85       	ldd	r20, Z+8	; 0x08
    3b5e:	51 85       	ldd	r21, Z+9	; 0x09
    3b60:	fb 01       	movw	r30, r22
    3b62:	66 81       	ldd	r22, Z+6	; 0x06
    3b64:	77 81       	ldd	r23, Z+7	; 0x07
    3b66:	80 85       	ldd	r24, Z+8	; 0x08
    3b68:	91 85       	ldd	r25, Z+9	; 0x09
    3b6a:	2a c0       	rjmp	.+84     	; 0x3bc0 <_ZmiRK5ValueS1_+0xc2>
    3b6c:	fb 01       	movw	r30, r22
    3b6e:	64 81       	ldd	r22, Z+4	; 0x04
    3b70:	75 81       	ldd	r23, Z+5	; 0x05
    3b72:	f3 e0       	ldi	r31, 0x03	; 3
    3b74:	bf 12       	cpse	r11, r31
    3b76:	2d c0       	rjmp	.+90     	; 0x3bd2 <_ZmiRK5ValueS1_+0xd4>
    3b78:	07 2e       	mov	r0, r23
    3b7a:	00 0c       	add	r0, r0
    3b7c:	88 0b       	sbc	r24, r24
    3b7e:	99 0b       	sbc	r25, r25
    3b80:	0e 94 99 29 	call	0x5332	; 0x5332 <__floatsisf>
    3b84:	f6 01       	movw	r30, r12
    3b86:	26 81       	ldd	r18, Z+6	; 0x06
    3b88:	37 81       	ldd	r19, Z+7	; 0x07
    3b8a:	40 85       	ldd	r20, Z+8	; 0x08
    3b8c:	51 85       	ldd	r21, Z+9	; 0x09
    3b8e:	18 c0       	rjmp	.+48     	; 0x3bc0 <_ZmiRK5ValueS1_+0xc2>
    3b90:	64 81       	ldd	r22, Z+4	; 0x04
    3b92:	75 81       	ldd	r23, Z+5	; 0x05
    3b94:	07 2e       	mov	r0, r23
    3b96:	00 0c       	add	r0, r0
    3b98:	88 0b       	sbc	r24, r24
    3b9a:	99 0b       	sbc	r25, r25
    3b9c:	0e 94 99 29 	call	0x5332	; 0x5332 <__floatsisf>
    3ba0:	9b 01       	movw	r18, r22
    3ba2:	ac 01       	movw	r20, r24
    3ba4:	f7 01       	movw	r30, r14
    3ba6:	66 81       	ldd	r22, Z+6	; 0x06
    3ba8:	77 81       	ldd	r23, Z+7	; 0x07
    3baa:	80 85       	ldd	r24, Z+8	; 0x08
    3bac:	91 85       	ldd	r25, Z+9	; 0x09
    3bae:	0e 94 95 28 	call	0x512a	; 0x512a <__subsf3>
    3bb2:	f8 01       	movw	r30, r16
    3bb4:	66 83       	std	Z+6, r22	; 0x06
    3bb6:	77 83       	std	Z+7, r23	; 0x07
    3bb8:	80 87       	std	Z+8, r24	; 0x08
    3bba:	91 87       	std	Z+9, r25	; 0x09
    3bbc:	a7 ae       	std	Z+63, r10	; 0x3f
    3bbe:	19 c0       	rjmp	.+50     	; 0x3bf2 <_ZmiRK5ValueS1_+0xf4>
    3bc0:	0e 94 95 28 	call	0x512a	; 0x512a <__subsf3>
    3bc4:	f8 01       	movw	r30, r16
    3bc6:	66 83       	std	Z+6, r22	; 0x06
    3bc8:	77 83       	std	Z+7, r23	; 0x07
    3bca:	80 87       	std	Z+8, r24	; 0x08
    3bcc:	91 87       	std	Z+9, r25	; 0x09
    3bce:	b7 ae       	std	Z+63, r11	; 0x3f
    3bd0:	10 c0       	rjmp	.+32     	; 0x3bf2 <_ZmiRK5ValueS1_+0xf4>
    3bd2:	fa 01       	movw	r30, r20
    3bd4:	84 81       	ldd	r24, Z+4	; 0x04
    3bd6:	95 81       	ldd	r25, Z+5	; 0x05
    3bd8:	68 1b       	sub	r22, r24
    3bda:	79 0b       	sbc	r23, r25
    3bdc:	ce 01       	movw	r24, r28
    3bde:	01 96       	adiw	r24, 0x01	; 1
    3be0:	ae dd       	rcall	.-1188   	; 0x373e <_ZN5ValueC1Ei>
    3be2:	81 e4       	ldi	r24, 0x41	; 65
    3be4:	fe 01       	movw	r30, r28
    3be6:	31 96       	adiw	r30, 0x01	; 1
    3be8:	d8 01       	movw	r26, r16
    3bea:	01 90       	ld	r0, Z+
    3bec:	0d 92       	st	X+, r0
    3bee:	8a 95       	dec	r24
    3bf0:	e1 f7       	brne	.-8      	; 0x3bea <_ZmiRK5ValueS1_+0xec>
    3bf2:	c8 01       	movw	r24, r16
    3bf4:	cf 5b       	subi	r28, 0xBF	; 191
    3bf6:	df 4f       	sbci	r29, 0xFF	; 255
    3bf8:	0f b6       	in	r0, 0x3f	; 63
    3bfa:	f8 94       	cli
    3bfc:	de bf       	out	0x3e, r29	; 62
    3bfe:	0f be       	out	0x3f, r0	; 63
    3c00:	cd bf       	out	0x3d, r28	; 61
    3c02:	df 91       	pop	r29
    3c04:	cf 91       	pop	r28
    3c06:	1f 91       	pop	r17
    3c08:	0f 91       	pop	r16
    3c0a:	ff 90       	pop	r15
    3c0c:	ef 90       	pop	r14
    3c0e:	df 90       	pop	r13
    3c10:	cf 90       	pop	r12
    3c12:	bf 90       	pop	r11
    3c14:	af 90       	pop	r10
    3c16:	08 95       	ret

00003c18 <_ZmlRK5ValueS1_>:
    3c18:	af 92       	push	r10
    3c1a:	bf 92       	push	r11
    3c1c:	cf 92       	push	r12
    3c1e:	df 92       	push	r13
    3c20:	ef 92       	push	r14
    3c22:	ff 92       	push	r15
    3c24:	0f 93       	push	r16
    3c26:	1f 93       	push	r17
    3c28:	cf 93       	push	r28
    3c2a:	df 93       	push	r29
    3c2c:	cd b7       	in	r28, 0x3d	; 61
    3c2e:	de b7       	in	r29, 0x3e	; 62
    3c30:	c1 54       	subi	r28, 0x41	; 65
    3c32:	d1 09       	sbc	r29, r1
    3c34:	0f b6       	in	r0, 0x3f	; 63
    3c36:	f8 94       	cli
    3c38:	de bf       	out	0x3e, r29	; 62
    3c3a:	0f be       	out	0x3f, r0	; 63
    3c3c:	cd bf       	out	0x3d, r28	; 61
    3c3e:	8c 01       	movw	r16, r24
    3c40:	7b 01       	movw	r14, r22
    3c42:	6a 01       	movw	r12, r20
    3c44:	fb 01       	movw	r30, r22
    3c46:	a7 ac       	ldd	r10, Z+63	; 0x3f
    3c48:	f1 e0       	ldi	r31, 0x01	; 1
    3c4a:	af 16       	cp	r10, r31
    3c4c:	29 f0       	breq	.+10     	; 0x3c58 <_ZmlRK5ValueS1_+0x40>
    3c4e:	fa 01       	movw	r30, r20
    3c50:	b7 ac       	ldd	r11, Z+63	; 0x3f
    3c52:	f1 e0       	ldi	r31, 0x01	; 1
    3c54:	bf 12       	cpse	r11, r31
    3c56:	07 c0       	rjmp	.+14     	; 0x3c66 <_ZmlRK5ValueS1_+0x4e>
    3c58:	b7 01       	movw	r22, r14
    3c5a:	66 5f       	subi	r22, 0xF6	; 246
    3c5c:	7f 4f       	sbci	r23, 0xFF	; 255
    3c5e:	ce 01       	movw	r24, r28
    3c60:	01 96       	adiw	r24, 0x01	; 1
    3c62:	a5 dd       	rcall	.-1206   	; 0x37ae <_ZN5ValueC1EPKc>
    3c64:	51 c0       	rjmp	.+162    	; 0x3d08 <_ZmlRK5ValueS1_+0xf0>
    3c66:	83 e0       	ldi	r24, 0x03	; 3
    3c68:	a8 12       	cpse	r10, r24
    3c6a:	0d c0       	rjmp	.+26     	; 0x3c86 <_ZmlRK5ValueS1_+0x6e>
    3c6c:	fa 01       	movw	r30, r20
    3c6e:	b8 12       	cpse	r11, r24
    3c70:	1c c0       	rjmp	.+56     	; 0x3caa <_ZmlRK5ValueS1_+0x92>
    3c72:	26 81       	ldd	r18, Z+6	; 0x06
    3c74:	37 81       	ldd	r19, Z+7	; 0x07
    3c76:	40 85       	ldd	r20, Z+8	; 0x08
    3c78:	51 85       	ldd	r21, Z+9	; 0x09
    3c7a:	fb 01       	movw	r30, r22
    3c7c:	66 81       	ldd	r22, Z+6	; 0x06
    3c7e:	77 81       	ldd	r23, Z+7	; 0x07
    3c80:	80 85       	ldd	r24, Z+8	; 0x08
    3c82:	91 85       	ldd	r25, Z+9	; 0x09
    3c84:	2a c0       	rjmp	.+84     	; 0x3cda <_ZmlRK5ValueS1_+0xc2>
    3c86:	fb 01       	movw	r30, r22
    3c88:	64 81       	ldd	r22, Z+4	; 0x04
    3c8a:	75 81       	ldd	r23, Z+5	; 0x05
    3c8c:	f3 e0       	ldi	r31, 0x03	; 3
    3c8e:	bf 12       	cpse	r11, r31
    3c90:	2d c0       	rjmp	.+90     	; 0x3cec <_ZmlRK5ValueS1_+0xd4>
    3c92:	07 2e       	mov	r0, r23
    3c94:	00 0c       	add	r0, r0
    3c96:	88 0b       	sbc	r24, r24
    3c98:	99 0b       	sbc	r25, r25
    3c9a:	0e 94 99 29 	call	0x5332	; 0x5332 <__floatsisf>
    3c9e:	f6 01       	movw	r30, r12
    3ca0:	26 81       	ldd	r18, Z+6	; 0x06
    3ca2:	37 81       	ldd	r19, Z+7	; 0x07
    3ca4:	40 85       	ldd	r20, Z+8	; 0x08
    3ca6:	51 85       	ldd	r21, Z+9	; 0x09
    3ca8:	18 c0       	rjmp	.+48     	; 0x3cda <_ZmlRK5ValueS1_+0xc2>
    3caa:	64 81       	ldd	r22, Z+4	; 0x04
    3cac:	75 81       	ldd	r23, Z+5	; 0x05
    3cae:	07 2e       	mov	r0, r23
    3cb0:	00 0c       	add	r0, r0
    3cb2:	88 0b       	sbc	r24, r24
    3cb4:	99 0b       	sbc	r25, r25
    3cb6:	0e 94 99 29 	call	0x5332	; 0x5332 <__floatsisf>
    3cba:	9b 01       	movw	r18, r22
    3cbc:	ac 01       	movw	r20, r24
    3cbe:	f7 01       	movw	r30, r14
    3cc0:	66 81       	ldd	r22, Z+6	; 0x06
    3cc2:	77 81       	ldd	r23, Z+7	; 0x07
    3cc4:	80 85       	ldd	r24, Z+8	; 0x08
    3cc6:	91 85       	ldd	r25, Z+9	; 0x09
    3cc8:	0e 94 4d 2a 	call	0x549a	; 0x549a <__mulsf3>
    3ccc:	f8 01       	movw	r30, r16
    3cce:	66 83       	std	Z+6, r22	; 0x06
    3cd0:	77 83       	std	Z+7, r23	; 0x07
    3cd2:	80 87       	std	Z+8, r24	; 0x08
    3cd4:	91 87       	std	Z+9, r25	; 0x09
    3cd6:	a7 ae       	std	Z+63, r10	; 0x3f
    3cd8:	1f c0       	rjmp	.+62     	; 0x3d18 <_ZmlRK5ValueS1_+0x100>
    3cda:	0e 94 4d 2a 	call	0x549a	; 0x549a <__mulsf3>
    3cde:	f8 01       	movw	r30, r16
    3ce0:	66 83       	std	Z+6, r22	; 0x06
    3ce2:	77 83       	std	Z+7, r23	; 0x07
    3ce4:	80 87       	std	Z+8, r24	; 0x08
    3ce6:	91 87       	std	Z+9, r25	; 0x09
    3ce8:	b7 ae       	std	Z+63, r11	; 0x3f
    3cea:	16 c0       	rjmp	.+44     	; 0x3d18 <_ZmlRK5ValueS1_+0x100>
    3cec:	fa 01       	movw	r30, r20
    3cee:	24 81       	ldd	r18, Z+4	; 0x04
    3cf0:	35 81       	ldd	r19, Z+5	; 0x05
    3cf2:	62 9f       	mul	r22, r18
    3cf4:	c0 01       	movw	r24, r0
    3cf6:	63 9f       	mul	r22, r19
    3cf8:	90 0d       	add	r25, r0
    3cfa:	72 9f       	mul	r23, r18
    3cfc:	90 0d       	add	r25, r0
    3cfe:	11 24       	eor	r1, r1
    3d00:	bc 01       	movw	r22, r24
    3d02:	ce 01       	movw	r24, r28
    3d04:	01 96       	adiw	r24, 0x01	; 1
    3d06:	1b dd       	rcall	.-1482   	; 0x373e <_ZN5ValueC1Ei>
    3d08:	81 e4       	ldi	r24, 0x41	; 65
    3d0a:	fe 01       	movw	r30, r28
    3d0c:	31 96       	adiw	r30, 0x01	; 1
    3d0e:	d8 01       	movw	r26, r16
    3d10:	01 90       	ld	r0, Z+
    3d12:	0d 92       	st	X+, r0
    3d14:	8a 95       	dec	r24
    3d16:	e1 f7       	brne	.-8      	; 0x3d10 <_ZmlRK5ValueS1_+0xf8>
    3d18:	c8 01       	movw	r24, r16
    3d1a:	cf 5b       	subi	r28, 0xBF	; 191
    3d1c:	df 4f       	sbci	r29, 0xFF	; 255
    3d1e:	0f b6       	in	r0, 0x3f	; 63
    3d20:	f8 94       	cli
    3d22:	de bf       	out	0x3e, r29	; 62
    3d24:	0f be       	out	0x3f, r0	; 63
    3d26:	cd bf       	out	0x3d, r28	; 61
    3d28:	df 91       	pop	r29
    3d2a:	cf 91       	pop	r28
    3d2c:	1f 91       	pop	r17
    3d2e:	0f 91       	pop	r16
    3d30:	ff 90       	pop	r15
    3d32:	ef 90       	pop	r14
    3d34:	df 90       	pop	r13
    3d36:	cf 90       	pop	r12
    3d38:	bf 90       	pop	r11
    3d3a:	af 90       	pop	r10
    3d3c:	08 95       	ret

00003d3e <_ZdvRK5ValueS1_>:
    3d3e:	af 92       	push	r10
    3d40:	bf 92       	push	r11
    3d42:	cf 92       	push	r12
    3d44:	df 92       	push	r13
    3d46:	ef 92       	push	r14
    3d48:	ff 92       	push	r15
    3d4a:	0f 93       	push	r16
    3d4c:	1f 93       	push	r17
    3d4e:	cf 93       	push	r28
    3d50:	df 93       	push	r29
    3d52:	cd b7       	in	r28, 0x3d	; 61
    3d54:	de b7       	in	r29, 0x3e	; 62
    3d56:	c1 54       	subi	r28, 0x41	; 65
    3d58:	d1 09       	sbc	r29, r1
    3d5a:	0f b6       	in	r0, 0x3f	; 63
    3d5c:	f8 94       	cli
    3d5e:	de bf       	out	0x3e, r29	; 62
    3d60:	0f be       	out	0x3f, r0	; 63
    3d62:	cd bf       	out	0x3d, r28	; 61
    3d64:	8c 01       	movw	r16, r24
    3d66:	7b 01       	movw	r14, r22
    3d68:	6a 01       	movw	r12, r20
    3d6a:	fb 01       	movw	r30, r22
    3d6c:	a7 ac       	ldd	r10, Z+63	; 0x3f
    3d6e:	f1 e0       	ldi	r31, 0x01	; 1
    3d70:	af 16       	cp	r10, r31
    3d72:	29 f0       	breq	.+10     	; 0x3d7e <_ZdvRK5ValueS1_+0x40>
    3d74:	fa 01       	movw	r30, r20
    3d76:	b7 ac       	ldd	r11, Z+63	; 0x3f
    3d78:	f1 e0       	ldi	r31, 0x01	; 1
    3d7a:	bf 12       	cpse	r11, r31
    3d7c:	07 c0       	rjmp	.+14     	; 0x3d8c <_ZdvRK5ValueS1_+0x4e>
    3d7e:	b7 01       	movw	r22, r14
    3d80:	66 5f       	subi	r22, 0xF6	; 246
    3d82:	7f 4f       	sbci	r23, 0xFF	; 255
    3d84:	ce 01       	movw	r24, r28
    3d86:	01 96       	adiw	r24, 0x01	; 1
    3d88:	12 dd       	rcall	.-1500   	; 0x37ae <_ZN5ValueC1EPKc>
    3d8a:	4c c0       	rjmp	.+152    	; 0x3e24 <_ZdvRK5ValueS1_+0xe6>
    3d8c:	23 e0       	ldi	r18, 0x03	; 3
    3d8e:	a2 12       	cpse	r10, r18
    3d90:	0d c0       	rjmp	.+26     	; 0x3dac <_ZdvRK5ValueS1_+0x6e>
    3d92:	fa 01       	movw	r30, r20
    3d94:	b2 12       	cpse	r11, r18
    3d96:	1c c0       	rjmp	.+56     	; 0x3dd0 <_ZdvRK5ValueS1_+0x92>
    3d98:	26 81       	ldd	r18, Z+6	; 0x06
    3d9a:	37 81       	ldd	r19, Z+7	; 0x07
    3d9c:	40 85       	ldd	r20, Z+8	; 0x08
    3d9e:	51 85       	ldd	r21, Z+9	; 0x09
    3da0:	fb 01       	movw	r30, r22
    3da2:	66 81       	ldd	r22, Z+6	; 0x06
    3da4:	77 81       	ldd	r23, Z+7	; 0x07
    3da6:	80 85       	ldd	r24, Z+8	; 0x08
    3da8:	91 85       	ldd	r25, Z+9	; 0x09
    3daa:	2a c0       	rjmp	.+84     	; 0x3e00 <_ZdvRK5ValueS1_+0xc2>
    3dac:	fb 01       	movw	r30, r22
    3dae:	84 81       	ldd	r24, Z+4	; 0x04
    3db0:	95 81       	ldd	r25, Z+5	; 0x05
    3db2:	f3 e0       	ldi	r31, 0x03	; 3
    3db4:	bf 12       	cpse	r11, r31
    3db6:	2d c0       	rjmp	.+90     	; 0x3e12 <_ZdvRK5ValueS1_+0xd4>
    3db8:	bc 01       	movw	r22, r24
    3dba:	99 0f       	add	r25, r25
    3dbc:	88 0b       	sbc	r24, r24
    3dbe:	99 0b       	sbc	r25, r25
    3dc0:	0e 94 99 29 	call	0x5332	; 0x5332 <__floatsisf>
    3dc4:	f6 01       	movw	r30, r12
    3dc6:	26 81       	ldd	r18, Z+6	; 0x06
    3dc8:	37 81       	ldd	r19, Z+7	; 0x07
    3dca:	40 85       	ldd	r20, Z+8	; 0x08
    3dcc:	51 85       	ldd	r21, Z+9	; 0x09
    3dce:	18 c0       	rjmp	.+48     	; 0x3e00 <_ZdvRK5ValueS1_+0xc2>
    3dd0:	64 81       	ldd	r22, Z+4	; 0x04
    3dd2:	75 81       	ldd	r23, Z+5	; 0x05
    3dd4:	07 2e       	mov	r0, r23
    3dd6:	00 0c       	add	r0, r0
    3dd8:	88 0b       	sbc	r24, r24
    3dda:	99 0b       	sbc	r25, r25
    3ddc:	0e 94 99 29 	call	0x5332	; 0x5332 <__floatsisf>
    3de0:	9b 01       	movw	r18, r22
    3de2:	ac 01       	movw	r20, r24
    3de4:	f7 01       	movw	r30, r14
    3de6:	66 81       	ldd	r22, Z+6	; 0x06
    3de8:	77 81       	ldd	r23, Z+7	; 0x07
    3dea:	80 85       	ldd	r24, Z+8	; 0x08
    3dec:	91 85       	ldd	r25, Z+9	; 0x09
    3dee:	0e 94 fe 28 	call	0x51fc	; 0x51fc <__divsf3>
    3df2:	f8 01       	movw	r30, r16
    3df4:	66 83       	std	Z+6, r22	; 0x06
    3df6:	77 83       	std	Z+7, r23	; 0x07
    3df8:	80 87       	std	Z+8, r24	; 0x08
    3dfa:	91 87       	std	Z+9, r25	; 0x09
    3dfc:	a7 ae       	std	Z+63, r10	; 0x3f
    3dfe:	1a c0       	rjmp	.+52     	; 0x3e34 <_ZdvRK5ValueS1_+0xf6>
    3e00:	0e 94 fe 28 	call	0x51fc	; 0x51fc <__divsf3>
    3e04:	f8 01       	movw	r30, r16
    3e06:	66 83       	std	Z+6, r22	; 0x06
    3e08:	77 83       	std	Z+7, r23	; 0x07
    3e0a:	80 87       	std	Z+8, r24	; 0x08
    3e0c:	91 87       	std	Z+9, r25	; 0x09
    3e0e:	b7 ae       	std	Z+63, r11	; 0x3f
    3e10:	11 c0       	rjmp	.+34     	; 0x3e34 <_ZdvRK5ValueS1_+0xf6>
    3e12:	fa 01       	movw	r30, r20
    3e14:	24 81       	ldd	r18, Z+4	; 0x04
    3e16:	35 81       	ldd	r19, Z+5	; 0x05
    3e18:	b9 01       	movw	r22, r18
    3e1a:	0e 94 39 2e 	call	0x5c72	; 0x5c72 <__divmodhi4>
    3e1e:	ce 01       	movw	r24, r28
    3e20:	01 96       	adiw	r24, 0x01	; 1
    3e22:	8d dc       	rcall	.-1766   	; 0x373e <_ZN5ValueC1Ei>
    3e24:	81 e4       	ldi	r24, 0x41	; 65
    3e26:	fe 01       	movw	r30, r28
    3e28:	31 96       	adiw	r30, 0x01	; 1
    3e2a:	d8 01       	movw	r26, r16
    3e2c:	01 90       	ld	r0, Z+
    3e2e:	0d 92       	st	X+, r0
    3e30:	8a 95       	dec	r24
    3e32:	e1 f7       	brne	.-8      	; 0x3e2c <_ZdvRK5ValueS1_+0xee>
    3e34:	c8 01       	movw	r24, r16
    3e36:	cf 5b       	subi	r28, 0xBF	; 191
    3e38:	df 4f       	sbci	r29, 0xFF	; 255
    3e3a:	0f b6       	in	r0, 0x3f	; 63
    3e3c:	f8 94       	cli
    3e3e:	de bf       	out	0x3e, r29	; 62
    3e40:	0f be       	out	0x3f, r0	; 63
    3e42:	cd bf       	out	0x3d, r28	; 61
    3e44:	df 91       	pop	r29
    3e46:	cf 91       	pop	r28
    3e48:	1f 91       	pop	r17
    3e4a:	0f 91       	pop	r16
    3e4c:	ff 90       	pop	r15
    3e4e:	ef 90       	pop	r14
    3e50:	df 90       	pop	r13
    3e52:	cf 90       	pop	r12
    3e54:	bf 90       	pop	r11
    3e56:	af 90       	pop	r10
    3e58:	08 95       	ret

00003e5a <_ZrmRK5ValueS1_>:
    3e5a:	cf 92       	push	r12
    3e5c:	df 92       	push	r13
    3e5e:	ef 92       	push	r14
    3e60:	ff 92       	push	r15
    3e62:	0f 93       	push	r16
    3e64:	1f 93       	push	r17
    3e66:	cf 93       	push	r28
    3e68:	df 93       	push	r29
    3e6a:	cd b7       	in	r28, 0x3d	; 61
    3e6c:	de b7       	in	r29, 0x3e	; 62
    3e6e:	c1 54       	subi	r28, 0x41	; 65
    3e70:	d1 09       	sbc	r29, r1
    3e72:	0f b6       	in	r0, 0x3f	; 63
    3e74:	f8 94       	cli
    3e76:	de bf       	out	0x3e, r29	; 62
    3e78:	0f be       	out	0x3f, r0	; 63
    3e7a:	cd bf       	out	0x3d, r28	; 61
    3e7c:	8c 01       	movw	r16, r24
    3e7e:	fb 01       	movw	r30, r22
    3e80:	7a 01       	movw	r14, r20
    3e82:	97 ad       	ldd	r25, Z+63	; 0x3f
    3e84:	91 30       	cpi	r25, 0x01	; 1
    3e86:	29 f0       	breq	.+10     	; 0x3e92 <_ZrmRK5ValueS1_+0x38>
    3e88:	da 01       	movw	r26, r20
    3e8a:	df 96       	adiw	r26, 0x3f	; 63
    3e8c:	8c 91       	ld	r24, X
    3e8e:	81 30       	cpi	r24, 0x01	; 1
    3e90:	39 f4       	brne	.+14     	; 0x3ea0 <_ZrmRK5ValueS1_+0x46>
    3e92:	bf 01       	movw	r22, r30
    3e94:	66 5f       	subi	r22, 0xF6	; 246
    3e96:	7f 4f       	sbci	r23, 0xFF	; 255
    3e98:	ce 01       	movw	r24, r28
    3e9a:	01 96       	adiw	r24, 0x01	; 1
    3e9c:	88 dc       	rcall	.-1776   	; 0x37ae <_ZN5ValueC1EPKc>
    3e9e:	37 c0       	rjmp	.+110    	; 0x3f0e <_ZrmRK5ValueS1_+0xb4>
    3ea0:	93 30       	cpi	r25, 0x03	; 3
    3ea2:	51 f4       	brne	.+20     	; 0x3eb8 <_ZrmRK5ValueS1_+0x5e>
    3ea4:	83 30       	cpi	r24, 0x03	; 3
    3ea6:	69 f4       	brne	.+26     	; 0x3ec2 <_ZrmRK5ValueS1_+0x68>
    3ea8:	66 81       	ldd	r22, Z+6	; 0x06
    3eaa:	77 81       	ldd	r23, Z+7	; 0x07
    3eac:	80 85       	ldd	r24, Z+8	; 0x08
    3eae:	91 85       	ldd	r25, Z+9	; 0x09
    3eb0:	0e 94 66 29 	call	0x52cc	; 0x52cc <__fixsfsi>
    3eb4:	6b 01       	movw	r12, r22
    3eb6:	13 c0       	rjmp	.+38     	; 0x3ede <_ZrmRK5ValueS1_+0x84>
    3eb8:	c4 80       	ldd	r12, Z+4	; 0x04
    3eba:	d5 80       	ldd	r13, Z+5	; 0x05
    3ebc:	83 30       	cpi	r24, 0x03	; 3
    3ebe:	d9 f4       	brne	.+54     	; 0x3ef6 <_ZrmRK5ValueS1_+0x9c>
    3ec0:	0e c0       	rjmp	.+28     	; 0x3ede <_ZrmRK5ValueS1_+0x84>
    3ec2:	66 81       	ldd	r22, Z+6	; 0x06
    3ec4:	77 81       	ldd	r23, Z+7	; 0x07
    3ec6:	80 85       	ldd	r24, Z+8	; 0x08
    3ec8:	91 85       	ldd	r25, Z+9	; 0x09
    3eca:	0e 94 66 29 	call	0x52cc	; 0x52cc <__fixsfsi>
    3ece:	d7 01       	movw	r26, r14
    3ed0:	14 96       	adiw	r26, 0x04	; 4
    3ed2:	2d 91       	ld	r18, X+
    3ed4:	3c 91       	ld	r19, X
    3ed6:	15 97       	sbiw	r26, 0x05	; 5
    3ed8:	cb 01       	movw	r24, r22
    3eda:	b9 01       	movw	r22, r18
    3edc:	12 c0       	rjmp	.+36     	; 0x3f02 <_ZrmRK5ValueS1_+0xa8>
    3ede:	f7 01       	movw	r30, r14
    3ee0:	66 81       	ldd	r22, Z+6	; 0x06
    3ee2:	77 81       	ldd	r23, Z+7	; 0x07
    3ee4:	80 85       	ldd	r24, Z+8	; 0x08
    3ee6:	91 85       	ldd	r25, Z+9	; 0x09
    3ee8:	0e 94 66 29 	call	0x52cc	; 0x52cc <__fixsfsi>
    3eec:	ab 01       	movw	r20, r22
    3eee:	bc 01       	movw	r22, r24
    3ef0:	c6 01       	movw	r24, r12
    3ef2:	ba 01       	movw	r22, r20
    3ef4:	06 c0       	rjmp	.+12     	; 0x3f02 <_ZrmRK5ValueS1_+0xa8>
    3ef6:	da 01       	movw	r26, r20
    3ef8:	14 96       	adiw	r26, 0x04	; 4
    3efa:	6d 91       	ld	r22, X+
    3efc:	7c 91       	ld	r23, X
    3efe:	15 97       	sbiw	r26, 0x05	; 5
    3f00:	c6 01       	movw	r24, r12
    3f02:	0e 94 39 2e 	call	0x5c72	; 0x5c72 <__divmodhi4>
    3f06:	bc 01       	movw	r22, r24
    3f08:	ce 01       	movw	r24, r28
    3f0a:	01 96       	adiw	r24, 0x01	; 1
    3f0c:	18 dc       	rcall	.-2000   	; 0x373e <_ZN5ValueC1Ei>
    3f0e:	81 e4       	ldi	r24, 0x41	; 65
    3f10:	fe 01       	movw	r30, r28
    3f12:	31 96       	adiw	r30, 0x01	; 1
    3f14:	d8 01       	movw	r26, r16
    3f16:	01 90       	ld	r0, Z+
    3f18:	0d 92       	st	X+, r0
    3f1a:	8a 95       	dec	r24
    3f1c:	e1 f7       	brne	.-8      	; 0x3f16 <_ZrmRK5ValueS1_+0xbc>
    3f1e:	c8 01       	movw	r24, r16
    3f20:	cf 5b       	subi	r28, 0xBF	; 191
    3f22:	df 4f       	sbci	r29, 0xFF	; 255
    3f24:	0f b6       	in	r0, 0x3f	; 63
    3f26:	f8 94       	cli
    3f28:	de bf       	out	0x3e, r29	; 62
    3f2a:	0f be       	out	0x3f, r0	; 63
    3f2c:	cd bf       	out	0x3d, r28	; 61
    3f2e:	df 91       	pop	r29
    3f30:	cf 91       	pop	r28
    3f32:	1f 91       	pop	r17
    3f34:	0f 91       	pop	r16
    3f36:	ff 90       	pop	r15
    3f38:	ef 90       	pop	r14
    3f3a:	df 90       	pop	r13
    3f3c:	cf 90       	pop	r12
    3f3e:	08 95       	ret

00003f40 <_ZlsRK5ValueS1_>:
    3f40:	8f 92       	push	r8
    3f42:	9f 92       	push	r9
    3f44:	af 92       	push	r10
    3f46:	bf 92       	push	r11
    3f48:	cf 92       	push	r12
    3f4a:	df 92       	push	r13
    3f4c:	ef 92       	push	r14
    3f4e:	ff 92       	push	r15
    3f50:	0f 93       	push	r16
    3f52:	1f 93       	push	r17
    3f54:	cf 93       	push	r28
    3f56:	df 93       	push	r29
    3f58:	cd b7       	in	r28, 0x3d	; 61
    3f5a:	de b7       	in	r29, 0x3e	; 62
    3f5c:	c1 54       	subi	r28, 0x41	; 65
    3f5e:	d1 09       	sbc	r29, r1
    3f60:	0f b6       	in	r0, 0x3f	; 63
    3f62:	f8 94       	cli
    3f64:	de bf       	out	0x3e, r29	; 62
    3f66:	0f be       	out	0x3f, r0	; 63
    3f68:	cd bf       	out	0x3d, r28	; 61
    3f6a:	8c 01       	movw	r16, r24
    3f6c:	fb 01       	movw	r30, r22
    3f6e:	6a 01       	movw	r12, r20
    3f70:	97 ad       	ldd	r25, Z+63	; 0x3f
    3f72:	91 30       	cpi	r25, 0x01	; 1
    3f74:	29 f0       	breq	.+10     	; 0x3f80 <_ZlsRK5ValueS1_+0x40>
    3f76:	da 01       	movw	r26, r20
    3f78:	df 96       	adiw	r26, 0x3f	; 63
    3f7a:	8c 91       	ld	r24, X
    3f7c:	81 30       	cpi	r24, 0x01	; 1
    3f7e:	39 f4       	brne	.+14     	; 0x3f8e <_ZlsRK5ValueS1_+0x4e>
    3f80:	bf 01       	movw	r22, r30
    3f82:	66 5f       	subi	r22, 0xF6	; 246
    3f84:	7f 4f       	sbci	r23, 0xFF	; 255
    3f86:	ce 01       	movw	r24, r28
    3f88:	01 96       	adiw	r24, 0x01	; 1
    3f8a:	11 dc       	rcall	.-2014   	; 0x37ae <_ZN5ValueC1EPKc>
    3f8c:	3c c0       	rjmp	.+120    	; 0x4006 <_ZlsRK5ValueS1_+0xc6>
    3f8e:	93 30       	cpi	r25, 0x03	; 3
    3f90:	99 f4       	brne	.+38     	; 0x3fb8 <_ZlsRK5ValueS1_+0x78>
    3f92:	83 30       	cpi	r24, 0x03	; 3
    3f94:	f1 f4       	brne	.+60     	; 0x3fd2 <_ZlsRK5ValueS1_+0x92>
    3f96:	66 81       	ldd	r22, Z+6	; 0x06
    3f98:	77 81       	ldd	r23, Z+7	; 0x07
    3f9a:	80 85       	ldd	r24, Z+8	; 0x08
    3f9c:	91 85       	ldd	r25, Z+9	; 0x09
    3f9e:	0e 94 66 29 	call	0x52cc	; 0x52cc <__fixsfsi>
    3fa2:	4b 01       	movw	r8, r22
    3fa4:	5c 01       	movw	r10, r24
    3fa6:	f6 01       	movw	r30, r12
    3fa8:	66 81       	ldd	r22, Z+6	; 0x06
    3faa:	77 81       	ldd	r23, Z+7	; 0x07
    3fac:	80 85       	ldd	r24, Z+8	; 0x08
    3fae:	91 85       	ldd	r25, Z+9	; 0x09
    3fb0:	0e 94 66 29 	call	0x52cc	; 0x52cc <__fixsfsi>
    3fb4:	c4 01       	movw	r24, r8
    3fb6:	14 c0       	rjmp	.+40     	; 0x3fe0 <_ZlsRK5ValueS1_+0xa0>
    3fb8:	e4 80       	ldd	r14, Z+4	; 0x04
    3fba:	f5 80       	ldd	r15, Z+5	; 0x05
    3fbc:	83 30       	cpi	r24, 0x03	; 3
    3fbe:	b9 f4       	brne	.+46     	; 0x3fee <_ZlsRK5ValueS1_+0xae>
    3fc0:	fa 01       	movw	r30, r20
    3fc2:	66 81       	ldd	r22, Z+6	; 0x06
    3fc4:	77 81       	ldd	r23, Z+7	; 0x07
    3fc6:	80 85       	ldd	r24, Z+8	; 0x08
    3fc8:	91 85       	ldd	r25, Z+9	; 0x09
    3fca:	0e 94 66 29 	call	0x52cc	; 0x52cc <__fixsfsi>
    3fce:	c7 01       	movw	r24, r14
    3fd0:	07 c0       	rjmp	.+14     	; 0x3fe0 <_ZlsRK5ValueS1_+0xa0>
    3fd2:	66 81       	ldd	r22, Z+6	; 0x06
    3fd4:	77 81       	ldd	r23, Z+7	; 0x07
    3fd6:	80 85       	ldd	r24, Z+8	; 0x08
    3fd8:	91 85       	ldd	r25, Z+9	; 0x09
    3fda:	0e 94 66 29 	call	0x52cc	; 0x52cc <__fixsfsi>
    3fde:	08 c0       	rjmp	.+16     	; 0x3ff0 <_ZlsRK5ValueS1_+0xb0>
    3fe0:	02 c0       	rjmp	.+4      	; 0x3fe6 <_ZlsRK5ValueS1_+0xa6>
    3fe2:	88 0f       	add	r24, r24
    3fe4:	99 1f       	adc	r25, r25
    3fe6:	6a 95       	dec	r22
    3fe8:	e2 f7       	brpl	.-8      	; 0x3fe2 <_ZlsRK5ValueS1_+0xa2>
    3fea:	bc 01       	movw	r22, r24
    3fec:	09 c0       	rjmp	.+18     	; 0x4000 <_ZlsRK5ValueS1_+0xc0>
    3fee:	b7 01       	movw	r22, r14
    3ff0:	d6 01       	movw	r26, r12
    3ff2:	14 96       	adiw	r26, 0x04	; 4
    3ff4:	0c 90       	ld	r0, X
    3ff6:	02 c0       	rjmp	.+4      	; 0x3ffc <_ZlsRK5ValueS1_+0xbc>
    3ff8:	66 0f       	add	r22, r22
    3ffa:	77 1f       	adc	r23, r23
    3ffc:	0a 94       	dec	r0
    3ffe:	e2 f7       	brpl	.-8      	; 0x3ff8 <_ZlsRK5ValueS1_+0xb8>
    4000:	ce 01       	movw	r24, r28
    4002:	01 96       	adiw	r24, 0x01	; 1
    4004:	9c db       	rcall	.-2248   	; 0x373e <_ZN5ValueC1Ei>
    4006:	81 e4       	ldi	r24, 0x41	; 65
    4008:	fe 01       	movw	r30, r28
    400a:	31 96       	adiw	r30, 0x01	; 1
    400c:	d8 01       	movw	r26, r16
    400e:	01 90       	ld	r0, Z+
    4010:	0d 92       	st	X+, r0
    4012:	8a 95       	dec	r24
    4014:	e1 f7       	brne	.-8      	; 0x400e <_ZlsRK5ValueS1_+0xce>
    4016:	c8 01       	movw	r24, r16
    4018:	cf 5b       	subi	r28, 0xBF	; 191
    401a:	df 4f       	sbci	r29, 0xFF	; 255
    401c:	0f b6       	in	r0, 0x3f	; 63
    401e:	f8 94       	cli
    4020:	de bf       	out	0x3e, r29	; 62
    4022:	0f be       	out	0x3f, r0	; 63
    4024:	cd bf       	out	0x3d, r28	; 61
    4026:	df 91       	pop	r29
    4028:	cf 91       	pop	r28
    402a:	1f 91       	pop	r17
    402c:	0f 91       	pop	r16
    402e:	ff 90       	pop	r15
    4030:	ef 90       	pop	r14
    4032:	df 90       	pop	r13
    4034:	cf 90       	pop	r12
    4036:	bf 90       	pop	r11
    4038:	af 90       	pop	r10
    403a:	9f 90       	pop	r9
    403c:	8f 90       	pop	r8
    403e:	08 95       	ret

00004040 <_ZrsRK5ValueS1_>:
    4040:	8f 92       	push	r8
    4042:	9f 92       	push	r9
    4044:	af 92       	push	r10
    4046:	bf 92       	push	r11
    4048:	cf 92       	push	r12
    404a:	df 92       	push	r13
    404c:	ef 92       	push	r14
    404e:	ff 92       	push	r15
    4050:	0f 93       	push	r16
    4052:	1f 93       	push	r17
    4054:	cf 93       	push	r28
    4056:	df 93       	push	r29
    4058:	cd b7       	in	r28, 0x3d	; 61
    405a:	de b7       	in	r29, 0x3e	; 62
    405c:	c1 54       	subi	r28, 0x41	; 65
    405e:	d1 09       	sbc	r29, r1
    4060:	0f b6       	in	r0, 0x3f	; 63
    4062:	f8 94       	cli
    4064:	de bf       	out	0x3e, r29	; 62
    4066:	0f be       	out	0x3f, r0	; 63
    4068:	cd bf       	out	0x3d, r28	; 61
    406a:	8c 01       	movw	r16, r24
    406c:	fb 01       	movw	r30, r22
    406e:	6a 01       	movw	r12, r20
    4070:	97 ad       	ldd	r25, Z+63	; 0x3f
    4072:	91 30       	cpi	r25, 0x01	; 1
    4074:	29 f0       	breq	.+10     	; 0x4080 <_ZrsRK5ValueS1_+0x40>
    4076:	da 01       	movw	r26, r20
    4078:	df 96       	adiw	r26, 0x3f	; 63
    407a:	8c 91       	ld	r24, X
    407c:	81 30       	cpi	r24, 0x01	; 1
    407e:	39 f4       	brne	.+14     	; 0x408e <_ZrsRK5ValueS1_+0x4e>
    4080:	bf 01       	movw	r22, r30
    4082:	66 5f       	subi	r22, 0xF6	; 246
    4084:	7f 4f       	sbci	r23, 0xFF	; 255
    4086:	ce 01       	movw	r24, r28
    4088:	01 96       	adiw	r24, 0x01	; 1
    408a:	91 db       	rcall	.-2270   	; 0x37ae <_ZN5ValueC1EPKc>
    408c:	3c c0       	rjmp	.+120    	; 0x4106 <__stack+0x7>
    408e:	93 30       	cpi	r25, 0x03	; 3
    4090:	99 f4       	brne	.+38     	; 0x40b8 <_ZrsRK5ValueS1_+0x78>
    4092:	83 30       	cpi	r24, 0x03	; 3
    4094:	f1 f4       	brne	.+60     	; 0x40d2 <_ZrsRK5ValueS1_+0x92>
    4096:	66 81       	ldd	r22, Z+6	; 0x06
    4098:	77 81       	ldd	r23, Z+7	; 0x07
    409a:	80 85       	ldd	r24, Z+8	; 0x08
    409c:	91 85       	ldd	r25, Z+9	; 0x09
    409e:	0e 94 66 29 	call	0x52cc	; 0x52cc <__fixsfsi>
    40a2:	4b 01       	movw	r8, r22
    40a4:	5c 01       	movw	r10, r24
    40a6:	f6 01       	movw	r30, r12
    40a8:	66 81       	ldd	r22, Z+6	; 0x06
    40aa:	77 81       	ldd	r23, Z+7	; 0x07
    40ac:	80 85       	ldd	r24, Z+8	; 0x08
    40ae:	91 85       	ldd	r25, Z+9	; 0x09
    40b0:	0e 94 66 29 	call	0x52cc	; 0x52cc <__fixsfsi>
    40b4:	c4 01       	movw	r24, r8
    40b6:	14 c0       	rjmp	.+40     	; 0x40e0 <_ZrsRK5ValueS1_+0xa0>
    40b8:	e4 80       	ldd	r14, Z+4	; 0x04
    40ba:	f5 80       	ldd	r15, Z+5	; 0x05
    40bc:	83 30       	cpi	r24, 0x03	; 3
    40be:	b9 f4       	brne	.+46     	; 0x40ee <_ZrsRK5ValueS1_+0xae>
    40c0:	fa 01       	movw	r30, r20
    40c2:	66 81       	ldd	r22, Z+6	; 0x06
    40c4:	77 81       	ldd	r23, Z+7	; 0x07
    40c6:	80 85       	ldd	r24, Z+8	; 0x08
    40c8:	91 85       	ldd	r25, Z+9	; 0x09
    40ca:	0e 94 66 29 	call	0x52cc	; 0x52cc <__fixsfsi>
    40ce:	c7 01       	movw	r24, r14
    40d0:	07 c0       	rjmp	.+14     	; 0x40e0 <_ZrsRK5ValueS1_+0xa0>
    40d2:	66 81       	ldd	r22, Z+6	; 0x06
    40d4:	77 81       	ldd	r23, Z+7	; 0x07
    40d6:	80 85       	ldd	r24, Z+8	; 0x08
    40d8:	91 85       	ldd	r25, Z+9	; 0x09
    40da:	0e 94 66 29 	call	0x52cc	; 0x52cc <__fixsfsi>
    40de:	08 c0       	rjmp	.+16     	; 0x40f0 <_ZrsRK5ValueS1_+0xb0>
    40e0:	02 c0       	rjmp	.+4      	; 0x40e6 <_ZrsRK5ValueS1_+0xa6>
    40e2:	95 95       	asr	r25
    40e4:	87 95       	ror	r24
    40e6:	6a 95       	dec	r22
    40e8:	e2 f7       	brpl	.-8      	; 0x40e2 <_ZrsRK5ValueS1_+0xa2>
    40ea:	bc 01       	movw	r22, r24
    40ec:	09 c0       	rjmp	.+18     	; 0x4100 <__stack+0x1>
    40ee:	b7 01       	movw	r22, r14
    40f0:	d6 01       	movw	r26, r12
    40f2:	14 96       	adiw	r26, 0x04	; 4
    40f4:	0c 90       	ld	r0, X
    40f6:	02 c0       	rjmp	.+4      	; 0x40fc <_ZrsRK5ValueS1_+0xbc>
    40f8:	75 95       	asr	r23
    40fa:	67 95       	ror	r22
    40fc:	0a 94       	dec	r0
    40fe:	e2 f7       	brpl	.-8      	; 0x40f8 <_ZrsRK5ValueS1_+0xb8>
    4100:	ce 01       	movw	r24, r28
    4102:	01 96       	adiw	r24, 0x01	; 1
    4104:	1c db       	rcall	.-2504   	; 0x373e <_ZN5ValueC1Ei>
    4106:	81 e4       	ldi	r24, 0x41	; 65
    4108:	fe 01       	movw	r30, r28
    410a:	31 96       	adiw	r30, 0x01	; 1
    410c:	d8 01       	movw	r26, r16
    410e:	01 90       	ld	r0, Z+
    4110:	0d 92       	st	X+, r0
    4112:	8a 95       	dec	r24
    4114:	e1 f7       	brne	.-8      	; 0x410e <__stack+0xf>
    4116:	c8 01       	movw	r24, r16
    4118:	cf 5b       	subi	r28, 0xBF	; 191
    411a:	df 4f       	sbci	r29, 0xFF	; 255
    411c:	0f b6       	in	r0, 0x3f	; 63
    411e:	f8 94       	cli
    4120:	de bf       	out	0x3e, r29	; 62
    4122:	0f be       	out	0x3f, r0	; 63
    4124:	cd bf       	out	0x3d, r28	; 61
    4126:	df 91       	pop	r29
    4128:	cf 91       	pop	r28
    412a:	1f 91       	pop	r17
    412c:	0f 91       	pop	r16
    412e:	ff 90       	pop	r15
    4130:	ef 90       	pop	r14
    4132:	df 90       	pop	r13
    4134:	cf 90       	pop	r12
    4136:	bf 90       	pop	r11
    4138:	af 90       	pop	r10
    413a:	9f 90       	pop	r9
    413c:	8f 90       	pop	r8
    413e:	08 95       	ret

00004140 <_ZanRK5ValueS1_>:
    4140:	8f 92       	push	r8
    4142:	9f 92       	push	r9
    4144:	af 92       	push	r10
    4146:	bf 92       	push	r11
    4148:	cf 92       	push	r12
    414a:	df 92       	push	r13
    414c:	ef 92       	push	r14
    414e:	ff 92       	push	r15
    4150:	0f 93       	push	r16
    4152:	1f 93       	push	r17
    4154:	cf 93       	push	r28
    4156:	df 93       	push	r29
    4158:	cd b7       	in	r28, 0x3d	; 61
    415a:	de b7       	in	r29, 0x3e	; 62
    415c:	c5 5a       	subi	r28, 0xA5	; 165
    415e:	d1 09       	sbc	r29, r1
    4160:	0f b6       	in	r0, 0x3f	; 63
    4162:	f8 94       	cli
    4164:	de bf       	out	0x3e, r29	; 62
    4166:	0f be       	out	0x3f, r0	; 63
    4168:	cd bf       	out	0x3d, r28	; 61
    416a:	7c 01       	movw	r14, r24
    416c:	fb 01       	movw	r30, r22
    416e:	8a 01       	movw	r16, r20
    4170:	97 ad       	ldd	r25, Z+63	; 0x3f
    4172:	92 30       	cpi	r25, 0x02	; 2
    4174:	29 f0       	breq	.+10     	; 0x4180 <_ZanRK5ValueS1_+0x40>
    4176:	da 01       	movw	r26, r20
    4178:	df 96       	adiw	r26, 0x3f	; 63
    417a:	8c 91       	ld	r24, X
    417c:	82 30       	cpi	r24, 0x02	; 2
    417e:	81 f4       	brne	.+32     	; 0x41a0 <_ZanRK5ValueS1_+0x60>
    4180:	e0 5c       	subi	r30, 0xC0	; 192
    4182:	ff 4f       	sbci	r31, 0xFF	; 255
    4184:	80 81       	ld	r24, Z
    4186:	88 23       	and	r24, r24
    4188:	21 f0       	breq	.+8      	; 0x4192 <_ZanRK5ValueS1_+0x52>
    418a:	f8 01       	movw	r30, r16
    418c:	e0 5c       	subi	r30, 0xC0	; 192
    418e:	ff 4f       	sbci	r31, 0xFF	; 255
    4190:	80 81       	ld	r24, Z
    4192:	92 e0       	ldi	r25, 0x02	; 2
    4194:	f7 01       	movw	r30, r14
    4196:	97 af       	std	Z+63, r25	; 0x3f
    4198:	e0 5c       	subi	r30, 0xC0	; 192
    419a:	ff 4f       	sbci	r31, 0xFF	; 255
    419c:	80 83       	st	Z, r24
    419e:	11 c1       	rjmp	.+546    	; 0x43c2 <_ZanRK5ValueS1_+0x282>
    41a0:	91 30       	cpi	r25, 0x01	; 1
    41a2:	31 f1       	breq	.+76     	; 0x41f0 <_ZanRK5ValueS1_+0xb0>
    41a4:	81 30       	cpi	r24, 0x01	; 1
    41a6:	09 f0       	breq	.+2      	; 0x41aa <_ZanRK5ValueS1_+0x6a>
    41a8:	ad c0       	rjmp	.+346    	; 0x4304 <_ZanRK5ValueS1_+0x1c4>
    41aa:	9e 01       	movw	r18, r28
    41ac:	2c 58       	subi	r18, 0x8C	; 140
    41ae:	3f 4f       	sbci	r19, 0xFF	; 255
    41b0:	69 01       	movw	r12, r18
    41b2:	db 01       	movw	r26, r22
    41b4:	1a 96       	adiw	r26, 0x0a	; 10
    41b6:	5d 01       	movw	r10, r26
    41b8:	9a 01       	movw	r18, r20
    41ba:	26 5f       	subi	r18, 0xF6	; 246
    41bc:	3f 4f       	sbci	r19, 0xFF	; 255
    41be:	49 01       	movw	r8, r18
    41c0:	91 11       	cpse	r25, r1
    41c2:	e2 c0       	rjmp	.+452    	; 0x4388 <_ZanRK5ValueS1_+0x248>
    41c4:	85 81       	ldd	r24, Z+5	; 0x05
    41c6:	8f 93       	push	r24
    41c8:	84 81       	ldd	r24, Z+4	; 0x04
    41ca:	8f 93       	push	r24
    41cc:	80 e5       	ldi	r24, 0x50	; 80
    41ce:	93 e0       	ldi	r25, 0x03	; 3
    41d0:	9f 93       	push	r25
    41d2:	8f 93       	push	r24
    41d4:	df 92       	push	r13
    41d6:	cf 92       	push	r12
    41d8:	0e 94 46 32 	call	0x648c	; 0x648c <sprintf>
    41dc:	b5 01       	movw	r22, r10
    41de:	c6 01       	movw	r24, r12
    41e0:	0e 94 f0 31 	call	0x63e0	; 0x63e0 <strcpy>
    41e4:	b4 01       	movw	r22, r8
    41e6:	c6 01       	movw	r24, r12
    41e8:	0e 94 dc 31 	call	0x63b8	; 0x63b8 <strcat>
    41ec:	b6 01       	movw	r22, r12
    41ee:	24 c0       	rjmp	.+72     	; 0x4238 <_ZanRK5ValueS1_+0xf8>
    41f0:	db 01       	movw	r26, r22
    41f2:	1a 96       	adiw	r26, 0x0a	; 10
    41f4:	6d 01       	movw	r12, r26
    41f6:	81 11       	cpse	r24, r1
    41f8:	31 c0       	rjmp	.+98     	; 0x425c <_ZanRK5ValueS1_+0x11c>
    41fa:	fa 01       	movw	r30, r20
    41fc:	85 81       	ldd	r24, Z+5	; 0x05
    41fe:	8f 93       	push	r24
    4200:	84 81       	ldd	r24, Z+4	; 0x04
    4202:	8f 93       	push	r24
    4204:	80 e5       	ldi	r24, 0x50	; 80
    4206:	93 e0       	ldi	r25, 0x03	; 3
    4208:	9f 93       	push	r25
    420a:	8f 93       	push	r24
    420c:	8e 01       	movw	r16, r28
    420e:	0e 5b       	subi	r16, 0xBE	; 190
    4210:	1f 4f       	sbci	r17, 0xFF	; 255
    4212:	1f 93       	push	r17
    4214:	0f 93       	push	r16
    4216:	0e 94 46 32 	call	0x648c	; 0x648c <sprintf>
    421a:	b6 01       	movw	r22, r12
    421c:	ce 01       	movw	r24, r28
    421e:	8c 58       	subi	r24, 0x8C	; 140
    4220:	9f 4f       	sbci	r25, 0xFF	; 255
    4222:	0e 94 f0 31 	call	0x63e0	; 0x63e0 <strcpy>
    4226:	b8 01       	movw	r22, r16
    4228:	ce 01       	movw	r24, r28
    422a:	8c 58       	subi	r24, 0x8C	; 140
    422c:	9f 4f       	sbci	r25, 0xFF	; 255
    422e:	0e 94 dc 31 	call	0x63b8	; 0x63b8 <strcat>
    4232:	be 01       	movw	r22, r28
    4234:	6c 58       	subi	r22, 0x8C	; 140
    4236:	7f 4f       	sbci	r23, 0xFF	; 255
    4238:	ce 01       	movw	r24, r28
    423a:	01 96       	adiw	r24, 0x01	; 1
    423c:	b8 da       	rcall	.-2704   	; 0x37ae <_ZN5ValueC1EPKc>
    423e:	81 e4       	ldi	r24, 0x41	; 65
    4240:	fe 01       	movw	r30, r28
    4242:	31 96       	adiw	r30, 0x01	; 1
    4244:	d7 01       	movw	r26, r14
    4246:	01 90       	ld	r0, Z+
    4248:	0d 92       	st	X+, r0
    424a:	8a 95       	dec	r24
    424c:	e1 f7       	brne	.-8      	; 0x4246 <_ZanRK5ValueS1_+0x106>
    424e:	0f 90       	pop	r0
    4250:	0f 90       	pop	r0
    4252:	0f 90       	pop	r0
    4254:	0f 90       	pop	r0
    4256:	0f 90       	pop	r0
    4258:	0f 90       	pop	r0
    425a:	b3 c0       	rjmp	.+358    	; 0x43c2 <_ZanRK5ValueS1_+0x282>
    425c:	83 30       	cpi	r24, 0x03	; 3
    425e:	d9 f5       	brne	.+118    	; 0x42d6 <_ZanRK5ValueS1_+0x196>
    4260:	da 01       	movw	r26, r20
    4262:	19 96       	adiw	r26, 0x09	; 9
    4264:	8c 91       	ld	r24, X
    4266:	19 97       	sbiw	r26, 0x09	; 9
    4268:	8f 93       	push	r24
    426a:	18 96       	adiw	r26, 0x08	; 8
    426c:	8c 91       	ld	r24, X
    426e:	18 97       	sbiw	r26, 0x08	; 8
    4270:	8f 93       	push	r24
    4272:	17 96       	adiw	r26, 0x07	; 7
    4274:	8c 91       	ld	r24, X
    4276:	17 97       	sbiw	r26, 0x07	; 7
    4278:	8f 93       	push	r24
    427a:	16 96       	adiw	r26, 0x06	; 6
    427c:	8c 91       	ld	r24, X
    427e:	8f 93       	push	r24
    4280:	83 e5       	ldi	r24, 0x53	; 83
    4282:	93 e0       	ldi	r25, 0x03	; 3
    4284:	9f 93       	push	r25
    4286:	8f 93       	push	r24
    4288:	8e 01       	movw	r16, r28
    428a:	0e 5b       	subi	r16, 0xBE	; 190
    428c:	1f 4f       	sbci	r17, 0xFF	; 255
    428e:	1f 93       	push	r17
    4290:	0f 93       	push	r16
    4292:	0e 94 46 32 	call	0x648c	; 0x648c <sprintf>
    4296:	b6 01       	movw	r22, r12
    4298:	ce 01       	movw	r24, r28
    429a:	8c 58       	subi	r24, 0x8C	; 140
    429c:	9f 4f       	sbci	r25, 0xFF	; 255
    429e:	0e 94 f0 31 	call	0x63e0	; 0x63e0 <strcpy>
    42a2:	b8 01       	movw	r22, r16
    42a4:	ce 01       	movw	r24, r28
    42a6:	8c 58       	subi	r24, 0x8C	; 140
    42a8:	9f 4f       	sbci	r25, 0xFF	; 255
    42aa:	0e 94 dc 31 	call	0x63b8	; 0x63b8 <strcat>
    42ae:	be 01       	movw	r22, r28
    42b0:	6c 58       	subi	r22, 0x8C	; 140
    42b2:	7f 4f       	sbci	r23, 0xFF	; 255
    42b4:	ce 01       	movw	r24, r28
    42b6:	01 96       	adiw	r24, 0x01	; 1
    42b8:	7a da       	rcall	.-2828   	; 0x37ae <_ZN5ValueC1EPKc>
    42ba:	81 e4       	ldi	r24, 0x41	; 65
    42bc:	fe 01       	movw	r30, r28
    42be:	31 96       	adiw	r30, 0x01	; 1
    42c0:	d7 01       	movw	r26, r14
    42c2:	01 90       	ld	r0, Z+
    42c4:	0d 92       	st	X+, r0
    42c6:	8a 95       	dec	r24
    42c8:	e1 f7       	brne	.-8      	; 0x42c2 <_ZanRK5ValueS1_+0x182>
    42ca:	0f b6       	in	r0, 0x3f	; 63
    42cc:	f8 94       	cli
    42ce:	de bf       	out	0x3e, r29	; 62
    42d0:	0f be       	out	0x3f, r0	; 63
    42d2:	cd bf       	out	0x3d, r28	; 61
    42d4:	76 c0       	rjmp	.+236    	; 0x43c2 <_ZanRK5ValueS1_+0x282>
    42d6:	bf 01       	movw	r22, r30
    42d8:	66 5f       	subi	r22, 0xF6	; 246
    42da:	7f 4f       	sbci	r23, 0xFF	; 255
    42dc:	ce 01       	movw	r24, r28
    42de:	8c 58       	subi	r24, 0x8C	; 140
    42e0:	9f 4f       	sbci	r25, 0xFF	; 255
    42e2:	0e 94 f0 31 	call	0x63e0	; 0x63e0 <strcpy>
    42e6:	b8 01       	movw	r22, r16
    42e8:	66 5f       	subi	r22, 0xF6	; 246
    42ea:	7f 4f       	sbci	r23, 0xFF	; 255
    42ec:	ce 01       	movw	r24, r28
    42ee:	8c 58       	subi	r24, 0x8C	; 140
    42f0:	9f 4f       	sbci	r25, 0xFF	; 255
    42f2:	0e 94 dc 31 	call	0x63b8	; 0x63b8 <strcat>
    42f6:	be 01       	movw	r22, r28
    42f8:	6c 58       	subi	r22, 0x8C	; 140
    42fa:	7f 4f       	sbci	r23, 0xFF	; 255
    42fc:	ce 01       	movw	r24, r28
    42fe:	01 96       	adiw	r24, 0x01	; 1
    4300:	56 da       	rcall	.-2900   	; 0x37ae <_ZN5ValueC1EPKc>
    4302:	39 c0       	rjmp	.+114    	; 0x4376 <_ZanRK5ValueS1_+0x236>
    4304:	93 30       	cpi	r25, 0x03	; 3
    4306:	a1 f4       	brne	.+40     	; 0x4330 <_ZanRK5ValueS1_+0x1f0>
    4308:	83 30       	cpi	r24, 0x03	; 3
    430a:	09 f5       	brne	.+66     	; 0x434e <_ZanRK5ValueS1_+0x20e>
    430c:	66 81       	ldd	r22, Z+6	; 0x06
    430e:	77 81       	ldd	r23, Z+7	; 0x07
    4310:	80 85       	ldd	r24, Z+8	; 0x08
    4312:	91 85       	ldd	r25, Z+9	; 0x09
    4314:	db d7       	rcall	.+4022   	; 0x52cc <__fixsfsi>
    4316:	4b 01       	movw	r8, r22
    4318:	5c 01       	movw	r10, r24
    431a:	d8 01       	movw	r26, r16
    431c:	16 96       	adiw	r26, 0x06	; 6
    431e:	6d 91       	ld	r22, X+
    4320:	7d 91       	ld	r23, X+
    4322:	8d 91       	ld	r24, X+
    4324:	9c 91       	ld	r25, X
    4326:	19 97       	sbiw	r26, 0x09	; 9
    4328:	d1 d7       	rcall	.+4002   	; 0x52cc <__fixsfsi>
    432a:	68 21       	and	r22, r8
    432c:	79 21       	and	r23, r9
    432e:	20 c0       	rjmp	.+64     	; 0x4370 <_ZanRK5ValueS1_+0x230>
    4330:	c4 80       	ldd	r12, Z+4	; 0x04
    4332:	d5 80       	ldd	r13, Z+5	; 0x05
    4334:	83 30       	cpi	r24, 0x03	; 3
    4336:	b1 f4       	brne	.+44     	; 0x4364 <_ZanRK5ValueS1_+0x224>
    4338:	da 01       	movw	r26, r20
    433a:	16 96       	adiw	r26, 0x06	; 6
    433c:	6d 91       	ld	r22, X+
    433e:	7d 91       	ld	r23, X+
    4340:	8d 91       	ld	r24, X+
    4342:	9c 91       	ld	r25, X
    4344:	19 97       	sbiw	r26, 0x09	; 9
    4346:	c2 d7       	rcall	.+3972   	; 0x52cc <__fixsfsi>
    4348:	6c 21       	and	r22, r12
    434a:	7d 21       	and	r23, r13
    434c:	11 c0       	rjmp	.+34     	; 0x4370 <_ZanRK5ValueS1_+0x230>
    434e:	66 81       	ldd	r22, Z+6	; 0x06
    4350:	77 81       	ldd	r23, Z+7	; 0x07
    4352:	80 85       	ldd	r24, Z+8	; 0x08
    4354:	91 85       	ldd	r25, Z+9	; 0x09
    4356:	ba d7       	rcall	.+3956   	; 0x52cc <__fixsfsi>
    4358:	f8 01       	movw	r30, r16
    435a:	24 81       	ldd	r18, Z+4	; 0x04
    435c:	35 81       	ldd	r19, Z+5	; 0x05
    435e:	62 23       	and	r22, r18
    4360:	73 23       	and	r23, r19
    4362:	06 c0       	rjmp	.+12     	; 0x4370 <_ZanRK5ValueS1_+0x230>
    4364:	fa 01       	movw	r30, r20
    4366:	84 81       	ldd	r24, Z+4	; 0x04
    4368:	95 81       	ldd	r25, Z+5	; 0x05
    436a:	b6 01       	movw	r22, r12
    436c:	68 23       	and	r22, r24
    436e:	79 23       	and	r23, r25
    4370:	ce 01       	movw	r24, r28
    4372:	01 96       	adiw	r24, 0x01	; 1
    4374:	e4 d9       	rcall	.-3128   	; 0x373e <_ZN5ValueC1Ei>
    4376:	81 e4       	ldi	r24, 0x41	; 65
    4378:	fe 01       	movw	r30, r28
    437a:	31 96       	adiw	r30, 0x01	; 1
    437c:	d7 01       	movw	r26, r14
    437e:	01 90       	ld	r0, Z+
    4380:	0d 92       	st	X+, r0
    4382:	8a 95       	dec	r24
    4384:	e1 f7       	brne	.-8      	; 0x437e <_ZanRK5ValueS1_+0x23e>
    4386:	1d c0       	rjmp	.+58     	; 0x43c2 <_ZanRK5ValueS1_+0x282>
    4388:	93 30       	cpi	r25, 0x03	; 3
    438a:	09 f0       	breq	.+2      	; 0x438e <_ZanRK5ValueS1_+0x24e>
    438c:	a4 cf       	rjmp	.-184    	; 0x42d6 <_ZanRK5ValueS1_+0x196>
    438e:	81 85       	ldd	r24, Z+9	; 0x09
    4390:	8f 93       	push	r24
    4392:	80 85       	ldd	r24, Z+8	; 0x08
    4394:	8f 93       	push	r24
    4396:	87 81       	ldd	r24, Z+7	; 0x07
    4398:	8f 93       	push	r24
    439a:	86 81       	ldd	r24, Z+6	; 0x06
    439c:	8f 93       	push	r24
    439e:	83 e5       	ldi	r24, 0x53	; 83
    43a0:	93 e0       	ldi	r25, 0x03	; 3
    43a2:	9f 93       	push	r25
    43a4:	8f 93       	push	r24
    43a6:	df 92       	push	r13
    43a8:	cf 92       	push	r12
    43aa:	0e 94 46 32 	call	0x648c	; 0x648c <sprintf>
    43ae:	b5 01       	movw	r22, r10
    43b0:	c6 01       	movw	r24, r12
    43b2:	0e 94 f0 31 	call	0x63e0	; 0x63e0 <strcpy>
    43b6:	b4 01       	movw	r22, r8
    43b8:	c6 01       	movw	r24, r12
    43ba:	0e 94 dc 31 	call	0x63b8	; 0x63b8 <strcat>
    43be:	b6 01       	movw	r22, r12
    43c0:	79 cf       	rjmp	.-270    	; 0x42b4 <_ZanRK5ValueS1_+0x174>
    43c2:	c7 01       	movw	r24, r14
    43c4:	cb 55       	subi	r28, 0x5B	; 91
    43c6:	df 4f       	sbci	r29, 0xFF	; 255
    43c8:	0f b6       	in	r0, 0x3f	; 63
    43ca:	f8 94       	cli
    43cc:	de bf       	out	0x3e, r29	; 62
    43ce:	0f be       	out	0x3f, r0	; 63
    43d0:	cd bf       	out	0x3d, r28	; 61
    43d2:	df 91       	pop	r29
    43d4:	cf 91       	pop	r28
    43d6:	1f 91       	pop	r17
    43d8:	0f 91       	pop	r16
    43da:	ff 90       	pop	r15
    43dc:	ef 90       	pop	r14
    43de:	df 90       	pop	r13
    43e0:	cf 90       	pop	r12
    43e2:	bf 90       	pop	r11
    43e4:	af 90       	pop	r10
    43e6:	9f 90       	pop	r9
    43e8:	8f 90       	pop	r8
    43ea:	08 95       	ret

000043ec <_ZorRK5ValueS1_>:
    43ec:	8f 92       	push	r8
    43ee:	9f 92       	push	r9
    43f0:	af 92       	push	r10
    43f2:	bf 92       	push	r11
    43f4:	cf 92       	push	r12
    43f6:	df 92       	push	r13
    43f8:	ef 92       	push	r14
    43fa:	ff 92       	push	r15
    43fc:	0f 93       	push	r16
    43fe:	1f 93       	push	r17
    4400:	cf 93       	push	r28
    4402:	df 93       	push	r29
    4404:	cd b7       	in	r28, 0x3d	; 61
    4406:	de b7       	in	r29, 0x3e	; 62
    4408:	c1 54       	subi	r28, 0x41	; 65
    440a:	d1 09       	sbc	r29, r1
    440c:	0f b6       	in	r0, 0x3f	; 63
    440e:	f8 94       	cli
    4410:	de bf       	out	0x3e, r29	; 62
    4412:	0f be       	out	0x3f, r0	; 63
    4414:	cd bf       	out	0x3d, r28	; 61
    4416:	8c 01       	movw	r16, r24
    4418:	fb 01       	movw	r30, r22
    441a:	7a 01       	movw	r14, r20
    441c:	97 ad       	ldd	r25, Z+63	; 0x3f
    441e:	92 30       	cpi	r25, 0x02	; 2
    4420:	29 f0       	breq	.+10     	; 0x442c <_ZorRK5ValueS1_+0x40>
    4422:	da 01       	movw	r26, r20
    4424:	df 96       	adiw	r26, 0x3f	; 63
    4426:	8c 91       	ld	r24, X
    4428:	82 30       	cpi	r24, 0x02	; 2
    442a:	81 f4       	brne	.+32     	; 0x444c <_ZorRK5ValueS1_+0x60>
    442c:	e0 5c       	subi	r30, 0xC0	; 192
    442e:	ff 4f       	sbci	r31, 0xFF	; 255
    4430:	80 81       	ld	r24, Z
    4432:	81 11       	cpse	r24, r1
    4434:	04 c0       	rjmp	.+8      	; 0x443e <_ZorRK5ValueS1_+0x52>
    4436:	f7 01       	movw	r30, r14
    4438:	e0 5c       	subi	r30, 0xC0	; 192
    443a:	ff 4f       	sbci	r31, 0xFF	; 255
    443c:	80 81       	ld	r24, Z
    443e:	92 e0       	ldi	r25, 0x02	; 2
    4440:	f8 01       	movw	r30, r16
    4442:	97 af       	std	Z+63, r25	; 0x3f
    4444:	e0 5c       	subi	r30, 0xC0	; 192
    4446:	ff 4f       	sbci	r31, 0xFF	; 255
    4448:	80 83       	st	Z, r24
    444a:	4c c0       	rjmp	.+152    	; 0x44e4 <_ZorRK5ValueS1_+0xf8>
    444c:	91 30       	cpi	r25, 0x01	; 1
    444e:	11 f0       	breq	.+4      	; 0x4454 <_ZorRK5ValueS1_+0x68>
    4450:	81 30       	cpi	r24, 0x01	; 1
    4452:	39 f4       	brne	.+14     	; 0x4462 <_ZorRK5ValueS1_+0x76>
    4454:	bf 01       	movw	r22, r30
    4456:	66 5f       	subi	r22, 0xF6	; 246
    4458:	7f 4f       	sbci	r23, 0xFF	; 255
    445a:	ce 01       	movw	r24, r28
    445c:	01 96       	adiw	r24, 0x01	; 1
    445e:	a7 d9       	rcall	.-3250   	; 0x37ae <_ZN5ValueC1EPKc>
    4460:	39 c0       	rjmp	.+114    	; 0x44d4 <_ZorRK5ValueS1_+0xe8>
    4462:	93 30       	cpi	r25, 0x03	; 3
    4464:	a1 f4       	brne	.+40     	; 0x448e <_ZorRK5ValueS1_+0xa2>
    4466:	83 30       	cpi	r24, 0x03	; 3
    4468:	09 f5       	brne	.+66     	; 0x44ac <_ZorRK5ValueS1_+0xc0>
    446a:	66 81       	ldd	r22, Z+6	; 0x06
    446c:	77 81       	ldd	r23, Z+7	; 0x07
    446e:	80 85       	ldd	r24, Z+8	; 0x08
    4470:	91 85       	ldd	r25, Z+9	; 0x09
    4472:	2c d7       	rcall	.+3672   	; 0x52cc <__fixsfsi>
    4474:	4b 01       	movw	r8, r22
    4476:	5c 01       	movw	r10, r24
    4478:	d7 01       	movw	r26, r14
    447a:	16 96       	adiw	r26, 0x06	; 6
    447c:	6d 91       	ld	r22, X+
    447e:	7d 91       	ld	r23, X+
    4480:	8d 91       	ld	r24, X+
    4482:	9c 91       	ld	r25, X
    4484:	19 97       	sbiw	r26, 0x09	; 9
    4486:	22 d7       	rcall	.+3652   	; 0x52cc <__fixsfsi>
    4488:	68 29       	or	r22, r8
    448a:	79 29       	or	r23, r9
    448c:	20 c0       	rjmp	.+64     	; 0x44ce <_ZorRK5ValueS1_+0xe2>
    448e:	c4 80       	ldd	r12, Z+4	; 0x04
    4490:	d5 80       	ldd	r13, Z+5	; 0x05
    4492:	83 30       	cpi	r24, 0x03	; 3
    4494:	b1 f4       	brne	.+44     	; 0x44c2 <_ZorRK5ValueS1_+0xd6>
    4496:	da 01       	movw	r26, r20
    4498:	16 96       	adiw	r26, 0x06	; 6
    449a:	6d 91       	ld	r22, X+
    449c:	7d 91       	ld	r23, X+
    449e:	8d 91       	ld	r24, X+
    44a0:	9c 91       	ld	r25, X
    44a2:	19 97       	sbiw	r26, 0x09	; 9
    44a4:	13 d7       	rcall	.+3622   	; 0x52cc <__fixsfsi>
    44a6:	6c 29       	or	r22, r12
    44a8:	7d 29       	or	r23, r13
    44aa:	11 c0       	rjmp	.+34     	; 0x44ce <_ZorRK5ValueS1_+0xe2>
    44ac:	66 81       	ldd	r22, Z+6	; 0x06
    44ae:	77 81       	ldd	r23, Z+7	; 0x07
    44b0:	80 85       	ldd	r24, Z+8	; 0x08
    44b2:	91 85       	ldd	r25, Z+9	; 0x09
    44b4:	0b d7       	rcall	.+3606   	; 0x52cc <__fixsfsi>
    44b6:	f7 01       	movw	r30, r14
    44b8:	24 81       	ldd	r18, Z+4	; 0x04
    44ba:	35 81       	ldd	r19, Z+5	; 0x05
    44bc:	62 2b       	or	r22, r18
    44be:	73 2b       	or	r23, r19
    44c0:	06 c0       	rjmp	.+12     	; 0x44ce <_ZorRK5ValueS1_+0xe2>
    44c2:	fa 01       	movw	r30, r20
    44c4:	84 81       	ldd	r24, Z+4	; 0x04
    44c6:	95 81       	ldd	r25, Z+5	; 0x05
    44c8:	b6 01       	movw	r22, r12
    44ca:	68 2b       	or	r22, r24
    44cc:	79 2b       	or	r23, r25
    44ce:	ce 01       	movw	r24, r28
    44d0:	01 96       	adiw	r24, 0x01	; 1
    44d2:	35 d9       	rcall	.-3478   	; 0x373e <_ZN5ValueC1Ei>
    44d4:	81 e4       	ldi	r24, 0x41	; 65
    44d6:	fe 01       	movw	r30, r28
    44d8:	31 96       	adiw	r30, 0x01	; 1
    44da:	d8 01       	movw	r26, r16
    44dc:	01 90       	ld	r0, Z+
    44de:	0d 92       	st	X+, r0
    44e0:	8a 95       	dec	r24
    44e2:	e1 f7       	brne	.-8      	; 0x44dc <_ZorRK5ValueS1_+0xf0>
    44e4:	c8 01       	movw	r24, r16
    44e6:	cf 5b       	subi	r28, 0xBF	; 191
    44e8:	df 4f       	sbci	r29, 0xFF	; 255
    44ea:	0f b6       	in	r0, 0x3f	; 63
    44ec:	f8 94       	cli
    44ee:	de bf       	out	0x3e, r29	; 62
    44f0:	0f be       	out	0x3f, r0	; 63
    44f2:	cd bf       	out	0x3d, r28	; 61
    44f4:	df 91       	pop	r29
    44f6:	cf 91       	pop	r28
    44f8:	1f 91       	pop	r17
    44fa:	0f 91       	pop	r16
    44fc:	ff 90       	pop	r15
    44fe:	ef 90       	pop	r14
    4500:	df 90       	pop	r13
    4502:	cf 90       	pop	r12
    4504:	bf 90       	pop	r11
    4506:	af 90       	pop	r10
    4508:	9f 90       	pop	r9
    450a:	8f 90       	pop	r8
    450c:	08 95       	ret

0000450e <_ZntRK5Value>:
    450e:	0f 93       	push	r16
    4510:	1f 93       	push	r17
    4512:	cf 93       	push	r28
    4514:	df 93       	push	r29
    4516:	cd b7       	in	r28, 0x3d	; 61
    4518:	de b7       	in	r29, 0x3e	; 62
    451a:	c1 54       	subi	r28, 0x41	; 65
    451c:	d1 09       	sbc	r29, r1
    451e:	0f b6       	in	r0, 0x3f	; 63
    4520:	f8 94       	cli
    4522:	de bf       	out	0x3e, r29	; 62
    4524:	0f be       	out	0x3f, r0	; 63
    4526:	cd bf       	out	0x3d, r28	; 61
    4528:	8c 01       	movw	r16, r24
    452a:	fb 01       	movw	r30, r22
    452c:	87 ad       	ldd	r24, Z+63	; 0x3f
    452e:	82 30       	cpi	r24, 0x02	; 2
    4530:	59 f4       	brne	.+22     	; 0x4548 <_ZntRK5Value+0x3a>
    4532:	e0 5c       	subi	r30, 0xC0	; 192
    4534:	ff 4f       	sbci	r31, 0xFF	; 255
    4536:	20 81       	ld	r18, Z
    4538:	91 e0       	ldi	r25, 0x01	; 1
    453a:	92 27       	eor	r25, r18
    453c:	f8 01       	movw	r30, r16
    453e:	87 af       	std	Z+63, r24	; 0x3f
    4540:	e0 5c       	subi	r30, 0xC0	; 192
    4542:	ff 4f       	sbci	r31, 0xFF	; 255
    4544:	90 83       	st	Z, r25
    4546:	1f c0       	rjmp	.+62     	; 0x4586 <_ZntRK5Value+0x78>
    4548:	81 30       	cpi	r24, 0x01	; 1
    454a:	31 f4       	brne	.+12     	; 0x4558 <_ZntRK5Value+0x4a>
    454c:	66 5f       	subi	r22, 0xF6	; 246
    454e:	7f 4f       	sbci	r23, 0xFF	; 255
    4550:	ce 01       	movw	r24, r28
    4552:	01 96       	adiw	r24, 0x01	; 1
    4554:	2c d9       	rcall	.-3496   	; 0x37ae <_ZN5ValueC1EPKc>
    4556:	0f c0       	rjmp	.+30     	; 0x4576 <_ZntRK5Value+0x68>
    4558:	83 30       	cpi	r24, 0x03	; 3
    455a:	31 f4       	brne	.+12     	; 0x4568 <_ZntRK5Value+0x5a>
    455c:	66 81       	ldd	r22, Z+6	; 0x06
    455e:	77 81       	ldd	r23, Z+7	; 0x07
    4560:	80 85       	ldd	r24, Z+8	; 0x08
    4562:	91 85       	ldd	r25, Z+9	; 0x09
    4564:	b3 d6       	rcall	.+3430   	; 0x52cc <__fixsfsi>
    4566:	02 c0       	rjmp	.+4      	; 0x456c <_ZntRK5Value+0x5e>
    4568:	64 81       	ldd	r22, Z+4	; 0x04
    456a:	75 81       	ldd	r23, Z+5	; 0x05
    456c:	60 95       	com	r22
    456e:	70 95       	com	r23
    4570:	ce 01       	movw	r24, r28
    4572:	01 96       	adiw	r24, 0x01	; 1
    4574:	e4 d8       	rcall	.-3640   	; 0x373e <_ZN5ValueC1Ei>
    4576:	81 e4       	ldi	r24, 0x41	; 65
    4578:	fe 01       	movw	r30, r28
    457a:	31 96       	adiw	r30, 0x01	; 1
    457c:	d8 01       	movw	r26, r16
    457e:	01 90       	ld	r0, Z+
    4580:	0d 92       	st	X+, r0
    4582:	8a 95       	dec	r24
    4584:	e1 f7       	brne	.-8      	; 0x457e <_ZntRK5Value+0x70>
    4586:	c8 01       	movw	r24, r16
    4588:	cf 5b       	subi	r28, 0xBF	; 191
    458a:	df 4f       	sbci	r29, 0xFF	; 255
    458c:	0f b6       	in	r0, 0x3f	; 63
    458e:	f8 94       	cli
    4590:	de bf       	out	0x3e, r29	; 62
    4592:	0f be       	out	0x3f, r0	; 63
    4594:	cd bf       	out	0x3d, r28	; 61
    4596:	df 91       	pop	r29
    4598:	cf 91       	pop	r28
    459a:	1f 91       	pop	r17
    459c:	0f 91       	pop	r16
    459e:	08 95       	ret

000045a0 <_ZeoRK5ValueS1_>:
    45a0:	8f 92       	push	r8
    45a2:	9f 92       	push	r9
    45a4:	af 92       	push	r10
    45a6:	bf 92       	push	r11
    45a8:	cf 92       	push	r12
    45aa:	df 92       	push	r13
    45ac:	ef 92       	push	r14
    45ae:	ff 92       	push	r15
    45b0:	0f 93       	push	r16
    45b2:	1f 93       	push	r17
    45b4:	cf 93       	push	r28
    45b6:	df 93       	push	r29
    45b8:	cd b7       	in	r28, 0x3d	; 61
    45ba:	de b7       	in	r29, 0x3e	; 62
    45bc:	c1 54       	subi	r28, 0x41	; 65
    45be:	d1 09       	sbc	r29, r1
    45c0:	0f b6       	in	r0, 0x3f	; 63
    45c2:	f8 94       	cli
    45c4:	de bf       	out	0x3e, r29	; 62
    45c6:	0f be       	out	0x3f, r0	; 63
    45c8:	cd bf       	out	0x3d, r28	; 61
    45ca:	7c 01       	movw	r14, r24
    45cc:	fb 01       	movw	r30, r22
    45ce:	8a 01       	movw	r16, r20
    45d0:	97 ad       	ldd	r25, Z+63	; 0x3f
    45d2:	92 30       	cpi	r25, 0x02	; 2
    45d4:	29 f0       	breq	.+10     	; 0x45e0 <_ZeoRK5ValueS1_+0x40>
    45d6:	da 01       	movw	r26, r20
    45d8:	df 96       	adiw	r26, 0x3f	; 63
    45da:	8c 91       	ld	r24, X
    45dc:	82 30       	cpi	r24, 0x02	; 2
    45de:	51 f4       	brne	.+20     	; 0x45f4 <_ZeoRK5ValueS1_+0x54>
    45e0:	e0 5c       	subi	r30, 0xC0	; 192
    45e2:	ff 4f       	sbci	r31, 0xFF	; 255
    45e4:	d8 01       	movw	r26, r16
    45e6:	a0 5c       	subi	r26, 0xC0	; 192
    45e8:	bf 4f       	sbci	r27, 0xFF	; 255
    45ea:	60 81       	ld	r22, Z
    45ec:	8c 91       	ld	r24, X
    45ee:	68 27       	eor	r22, r24
    45f0:	70 e0       	ldi	r23, 0x00	; 0
    45f2:	41 c0       	rjmp	.+130    	; 0x4676 <_ZeoRK5ValueS1_+0xd6>
    45f4:	91 30       	cpi	r25, 0x01	; 1
    45f6:	11 f0       	breq	.+4      	; 0x45fc <_ZeoRK5ValueS1_+0x5c>
    45f8:	81 30       	cpi	r24, 0x01	; 1
    45fa:	39 f4       	brne	.+14     	; 0x460a <_ZeoRK5ValueS1_+0x6a>
    45fc:	bf 01       	movw	r22, r30
    45fe:	66 5f       	subi	r22, 0xF6	; 246
    4600:	7f 4f       	sbci	r23, 0xFF	; 255
    4602:	ce 01       	movw	r24, r28
    4604:	01 96       	adiw	r24, 0x01	; 1
    4606:	d3 d8       	rcall	.-3674   	; 0x37ae <_ZN5ValueC1EPKc>
    4608:	39 c0       	rjmp	.+114    	; 0x467c <_ZeoRK5ValueS1_+0xdc>
    460a:	93 30       	cpi	r25, 0x03	; 3
    460c:	91 f4       	brne	.+36     	; 0x4632 <_ZeoRK5ValueS1_+0x92>
    460e:	83 30       	cpi	r24, 0x03	; 3
    4610:	e9 f4       	brne	.+58     	; 0x464c <_ZeoRK5ValueS1_+0xac>
    4612:	66 81       	ldd	r22, Z+6	; 0x06
    4614:	77 81       	ldd	r23, Z+7	; 0x07
    4616:	80 85       	ldd	r24, Z+8	; 0x08
    4618:	91 85       	ldd	r25, Z+9	; 0x09
    461a:	58 d6       	rcall	.+3248   	; 0x52cc <__fixsfsi>
    461c:	4b 01       	movw	r8, r22
    461e:	5c 01       	movw	r10, r24
    4620:	f8 01       	movw	r30, r16
    4622:	66 81       	ldd	r22, Z+6	; 0x06
    4624:	77 81       	ldd	r23, Z+7	; 0x07
    4626:	80 85       	ldd	r24, Z+8	; 0x08
    4628:	91 85       	ldd	r25, Z+9	; 0x09
    462a:	50 d6       	rcall	.+3232   	; 0x52cc <__fixsfsi>
    462c:	68 25       	eor	r22, r8
    462e:	79 25       	eor	r23, r9
    4630:	22 c0       	rjmp	.+68     	; 0x4676 <_ZeoRK5ValueS1_+0xd6>
    4632:	c4 80       	ldd	r12, Z+4	; 0x04
    4634:	d5 80       	ldd	r13, Z+5	; 0x05
    4636:	83 30       	cpi	r24, 0x03	; 3
    4638:	b1 f4       	brne	.+44     	; 0x4666 <_ZeoRK5ValueS1_+0xc6>
    463a:	fa 01       	movw	r30, r20
    463c:	66 81       	ldd	r22, Z+6	; 0x06
    463e:	77 81       	ldd	r23, Z+7	; 0x07
    4640:	80 85       	ldd	r24, Z+8	; 0x08
    4642:	91 85       	ldd	r25, Z+9	; 0x09
    4644:	43 d6       	rcall	.+3206   	; 0x52cc <__fixsfsi>
    4646:	6c 25       	eor	r22, r12
    4648:	7d 25       	eor	r23, r13
    464a:	15 c0       	rjmp	.+42     	; 0x4676 <_ZeoRK5ValueS1_+0xd6>
    464c:	66 81       	ldd	r22, Z+6	; 0x06
    464e:	77 81       	ldd	r23, Z+7	; 0x07
    4650:	80 85       	ldd	r24, Z+8	; 0x08
    4652:	91 85       	ldd	r25, Z+9	; 0x09
    4654:	3b d6       	rcall	.+3190   	; 0x52cc <__fixsfsi>
    4656:	d8 01       	movw	r26, r16
    4658:	14 96       	adiw	r26, 0x04	; 4
    465a:	2d 91       	ld	r18, X+
    465c:	3c 91       	ld	r19, X
    465e:	15 97       	sbiw	r26, 0x05	; 5
    4660:	62 27       	eor	r22, r18
    4662:	73 27       	eor	r23, r19
    4664:	08 c0       	rjmp	.+16     	; 0x4676 <_ZeoRK5ValueS1_+0xd6>
    4666:	da 01       	movw	r26, r20
    4668:	14 96       	adiw	r26, 0x04	; 4
    466a:	8d 91       	ld	r24, X+
    466c:	9c 91       	ld	r25, X
    466e:	15 97       	sbiw	r26, 0x05	; 5
    4670:	b6 01       	movw	r22, r12
    4672:	68 27       	eor	r22, r24
    4674:	79 27       	eor	r23, r25
    4676:	ce 01       	movw	r24, r28
    4678:	01 96       	adiw	r24, 0x01	; 1
    467a:	61 d8       	rcall	.-3902   	; 0x373e <_ZN5ValueC1Ei>
    467c:	81 e4       	ldi	r24, 0x41	; 65
    467e:	fe 01       	movw	r30, r28
    4680:	31 96       	adiw	r30, 0x01	; 1
    4682:	d7 01       	movw	r26, r14
    4684:	01 90       	ld	r0, Z+
    4686:	0d 92       	st	X+, r0
    4688:	8a 95       	dec	r24
    468a:	e1 f7       	brne	.-8      	; 0x4684 <_ZeoRK5ValueS1_+0xe4>
    468c:	c7 01       	movw	r24, r14
    468e:	cf 5b       	subi	r28, 0xBF	; 191
    4690:	df 4f       	sbci	r29, 0xFF	; 255
    4692:	0f b6       	in	r0, 0x3f	; 63
    4694:	f8 94       	cli
    4696:	de bf       	out	0x3e, r29	; 62
    4698:	0f be       	out	0x3f, r0	; 63
    469a:	cd bf       	out	0x3d, r28	; 61
    469c:	df 91       	pop	r29
    469e:	cf 91       	pop	r28
    46a0:	1f 91       	pop	r17
    46a2:	0f 91       	pop	r16
    46a4:	ff 90       	pop	r15
    46a6:	ef 90       	pop	r14
    46a8:	df 90       	pop	r13
    46aa:	cf 90       	pop	r12
    46ac:	bf 90       	pop	r11
    46ae:	af 90       	pop	r10
    46b0:	9f 90       	pop	r9
    46b2:	8f 90       	pop	r8
    46b4:	08 95       	ret

000046b6 <_ZeqRK5ValueS1_>:
    46b6:	bf 92       	push	r11
    46b8:	cf 92       	push	r12
    46ba:	df 92       	push	r13
    46bc:	ef 92       	push	r14
    46be:	ff 92       	push	r15
    46c0:	0f 93       	push	r16
    46c2:	1f 93       	push	r17
    46c4:	cf 93       	push	r28
    46c6:	df 93       	push	r29
    46c8:	8c 01       	movw	r16, r24
    46ca:	7b 01       	movw	r14, r22
    46cc:	ea 01       	movw	r28, r20
    46ce:	fb 01       	movw	r30, r22
    46d0:	97 ad       	ldd	r25, Z+63	; 0x3f
    46d2:	98 01       	movw	r18, r16
    46d4:	20 5c       	subi	r18, 0xC0	; 192
    46d6:	3f 4f       	sbci	r19, 0xFF	; 255
    46d8:	69 01       	movw	r12, r18
    46da:	92 30       	cpi	r25, 0x02	; 2
    46dc:	19 f0       	breq	.+6      	; 0x46e4 <_ZeqRK5ValueS1_+0x2e>
    46de:	8f ad       	ldd	r24, Y+63	; 0x3f
    46e0:	82 30       	cpi	r24, 0x02	; 2
    46e2:	59 f4       	brne	.+22     	; 0x46fa <_ZeqRK5ValueS1_+0x44>
    46e4:	f7 01       	movw	r30, r14
    46e6:	e0 5c       	subi	r30, 0xC0	; 192
    46e8:	ff 4f       	sbci	r31, 0xFF	; 255
    46ea:	c0 5c       	subi	r28, 0xC0	; 192
    46ec:	df 4f       	sbci	r29, 0xFF	; 255
    46ee:	81 e0       	ldi	r24, 0x01	; 1
    46f0:	20 81       	ld	r18, Z
    46f2:	98 81       	ld	r25, Y
    46f4:	29 13       	cpse	r18, r25
    46f6:	66 c0       	rjmp	.+204    	; 0x47c4 <_ZeqRK5ValueS1_+0x10e>
    46f8:	66 c0       	rjmp	.+204    	; 0x47c6 <_ZeqRK5ValueS1_+0x110>
    46fa:	91 30       	cpi	r25, 0x01	; 1
    46fc:	99 f4       	brne	.+38     	; 0x4724 <_ZeqRK5ValueS1_+0x6e>
    46fe:	81 30       	cpi	r24, 0x01	; 1
    4700:	49 f5       	brne	.+82     	; 0x4754 <_ZeqRK5ValueS1_+0x9e>
    4702:	ba 01       	movw	r22, r20
    4704:	66 5f       	subi	r22, 0xF6	; 246
    4706:	7f 4f       	sbci	r23, 0xFF	; 255
    4708:	c7 01       	movw	r24, r14
    470a:	0a 96       	adiw	r24, 0x0a	; 10
    470c:	0e 94 e7 31 	call	0x63ce	; 0x63ce <strcmp>
    4710:	22 e0       	ldi	r18, 0x02	; 2
    4712:	f8 01       	movw	r30, r16
    4714:	27 af       	std	Z+63, r18	; 0x3f
    4716:	21 e0       	ldi	r18, 0x01	; 1
    4718:	89 2b       	or	r24, r25
    471a:	09 f0       	breq	.+2      	; 0x471e <_ZeqRK5ValueS1_+0x68>
    471c:	20 e0       	ldi	r18, 0x00	; 0
    471e:	f6 01       	movw	r30, r12
    4720:	20 83       	st	Z, r18
    4722:	56 c0       	rjmp	.+172    	; 0x47d0 <_ZeqRK5ValueS1_+0x11a>
    4724:	93 30       	cpi	r25, 0x03	; 3
    4726:	b1 f4       	brne	.+44     	; 0x4754 <_ZeqRK5ValueS1_+0x9e>
    4728:	83 30       	cpi	r24, 0x03	; 3
    472a:	d1 f4       	brne	.+52     	; 0x4760 <_ZeqRK5ValueS1_+0xaa>
    472c:	bb 24       	eor	r11, r11
    472e:	b3 94       	inc	r11
    4730:	2e 81       	ldd	r18, Y+6	; 0x06
    4732:	3f 81       	ldd	r19, Y+7	; 0x07
    4734:	48 85       	ldd	r20, Y+8	; 0x08
    4736:	59 85       	ldd	r21, Y+9	; 0x09
    4738:	fb 01       	movw	r30, r22
    473a:	66 81       	ldd	r22, Z+6	; 0x06
    473c:	77 81       	ldd	r23, Z+7	; 0x07
    473e:	80 85       	ldd	r24, Z+8	; 0x08
    4740:	91 85       	ldd	r25, Z+9	; 0x09
    4742:	58 d5       	rcall	.+2736   	; 0x51f4 <__cmpsf2>
    4744:	81 11       	cpse	r24, r1
    4746:	b1 2c       	mov	r11, r1
    4748:	82 e0       	ldi	r24, 0x02	; 2
    474a:	f8 01       	movw	r30, r16
    474c:	87 af       	std	Z+63, r24	; 0x3f
    474e:	f6 01       	movw	r30, r12
    4750:	b0 82       	st	Z, r11
    4752:	3e c0       	rjmp	.+124    	; 0x47d0 <_ZeqRK5ValueS1_+0x11a>
    4754:	f7 01       	movw	r30, r14
    4756:	64 81       	ldd	r22, Z+4	; 0x04
    4758:	75 81       	ldd	r23, Z+5	; 0x05
    475a:	83 30       	cpi	r24, 0x03	; 3
    475c:	69 f5       	brne	.+90     	; 0x47b8 <_ZeqRK5ValueS1_+0x102>
    475e:	18 c0       	rjmp	.+48     	; 0x4790 <_ZeqRK5ValueS1_+0xda>
    4760:	6c 81       	ldd	r22, Y+4	; 0x04
    4762:	7d 81       	ldd	r23, Y+5	; 0x05
    4764:	07 2e       	mov	r0, r23
    4766:	00 0c       	add	r0, r0
    4768:	88 0b       	sbc	r24, r24
    476a:	99 0b       	sbc	r25, r25
    476c:	e2 d5       	rcall	.+3012   	; 0x5332 <__floatsisf>
    476e:	9b 01       	movw	r18, r22
    4770:	ac 01       	movw	r20, r24
    4772:	c1 e0       	ldi	r28, 0x01	; 1
    4774:	f7 01       	movw	r30, r14
    4776:	66 81       	ldd	r22, Z+6	; 0x06
    4778:	77 81       	ldd	r23, Z+7	; 0x07
    477a:	80 85       	ldd	r24, Z+8	; 0x08
    477c:	91 85       	ldd	r25, Z+9	; 0x09
    477e:	3a d5       	rcall	.+2676   	; 0x51f4 <__cmpsf2>
    4780:	81 11       	cpse	r24, r1
    4782:	c0 e0       	ldi	r28, 0x00	; 0
    4784:	82 e0       	ldi	r24, 0x02	; 2
    4786:	f8 01       	movw	r30, r16
    4788:	87 af       	std	Z+63, r24	; 0x3f
    478a:	f6 01       	movw	r30, r12
    478c:	c0 83       	st	Z, r28
    478e:	20 c0       	rjmp	.+64     	; 0x47d0 <_ZeqRK5ValueS1_+0x11a>
    4790:	07 2e       	mov	r0, r23
    4792:	00 0c       	add	r0, r0
    4794:	88 0b       	sbc	r24, r24
    4796:	99 0b       	sbc	r25, r25
    4798:	cc d5       	rcall	.+2968   	; 0x5332 <__floatsisf>
    479a:	ff 24       	eor	r15, r15
    479c:	f3 94       	inc	r15
    479e:	2e 81       	ldd	r18, Y+6	; 0x06
    47a0:	3f 81       	ldd	r19, Y+7	; 0x07
    47a2:	48 85       	ldd	r20, Y+8	; 0x08
    47a4:	59 85       	ldd	r21, Y+9	; 0x09
    47a6:	26 d5       	rcall	.+2636   	; 0x51f4 <__cmpsf2>
    47a8:	81 11       	cpse	r24, r1
    47aa:	f1 2c       	mov	r15, r1
    47ac:	82 e0       	ldi	r24, 0x02	; 2
    47ae:	f8 01       	movw	r30, r16
    47b0:	87 af       	std	Z+63, r24	; 0x3f
    47b2:	f6 01       	movw	r30, r12
    47b4:	f0 82       	st	Z, r15
    47b6:	0c c0       	rjmp	.+24     	; 0x47d0 <_ZeqRK5ValueS1_+0x11a>
    47b8:	81 e0       	ldi	r24, 0x01	; 1
    47ba:	2c 81       	ldd	r18, Y+4	; 0x04
    47bc:	3d 81       	ldd	r19, Y+5	; 0x05
    47be:	62 17       	cp	r22, r18
    47c0:	73 07       	cpc	r23, r19
    47c2:	09 f0       	breq	.+2      	; 0x47c6 <_ZeqRK5ValueS1_+0x110>
    47c4:	80 e0       	ldi	r24, 0x00	; 0
    47c6:	92 e0       	ldi	r25, 0x02	; 2
    47c8:	f8 01       	movw	r30, r16
    47ca:	97 af       	std	Z+63, r25	; 0x3f
    47cc:	f6 01       	movw	r30, r12
    47ce:	80 83       	st	Z, r24
    47d0:	c8 01       	movw	r24, r16
    47d2:	df 91       	pop	r29
    47d4:	cf 91       	pop	r28
    47d6:	1f 91       	pop	r17
    47d8:	0f 91       	pop	r16
    47da:	ff 90       	pop	r15
    47dc:	ef 90       	pop	r14
    47de:	df 90       	pop	r13
    47e0:	cf 90       	pop	r12
    47e2:	bf 90       	pop	r11
    47e4:	08 95       	ret

000047e6 <_ZneRK5ValueS1_>:
    47e6:	bf 92       	push	r11
    47e8:	cf 92       	push	r12
    47ea:	df 92       	push	r13
    47ec:	ef 92       	push	r14
    47ee:	ff 92       	push	r15
    47f0:	0f 93       	push	r16
    47f2:	1f 93       	push	r17
    47f4:	cf 93       	push	r28
    47f6:	df 93       	push	r29
    47f8:	8c 01       	movw	r16, r24
    47fa:	7b 01       	movw	r14, r22
    47fc:	ea 01       	movw	r28, r20
    47fe:	fb 01       	movw	r30, r22
    4800:	97 ad       	ldd	r25, Z+63	; 0x3f
    4802:	98 01       	movw	r18, r16
    4804:	20 5c       	subi	r18, 0xC0	; 192
    4806:	3f 4f       	sbci	r19, 0xFF	; 255
    4808:	69 01       	movw	r12, r18
    480a:	92 30       	cpi	r25, 0x02	; 2
    480c:	19 f0       	breq	.+6      	; 0x4814 <_ZneRK5ValueS1_+0x2e>
    480e:	8f ad       	ldd	r24, Y+63	; 0x3f
    4810:	82 30       	cpi	r24, 0x02	; 2
    4812:	49 f4       	brne	.+18     	; 0x4826 <_ZneRK5ValueS1_+0x40>
    4814:	f7 01       	movw	r30, r14
    4816:	e0 5c       	subi	r30, 0xC0	; 192
    4818:	ff 4f       	sbci	r31, 0xFF	; 255
    481a:	c0 5c       	subi	r28, 0xC0	; 192
    481c:	df 4f       	sbci	r29, 0xFF	; 255
    481e:	90 81       	ld	r25, Z
    4820:	88 81       	ld	r24, Y
    4822:	89 27       	eor	r24, r25
    4824:	69 c0       	rjmp	.+210    	; 0x48f8 <_ZneRK5ValueS1_+0x112>
    4826:	91 30       	cpi	r25, 0x01	; 1
    4828:	99 f4       	brne	.+38     	; 0x4850 <_ZneRK5ValueS1_+0x6a>
    482a:	81 30       	cpi	r24, 0x01	; 1
    482c:	51 f5       	brne	.+84     	; 0x4882 <_ZneRK5ValueS1_+0x9c>
    482e:	ba 01       	movw	r22, r20
    4830:	66 5f       	subi	r22, 0xF6	; 246
    4832:	7f 4f       	sbci	r23, 0xFF	; 255
    4834:	c7 01       	movw	r24, r14
    4836:	0a 96       	adiw	r24, 0x0a	; 10
    4838:	0e 94 e7 31 	call	0x63ce	; 0x63ce <strcmp>
    483c:	22 e0       	ldi	r18, 0x02	; 2
    483e:	f8 01       	movw	r30, r16
    4840:	27 af       	std	Z+63, r18	; 0x3f
    4842:	21 e0       	ldi	r18, 0x01	; 1
    4844:	89 2b       	or	r24, r25
    4846:	09 f4       	brne	.+2      	; 0x484a <_ZneRK5ValueS1_+0x64>
    4848:	20 e0       	ldi	r18, 0x00	; 0
    484a:	f6 01       	movw	r30, r12
    484c:	20 83       	st	Z, r18
    484e:	59 c0       	rjmp	.+178    	; 0x4902 <_ZneRK5ValueS1_+0x11c>
    4850:	93 30       	cpi	r25, 0x03	; 3
    4852:	b9 f4       	brne	.+46     	; 0x4882 <_ZneRK5ValueS1_+0x9c>
    4854:	83 30       	cpi	r24, 0x03	; 3
    4856:	d9 f4       	brne	.+54     	; 0x488e <_ZneRK5ValueS1_+0xa8>
    4858:	bb 24       	eor	r11, r11
    485a:	b3 94       	inc	r11
    485c:	2e 81       	ldd	r18, Y+6	; 0x06
    485e:	3f 81       	ldd	r19, Y+7	; 0x07
    4860:	48 85       	ldd	r20, Y+8	; 0x08
    4862:	59 85       	ldd	r21, Y+9	; 0x09
    4864:	fb 01       	movw	r30, r22
    4866:	66 81       	ldd	r22, Z+6	; 0x06
    4868:	77 81       	ldd	r23, Z+7	; 0x07
    486a:	80 85       	ldd	r24, Z+8	; 0x08
    486c:	91 85       	ldd	r25, Z+9	; 0x09
    486e:	c2 d4       	rcall	.+2436   	; 0x51f4 <__cmpsf2>
    4870:	81 11       	cpse	r24, r1
    4872:	01 c0       	rjmp	.+2      	; 0x4876 <_ZneRK5ValueS1_+0x90>
    4874:	b1 2c       	mov	r11, r1
    4876:	82 e0       	ldi	r24, 0x02	; 2
    4878:	f8 01       	movw	r30, r16
    487a:	87 af       	std	Z+63, r24	; 0x3f
    487c:	f6 01       	movw	r30, r12
    487e:	b0 82       	st	Z, r11
    4880:	40 c0       	rjmp	.+128    	; 0x4902 <_ZneRK5ValueS1_+0x11c>
    4882:	f7 01       	movw	r30, r14
    4884:	64 81       	ldd	r22, Z+4	; 0x04
    4886:	75 81       	ldd	r23, Z+5	; 0x05
    4888:	83 30       	cpi	r24, 0x03	; 3
    488a:	79 f5       	brne	.+94     	; 0x48ea <_ZneRK5ValueS1_+0x104>
    488c:	19 c0       	rjmp	.+50     	; 0x48c0 <_ZneRK5ValueS1_+0xda>
    488e:	6c 81       	ldd	r22, Y+4	; 0x04
    4890:	7d 81       	ldd	r23, Y+5	; 0x05
    4892:	07 2e       	mov	r0, r23
    4894:	00 0c       	add	r0, r0
    4896:	88 0b       	sbc	r24, r24
    4898:	99 0b       	sbc	r25, r25
    489a:	4b d5       	rcall	.+2710   	; 0x5332 <__floatsisf>
    489c:	9b 01       	movw	r18, r22
    489e:	ac 01       	movw	r20, r24
    48a0:	c1 e0       	ldi	r28, 0x01	; 1
    48a2:	f7 01       	movw	r30, r14
    48a4:	66 81       	ldd	r22, Z+6	; 0x06
    48a6:	77 81       	ldd	r23, Z+7	; 0x07
    48a8:	80 85       	ldd	r24, Z+8	; 0x08
    48aa:	91 85       	ldd	r25, Z+9	; 0x09
    48ac:	a3 d4       	rcall	.+2374   	; 0x51f4 <__cmpsf2>
    48ae:	81 11       	cpse	r24, r1
    48b0:	01 c0       	rjmp	.+2      	; 0x48b4 <_ZneRK5ValueS1_+0xce>
    48b2:	c0 e0       	ldi	r28, 0x00	; 0
    48b4:	82 e0       	ldi	r24, 0x02	; 2
    48b6:	f8 01       	movw	r30, r16
    48b8:	87 af       	std	Z+63, r24	; 0x3f
    48ba:	f6 01       	movw	r30, r12
    48bc:	c0 83       	st	Z, r28
    48be:	21 c0       	rjmp	.+66     	; 0x4902 <_ZneRK5ValueS1_+0x11c>
    48c0:	07 2e       	mov	r0, r23
    48c2:	00 0c       	add	r0, r0
    48c4:	88 0b       	sbc	r24, r24
    48c6:	99 0b       	sbc	r25, r25
    48c8:	34 d5       	rcall	.+2664   	; 0x5332 <__floatsisf>
    48ca:	ff 24       	eor	r15, r15
    48cc:	f3 94       	inc	r15
    48ce:	2e 81       	ldd	r18, Y+6	; 0x06
    48d0:	3f 81       	ldd	r19, Y+7	; 0x07
    48d2:	48 85       	ldd	r20, Y+8	; 0x08
    48d4:	59 85       	ldd	r21, Y+9	; 0x09
    48d6:	8e d4       	rcall	.+2332   	; 0x51f4 <__cmpsf2>
    48d8:	81 11       	cpse	r24, r1
    48da:	01 c0       	rjmp	.+2      	; 0x48de <_ZneRK5ValueS1_+0xf8>
    48dc:	f1 2c       	mov	r15, r1
    48de:	82 e0       	ldi	r24, 0x02	; 2
    48e0:	f8 01       	movw	r30, r16
    48e2:	87 af       	std	Z+63, r24	; 0x3f
    48e4:	f6 01       	movw	r30, r12
    48e6:	f0 82       	st	Z, r15
    48e8:	0c c0       	rjmp	.+24     	; 0x4902 <_ZneRK5ValueS1_+0x11c>
    48ea:	81 e0       	ldi	r24, 0x01	; 1
    48ec:	2c 81       	ldd	r18, Y+4	; 0x04
    48ee:	3d 81       	ldd	r19, Y+5	; 0x05
    48f0:	62 17       	cp	r22, r18
    48f2:	73 07       	cpc	r23, r19
    48f4:	09 f4       	brne	.+2      	; 0x48f8 <_ZneRK5ValueS1_+0x112>
    48f6:	80 e0       	ldi	r24, 0x00	; 0
    48f8:	92 e0       	ldi	r25, 0x02	; 2
    48fa:	f8 01       	movw	r30, r16
    48fc:	97 af       	std	Z+63, r25	; 0x3f
    48fe:	f6 01       	movw	r30, r12
    4900:	80 83       	st	Z, r24
    4902:	c8 01       	movw	r24, r16
    4904:	df 91       	pop	r29
    4906:	cf 91       	pop	r28
    4908:	1f 91       	pop	r17
    490a:	0f 91       	pop	r16
    490c:	ff 90       	pop	r15
    490e:	ef 90       	pop	r14
    4910:	df 90       	pop	r13
    4912:	cf 90       	pop	r12
    4914:	bf 90       	pop	r11
    4916:	08 95       	ret

00004918 <_ZltRK5ValueS1_>:
    4918:	cf 92       	push	r12
    491a:	df 92       	push	r13
    491c:	ef 92       	push	r14
    491e:	ff 92       	push	r15
    4920:	0f 93       	push	r16
    4922:	1f 93       	push	r17
    4924:	cf 93       	push	r28
    4926:	df 93       	push	r29
    4928:	7c 01       	movw	r14, r24
    492a:	8b 01       	movw	r16, r22
    492c:	ea 01       	movw	r28, r20
    492e:	db 01       	movw	r26, r22
    4930:	df 96       	adiw	r26, 0x3f	; 63
    4932:	9c 91       	ld	r25, X
    4934:	df 97       	sbiw	r26, 0x3f	; 63
    4936:	f7 01       	movw	r30, r14
    4938:	e0 5c       	subi	r30, 0xC0	; 192
    493a:	ff 4f       	sbci	r31, 0xFF	; 255
    493c:	6f 01       	movw	r12, r30
    493e:	91 30       	cpi	r25, 0x01	; 1
    4940:	a9 f0       	breq	.+42     	; 0x496c <_ZltRK5ValueS1_+0x54>
    4942:	8f ad       	ldd	r24, Y+63	; 0x3f
    4944:	81 30       	cpi	r24, 0x01	; 1
    4946:	49 f5       	brne	.+82     	; 0x499a <_ZltRK5ValueS1_+0x82>
    4948:	91 11       	cpse	r25, r1
    494a:	10 c0       	rjmp	.+32     	; 0x496c <_ZltRK5ValueS1_+0x54>
    494c:	2a 96       	adiw	r28, 0x0a	; 10
    494e:	fe 01       	movw	r30, r28
    4950:	01 90       	ld	r0, Z+
    4952:	00 20       	and	r0, r0
    4954:	e9 f7       	brne	.-6      	; 0x4950 <_ZltRK5ValueS1_+0x38>
    4956:	31 97       	sbiw	r30, 0x01	; 1
    4958:	ec 1b       	sub	r30, r28
    495a:	fd 0b       	sbc	r31, r29
    495c:	14 96       	adiw	r26, 0x04	; 4
    495e:	2d 91       	ld	r18, X+
    4960:	3c 91       	ld	r19, X
    4962:	15 97       	sbiw	r26, 0x05	; 5
    4964:	2e 17       	cp	r18, r30
    4966:	3f 07       	cpc	r19, r31
    4968:	8c f0       	brlt	.+34     	; 0x498c <_ZltRK5ValueS1_+0x74>
    496a:	0f c0       	rjmp	.+30     	; 0x498a <_ZltRK5ValueS1_+0x72>
    496c:	d8 01       	movw	r26, r16
    496e:	1a 96       	adiw	r26, 0x0a	; 10
    4970:	fd 01       	movw	r30, r26
    4972:	01 90       	ld	r0, Z+
    4974:	00 20       	and	r0, r0
    4976:	e9 f7       	brne	.-6      	; 0x4972 <_ZltRK5ValueS1_+0x5a>
    4978:	31 97       	sbiw	r30, 0x01	; 1
    497a:	ea 1b       	sub	r30, r26
    497c:	fb 0b       	sbc	r31, r27
    497e:	81 e0       	ldi	r24, 0x01	; 1
    4980:	2c 81       	ldd	r18, Y+4	; 0x04
    4982:	3d 81       	ldd	r19, Y+5	; 0x05
    4984:	e2 17       	cp	r30, r18
    4986:	f3 07       	cpc	r31, r19
    4988:	0c f0       	brlt	.+2      	; 0x498c <_ZltRK5ValueS1_+0x74>
    498a:	80 e0       	ldi	r24, 0x00	; 0
    498c:	92 e0       	ldi	r25, 0x02	; 2
    498e:	d7 01       	movw	r26, r14
    4990:	df 96       	adiw	r26, 0x3f	; 63
    4992:	9c 93       	st	X, r25
    4994:	f6 01       	movw	r30, r12
    4996:	80 83       	st	Z, r24
    4998:	39 c0       	rjmp	.+114    	; 0x4a0c <_ZltRK5ValueS1_+0xf4>
    499a:	93 30       	cpi	r25, 0x03	; 3
    499c:	39 f4       	brne	.+14     	; 0x49ac <_ZltRK5ValueS1_+0x94>
    499e:	83 30       	cpi	r24, 0x03	; 3
    49a0:	a1 f4       	brne	.+40     	; 0x49ca <_ZltRK5ValueS1_+0xb2>
    49a2:	2e 81       	ldd	r18, Y+6	; 0x06
    49a4:	3f 81       	ldd	r19, Y+7	; 0x07
    49a6:	48 85       	ldd	r20, Y+8	; 0x08
    49a8:	59 85       	ldd	r21, Y+9	; 0x09
    49aa:	18 c0       	rjmp	.+48     	; 0x49dc <_ZltRK5ValueS1_+0xc4>
    49ac:	fb 01       	movw	r30, r22
    49ae:	64 81       	ldd	r22, Z+4	; 0x04
    49b0:	75 81       	ldd	r23, Z+5	; 0x05
    49b2:	83 30       	cpi	r24, 0x03	; 3
    49b4:	f9 f4       	brne	.+62     	; 0x49f4 <_ZltRK5ValueS1_+0xdc>
    49b6:	07 2e       	mov	r0, r23
    49b8:	00 0c       	add	r0, r0
    49ba:	88 0b       	sbc	r24, r24
    49bc:	99 0b       	sbc	r25, r25
    49be:	b9 d4       	rcall	.+2418   	; 0x5332 <__floatsisf>
    49c0:	2e 81       	ldd	r18, Y+6	; 0x06
    49c2:	3f 81       	ldd	r19, Y+7	; 0x07
    49c4:	48 85       	ldd	r20, Y+8	; 0x08
    49c6:	59 85       	ldd	r21, Y+9	; 0x09
    49c8:	10 c0       	rjmp	.+32     	; 0x49ea <_ZltRK5ValueS1_+0xd2>
    49ca:	6c 81       	ldd	r22, Y+4	; 0x04
    49cc:	7d 81       	ldd	r23, Y+5	; 0x05
    49ce:	07 2e       	mov	r0, r23
    49d0:	00 0c       	add	r0, r0
    49d2:	88 0b       	sbc	r24, r24
    49d4:	99 0b       	sbc	r25, r25
    49d6:	ad d4       	rcall	.+2394   	; 0x5332 <__floatsisf>
    49d8:	9b 01       	movw	r18, r22
    49da:	ac 01       	movw	r20, r24
    49dc:	d8 01       	movw	r26, r16
    49de:	16 96       	adiw	r26, 0x06	; 6
    49e0:	6d 91       	ld	r22, X+
    49e2:	7d 91       	ld	r23, X+
    49e4:	8d 91       	ld	r24, X+
    49e6:	9c 91       	ld	r25, X
    49e8:	19 97       	sbiw	r26, 0x09	; 9
    49ea:	04 d4       	rcall	.+2056   	; 0x51f4 <__cmpsf2>
    49ec:	88 1f       	adc	r24, r24
    49ee:	88 27       	eor	r24, r24
    49f0:	88 1f       	adc	r24, r24
    49f2:	07 c0       	rjmp	.+14     	; 0x4a02 <_ZltRK5ValueS1_+0xea>
    49f4:	81 e0       	ldi	r24, 0x01	; 1
    49f6:	2c 81       	ldd	r18, Y+4	; 0x04
    49f8:	3d 81       	ldd	r19, Y+5	; 0x05
    49fa:	62 17       	cp	r22, r18
    49fc:	73 07       	cpc	r23, r19
    49fe:	0c f0       	brlt	.+2      	; 0x4a02 <_ZltRK5ValueS1_+0xea>
    4a00:	80 e0       	ldi	r24, 0x00	; 0
    4a02:	92 e0       	ldi	r25, 0x02	; 2
    4a04:	f7 01       	movw	r30, r14
    4a06:	97 af       	std	Z+63, r25	; 0x3f
    4a08:	d6 01       	movw	r26, r12
    4a0a:	8c 93       	st	X, r24
    4a0c:	c7 01       	movw	r24, r14
    4a0e:	df 91       	pop	r29
    4a10:	cf 91       	pop	r28
    4a12:	1f 91       	pop	r17
    4a14:	0f 91       	pop	r16
    4a16:	ff 90       	pop	r15
    4a18:	ef 90       	pop	r14
    4a1a:	df 90       	pop	r13
    4a1c:	cf 90       	pop	r12
    4a1e:	08 95       	ret

00004a20 <_ZleRK5ValueS1_>:
    4a20:	bf 92       	push	r11
    4a22:	cf 92       	push	r12
    4a24:	df 92       	push	r13
    4a26:	ef 92       	push	r14
    4a28:	ff 92       	push	r15
    4a2a:	0f 93       	push	r16
    4a2c:	1f 93       	push	r17
    4a2e:	cf 93       	push	r28
    4a30:	df 93       	push	r29
    4a32:	7c 01       	movw	r14, r24
    4a34:	8b 01       	movw	r16, r22
    4a36:	ea 01       	movw	r28, r20
    4a38:	db 01       	movw	r26, r22
    4a3a:	df 96       	adiw	r26, 0x3f	; 63
    4a3c:	9c 91       	ld	r25, X
    4a3e:	df 97       	sbiw	r26, 0x3f	; 63
    4a40:	f7 01       	movw	r30, r14
    4a42:	e0 5c       	subi	r30, 0xC0	; 192
    4a44:	ff 4f       	sbci	r31, 0xFF	; 255
    4a46:	6f 01       	movw	r12, r30
    4a48:	91 30       	cpi	r25, 0x01	; 1
    4a4a:	a9 f0       	breq	.+42     	; 0x4a76 <_ZleRK5ValueS1_+0x56>
    4a4c:	8f ad       	ldd	r24, Y+63	; 0x3f
    4a4e:	81 30       	cpi	r24, 0x01	; 1
    4a50:	49 f5       	brne	.+82     	; 0x4aa4 <_ZleRK5ValueS1_+0x84>
    4a52:	91 11       	cpse	r25, r1
    4a54:	10 c0       	rjmp	.+32     	; 0x4a76 <_ZleRK5ValueS1_+0x56>
    4a56:	2a 96       	adiw	r28, 0x0a	; 10
    4a58:	fe 01       	movw	r30, r28
    4a5a:	01 90       	ld	r0, Z+
    4a5c:	00 20       	and	r0, r0
    4a5e:	e9 f7       	brne	.-6      	; 0x4a5a <_ZleRK5ValueS1_+0x3a>
    4a60:	31 97       	sbiw	r30, 0x01	; 1
    4a62:	ec 1b       	sub	r30, r28
    4a64:	fd 0b       	sbc	r31, r29
    4a66:	14 96       	adiw	r26, 0x04	; 4
    4a68:	2d 91       	ld	r18, X+
    4a6a:	3c 91       	ld	r19, X
    4a6c:	15 97       	sbiw	r26, 0x05	; 5
    4a6e:	e2 17       	cp	r30, r18
    4a70:	f3 07       	cpc	r31, r19
    4a72:	8c f4       	brge	.+34     	; 0x4a96 <_ZleRK5ValueS1_+0x76>
    4a74:	0f c0       	rjmp	.+30     	; 0x4a94 <_ZleRK5ValueS1_+0x74>
    4a76:	d8 01       	movw	r26, r16
    4a78:	1a 96       	adiw	r26, 0x0a	; 10
    4a7a:	fd 01       	movw	r30, r26
    4a7c:	01 90       	ld	r0, Z+
    4a7e:	00 20       	and	r0, r0
    4a80:	e9 f7       	brne	.-6      	; 0x4a7c <_ZleRK5ValueS1_+0x5c>
    4a82:	31 97       	sbiw	r30, 0x01	; 1
    4a84:	ea 1b       	sub	r30, r26
    4a86:	fb 0b       	sbc	r31, r27
    4a88:	81 e0       	ldi	r24, 0x01	; 1
    4a8a:	2c 81       	ldd	r18, Y+4	; 0x04
    4a8c:	3d 81       	ldd	r19, Y+5	; 0x05
    4a8e:	2e 17       	cp	r18, r30
    4a90:	3f 07       	cpc	r19, r31
    4a92:	0c f4       	brge	.+2      	; 0x4a96 <_ZleRK5ValueS1_+0x76>
    4a94:	80 e0       	ldi	r24, 0x00	; 0
    4a96:	92 e0       	ldi	r25, 0x02	; 2
    4a98:	d7 01       	movw	r26, r14
    4a9a:	df 96       	adiw	r26, 0x3f	; 63
    4a9c:	9c 93       	st	X, r25
    4a9e:	f6 01       	movw	r30, r12
    4aa0:	80 83       	st	Z, r24
    4aa2:	5c c0       	rjmp	.+184    	; 0x4b5c <_ZleRK5ValueS1_+0x13c>
    4aa4:	93 30       	cpi	r25, 0x03	; 3
    4aa6:	c9 f4       	brne	.+50     	; 0x4ada <_ZleRK5ValueS1_+0xba>
    4aa8:	83 30       	cpi	r24, 0x03	; 3
    4aaa:	e9 f4       	brne	.+58     	; 0x4ae6 <_ZleRK5ValueS1_+0xc6>
    4aac:	bb 24       	eor	r11, r11
    4aae:	b3 94       	inc	r11
    4ab0:	2e 81       	ldd	r18, Y+6	; 0x06
    4ab2:	3f 81       	ldd	r19, Y+7	; 0x07
    4ab4:	48 85       	ldd	r20, Y+8	; 0x08
    4ab6:	59 85       	ldd	r21, Y+9	; 0x09
    4ab8:	db 01       	movw	r26, r22
    4aba:	16 96       	adiw	r26, 0x06	; 6
    4abc:	6d 91       	ld	r22, X+
    4abe:	7d 91       	ld	r23, X+
    4ac0:	8d 91       	ld	r24, X+
    4ac2:	9c 91       	ld	r25, X
    4ac4:	19 97       	sbiw	r26, 0x09	; 9
    4ac6:	96 d3       	rcall	.+1836   	; 0x51f4 <__cmpsf2>
    4ac8:	18 16       	cp	r1, r24
    4aca:	0c f4       	brge	.+2      	; 0x4ace <_ZleRK5ValueS1_+0xae>
    4acc:	b1 2c       	mov	r11, r1
    4ace:	82 e0       	ldi	r24, 0x02	; 2
    4ad0:	f7 01       	movw	r30, r14
    4ad2:	87 af       	std	Z+63, r24	; 0x3f
    4ad4:	d6 01       	movw	r26, r12
    4ad6:	bc 92       	st	X, r11
    4ad8:	41 c0       	rjmp	.+130    	; 0x4b5c <_ZleRK5ValueS1_+0x13c>
    4ada:	fb 01       	movw	r30, r22
    4adc:	64 81       	ldd	r22, Z+4	; 0x04
    4ade:	75 81       	ldd	r23, Z+5	; 0x05
    4ae0:	83 30       	cpi	r24, 0x03	; 3
    4ae2:	81 f5       	brne	.+96     	; 0x4b44 <_ZleRK5ValueS1_+0x124>
    4ae4:	1b c0       	rjmp	.+54     	; 0x4b1c <_ZleRK5ValueS1_+0xfc>
    4ae6:	6c 81       	ldd	r22, Y+4	; 0x04
    4ae8:	7d 81       	ldd	r23, Y+5	; 0x05
    4aea:	07 2e       	mov	r0, r23
    4aec:	00 0c       	add	r0, r0
    4aee:	88 0b       	sbc	r24, r24
    4af0:	99 0b       	sbc	r25, r25
    4af2:	1f d4       	rcall	.+2110   	; 0x5332 <__floatsisf>
    4af4:	9b 01       	movw	r18, r22
    4af6:	ac 01       	movw	r20, r24
    4af8:	c1 e0       	ldi	r28, 0x01	; 1
    4afa:	d8 01       	movw	r26, r16
    4afc:	16 96       	adiw	r26, 0x06	; 6
    4afe:	6d 91       	ld	r22, X+
    4b00:	7d 91       	ld	r23, X+
    4b02:	8d 91       	ld	r24, X+
    4b04:	9c 91       	ld	r25, X
    4b06:	19 97       	sbiw	r26, 0x09	; 9
    4b08:	75 d3       	rcall	.+1770   	; 0x51f4 <__cmpsf2>
    4b0a:	18 16       	cp	r1, r24
    4b0c:	0c f4       	brge	.+2      	; 0x4b10 <_ZleRK5ValueS1_+0xf0>
    4b0e:	c0 e0       	ldi	r28, 0x00	; 0
    4b10:	82 e0       	ldi	r24, 0x02	; 2
    4b12:	f7 01       	movw	r30, r14
    4b14:	87 af       	std	Z+63, r24	; 0x3f
    4b16:	d6 01       	movw	r26, r12
    4b18:	cc 93       	st	X, r28
    4b1a:	20 c0       	rjmp	.+64     	; 0x4b5c <_ZleRK5ValueS1_+0x13c>
    4b1c:	07 2e       	mov	r0, r23
    4b1e:	00 0c       	add	r0, r0
    4b20:	88 0b       	sbc	r24, r24
    4b22:	99 0b       	sbc	r25, r25
    4b24:	06 d4       	rcall	.+2060   	; 0x5332 <__floatsisf>
    4b26:	11 e0       	ldi	r17, 0x01	; 1
    4b28:	2e 81       	ldd	r18, Y+6	; 0x06
    4b2a:	3f 81       	ldd	r19, Y+7	; 0x07
    4b2c:	48 85       	ldd	r20, Y+8	; 0x08
    4b2e:	59 85       	ldd	r21, Y+9	; 0x09
    4b30:	61 d3       	rcall	.+1730   	; 0x51f4 <__cmpsf2>
    4b32:	18 16       	cp	r1, r24
    4b34:	0c f4       	brge	.+2      	; 0x4b38 <_ZleRK5ValueS1_+0x118>
    4b36:	10 e0       	ldi	r17, 0x00	; 0
    4b38:	82 e0       	ldi	r24, 0x02	; 2
    4b3a:	f7 01       	movw	r30, r14
    4b3c:	87 af       	std	Z+63, r24	; 0x3f
    4b3e:	d6 01       	movw	r26, r12
    4b40:	1c 93       	st	X, r17
    4b42:	0c c0       	rjmp	.+24     	; 0x4b5c <_ZleRK5ValueS1_+0x13c>
    4b44:	81 e0       	ldi	r24, 0x01	; 1
    4b46:	2c 81       	ldd	r18, Y+4	; 0x04
    4b48:	3d 81       	ldd	r19, Y+5	; 0x05
    4b4a:	26 17       	cp	r18, r22
    4b4c:	37 07       	cpc	r19, r23
    4b4e:	0c f4       	brge	.+2      	; 0x4b52 <_ZleRK5ValueS1_+0x132>
    4b50:	80 e0       	ldi	r24, 0x00	; 0
    4b52:	92 e0       	ldi	r25, 0x02	; 2
    4b54:	f7 01       	movw	r30, r14
    4b56:	97 af       	std	Z+63, r25	; 0x3f
    4b58:	d6 01       	movw	r26, r12
    4b5a:	8c 93       	st	X, r24
    4b5c:	c7 01       	movw	r24, r14
    4b5e:	df 91       	pop	r29
    4b60:	cf 91       	pop	r28
    4b62:	1f 91       	pop	r17
    4b64:	0f 91       	pop	r16
    4b66:	ff 90       	pop	r15
    4b68:	ef 90       	pop	r14
    4b6a:	df 90       	pop	r13
    4b6c:	cf 90       	pop	r12
    4b6e:	bf 90       	pop	r11
    4b70:	08 95       	ret

00004b72 <_ZgtRK5ValueS1_>:
    4b72:	bf 92       	push	r11
    4b74:	cf 92       	push	r12
    4b76:	df 92       	push	r13
    4b78:	ef 92       	push	r14
    4b7a:	ff 92       	push	r15
    4b7c:	0f 93       	push	r16
    4b7e:	1f 93       	push	r17
    4b80:	cf 93       	push	r28
    4b82:	df 93       	push	r29
    4b84:	7c 01       	movw	r14, r24
    4b86:	8b 01       	movw	r16, r22
    4b88:	ea 01       	movw	r28, r20
    4b8a:	db 01       	movw	r26, r22
    4b8c:	df 96       	adiw	r26, 0x3f	; 63
    4b8e:	9c 91       	ld	r25, X
    4b90:	df 97       	sbiw	r26, 0x3f	; 63
    4b92:	f7 01       	movw	r30, r14
    4b94:	e0 5c       	subi	r30, 0xC0	; 192
    4b96:	ff 4f       	sbci	r31, 0xFF	; 255
    4b98:	6f 01       	movw	r12, r30
    4b9a:	91 30       	cpi	r25, 0x01	; 1
    4b9c:	a9 f0       	breq	.+42     	; 0x4bc8 <_ZgtRK5ValueS1_+0x56>
    4b9e:	8f ad       	ldd	r24, Y+63	; 0x3f
    4ba0:	81 30       	cpi	r24, 0x01	; 1
    4ba2:	49 f5       	brne	.+82     	; 0x4bf6 <_ZgtRK5ValueS1_+0x84>
    4ba4:	91 11       	cpse	r25, r1
    4ba6:	10 c0       	rjmp	.+32     	; 0x4bc8 <_ZgtRK5ValueS1_+0x56>
    4ba8:	2a 96       	adiw	r28, 0x0a	; 10
    4baa:	fe 01       	movw	r30, r28
    4bac:	01 90       	ld	r0, Z+
    4bae:	00 20       	and	r0, r0
    4bb0:	e9 f7       	brne	.-6      	; 0x4bac <_ZgtRK5ValueS1_+0x3a>
    4bb2:	31 97       	sbiw	r30, 0x01	; 1
    4bb4:	ec 1b       	sub	r30, r28
    4bb6:	fd 0b       	sbc	r31, r29
    4bb8:	14 96       	adiw	r26, 0x04	; 4
    4bba:	2d 91       	ld	r18, X+
    4bbc:	3c 91       	ld	r19, X
    4bbe:	15 97       	sbiw	r26, 0x05	; 5
    4bc0:	e2 17       	cp	r30, r18
    4bc2:	f3 07       	cpc	r31, r19
    4bc4:	8c f0       	brlt	.+34     	; 0x4be8 <_ZgtRK5ValueS1_+0x76>
    4bc6:	0f c0       	rjmp	.+30     	; 0x4be6 <_ZgtRK5ValueS1_+0x74>
    4bc8:	d8 01       	movw	r26, r16
    4bca:	1a 96       	adiw	r26, 0x0a	; 10
    4bcc:	fd 01       	movw	r30, r26
    4bce:	01 90       	ld	r0, Z+
    4bd0:	00 20       	and	r0, r0
    4bd2:	e9 f7       	brne	.-6      	; 0x4bce <_ZgtRK5ValueS1_+0x5c>
    4bd4:	31 97       	sbiw	r30, 0x01	; 1
    4bd6:	ea 1b       	sub	r30, r26
    4bd8:	fb 0b       	sbc	r31, r27
    4bda:	81 e0       	ldi	r24, 0x01	; 1
    4bdc:	2c 81       	ldd	r18, Y+4	; 0x04
    4bde:	3d 81       	ldd	r19, Y+5	; 0x05
    4be0:	2e 17       	cp	r18, r30
    4be2:	3f 07       	cpc	r19, r31
    4be4:	0c f0       	brlt	.+2      	; 0x4be8 <_ZgtRK5ValueS1_+0x76>
    4be6:	80 e0       	ldi	r24, 0x00	; 0
    4be8:	92 e0       	ldi	r25, 0x02	; 2
    4bea:	d7 01       	movw	r26, r14
    4bec:	df 96       	adiw	r26, 0x3f	; 63
    4bee:	9c 93       	st	X, r25
    4bf0:	f6 01       	movw	r30, r12
    4bf2:	80 83       	st	Z, r24
    4bf4:	5c c0       	rjmp	.+184    	; 0x4cae <_ZgtRK5ValueS1_+0x13c>
    4bf6:	93 30       	cpi	r25, 0x03	; 3
    4bf8:	c9 f4       	brne	.+50     	; 0x4c2c <_ZgtRK5ValueS1_+0xba>
    4bfa:	83 30       	cpi	r24, 0x03	; 3
    4bfc:	e9 f4       	brne	.+58     	; 0x4c38 <_ZgtRK5ValueS1_+0xc6>
    4bfe:	bb 24       	eor	r11, r11
    4c00:	b3 94       	inc	r11
    4c02:	2e 81       	ldd	r18, Y+6	; 0x06
    4c04:	3f 81       	ldd	r19, Y+7	; 0x07
    4c06:	48 85       	ldd	r20, Y+8	; 0x08
    4c08:	59 85       	ldd	r21, Y+9	; 0x09
    4c0a:	db 01       	movw	r26, r22
    4c0c:	16 96       	adiw	r26, 0x06	; 6
    4c0e:	6d 91       	ld	r22, X+
    4c10:	7d 91       	ld	r23, X+
    4c12:	8d 91       	ld	r24, X+
    4c14:	9c 91       	ld	r25, X
    4c16:	19 97       	sbiw	r26, 0x09	; 9
    4c18:	3c d4       	rcall	.+2168   	; 0x5492 <__gesf2>
    4c1a:	18 16       	cp	r1, r24
    4c1c:	0c f0       	brlt	.+2      	; 0x4c20 <_ZgtRK5ValueS1_+0xae>
    4c1e:	b1 2c       	mov	r11, r1
    4c20:	82 e0       	ldi	r24, 0x02	; 2
    4c22:	f7 01       	movw	r30, r14
    4c24:	87 af       	std	Z+63, r24	; 0x3f
    4c26:	d6 01       	movw	r26, r12
    4c28:	bc 92       	st	X, r11
    4c2a:	41 c0       	rjmp	.+130    	; 0x4cae <_ZgtRK5ValueS1_+0x13c>
    4c2c:	fb 01       	movw	r30, r22
    4c2e:	64 81       	ldd	r22, Z+4	; 0x04
    4c30:	75 81       	ldd	r23, Z+5	; 0x05
    4c32:	83 30       	cpi	r24, 0x03	; 3
    4c34:	81 f5       	brne	.+96     	; 0x4c96 <_ZgtRK5ValueS1_+0x124>
    4c36:	1b c0       	rjmp	.+54     	; 0x4c6e <_ZgtRK5ValueS1_+0xfc>
    4c38:	6c 81       	ldd	r22, Y+4	; 0x04
    4c3a:	7d 81       	ldd	r23, Y+5	; 0x05
    4c3c:	07 2e       	mov	r0, r23
    4c3e:	00 0c       	add	r0, r0
    4c40:	88 0b       	sbc	r24, r24
    4c42:	99 0b       	sbc	r25, r25
    4c44:	76 d3       	rcall	.+1772   	; 0x5332 <__floatsisf>
    4c46:	9b 01       	movw	r18, r22
    4c48:	ac 01       	movw	r20, r24
    4c4a:	c1 e0       	ldi	r28, 0x01	; 1
    4c4c:	d8 01       	movw	r26, r16
    4c4e:	16 96       	adiw	r26, 0x06	; 6
    4c50:	6d 91       	ld	r22, X+
    4c52:	7d 91       	ld	r23, X+
    4c54:	8d 91       	ld	r24, X+
    4c56:	9c 91       	ld	r25, X
    4c58:	19 97       	sbiw	r26, 0x09	; 9
    4c5a:	1b d4       	rcall	.+2102   	; 0x5492 <__gesf2>
    4c5c:	18 16       	cp	r1, r24
    4c5e:	0c f0       	brlt	.+2      	; 0x4c62 <_ZgtRK5ValueS1_+0xf0>
    4c60:	c0 e0       	ldi	r28, 0x00	; 0
    4c62:	82 e0       	ldi	r24, 0x02	; 2
    4c64:	f7 01       	movw	r30, r14
    4c66:	87 af       	std	Z+63, r24	; 0x3f
    4c68:	d6 01       	movw	r26, r12
    4c6a:	cc 93       	st	X, r28
    4c6c:	20 c0       	rjmp	.+64     	; 0x4cae <_ZgtRK5ValueS1_+0x13c>
    4c6e:	07 2e       	mov	r0, r23
    4c70:	00 0c       	add	r0, r0
    4c72:	88 0b       	sbc	r24, r24
    4c74:	99 0b       	sbc	r25, r25
    4c76:	5d d3       	rcall	.+1722   	; 0x5332 <__floatsisf>
    4c78:	11 e0       	ldi	r17, 0x01	; 1
    4c7a:	2e 81       	ldd	r18, Y+6	; 0x06
    4c7c:	3f 81       	ldd	r19, Y+7	; 0x07
    4c7e:	48 85       	ldd	r20, Y+8	; 0x08
    4c80:	59 85       	ldd	r21, Y+9	; 0x09
    4c82:	07 d4       	rcall	.+2062   	; 0x5492 <__gesf2>
    4c84:	18 16       	cp	r1, r24
    4c86:	0c f0       	brlt	.+2      	; 0x4c8a <_ZgtRK5ValueS1_+0x118>
    4c88:	10 e0       	ldi	r17, 0x00	; 0
    4c8a:	82 e0       	ldi	r24, 0x02	; 2
    4c8c:	f7 01       	movw	r30, r14
    4c8e:	87 af       	std	Z+63, r24	; 0x3f
    4c90:	d6 01       	movw	r26, r12
    4c92:	1c 93       	st	X, r17
    4c94:	0c c0       	rjmp	.+24     	; 0x4cae <_ZgtRK5ValueS1_+0x13c>
    4c96:	81 e0       	ldi	r24, 0x01	; 1
    4c98:	2c 81       	ldd	r18, Y+4	; 0x04
    4c9a:	3d 81       	ldd	r19, Y+5	; 0x05
    4c9c:	26 17       	cp	r18, r22
    4c9e:	37 07       	cpc	r19, r23
    4ca0:	0c f0       	brlt	.+2      	; 0x4ca4 <_ZgtRK5ValueS1_+0x132>
    4ca2:	80 e0       	ldi	r24, 0x00	; 0
    4ca4:	92 e0       	ldi	r25, 0x02	; 2
    4ca6:	f7 01       	movw	r30, r14
    4ca8:	97 af       	std	Z+63, r25	; 0x3f
    4caa:	d6 01       	movw	r26, r12
    4cac:	8c 93       	st	X, r24
    4cae:	c7 01       	movw	r24, r14
    4cb0:	df 91       	pop	r29
    4cb2:	cf 91       	pop	r28
    4cb4:	1f 91       	pop	r17
    4cb6:	0f 91       	pop	r16
    4cb8:	ff 90       	pop	r15
    4cba:	ef 90       	pop	r14
    4cbc:	df 90       	pop	r13
    4cbe:	cf 90       	pop	r12
    4cc0:	bf 90       	pop	r11
    4cc2:	08 95       	ret

00004cc4 <_ZgeRK5ValueS1_>:
    4cc4:	bf 92       	push	r11
    4cc6:	cf 92       	push	r12
    4cc8:	df 92       	push	r13
    4cca:	ef 92       	push	r14
    4ccc:	ff 92       	push	r15
    4cce:	0f 93       	push	r16
    4cd0:	1f 93       	push	r17
    4cd2:	cf 93       	push	r28
    4cd4:	df 93       	push	r29
    4cd6:	7c 01       	movw	r14, r24
    4cd8:	8b 01       	movw	r16, r22
    4cda:	ea 01       	movw	r28, r20
    4cdc:	db 01       	movw	r26, r22
    4cde:	df 96       	adiw	r26, 0x3f	; 63
    4ce0:	9c 91       	ld	r25, X
    4ce2:	df 97       	sbiw	r26, 0x3f	; 63
    4ce4:	f7 01       	movw	r30, r14
    4ce6:	e0 5c       	subi	r30, 0xC0	; 192
    4ce8:	ff 4f       	sbci	r31, 0xFF	; 255
    4cea:	6f 01       	movw	r12, r30
    4cec:	91 30       	cpi	r25, 0x01	; 1
    4cee:	a9 f0       	breq	.+42     	; 0x4d1a <_ZgeRK5ValueS1_+0x56>
    4cf0:	8f ad       	ldd	r24, Y+63	; 0x3f
    4cf2:	81 30       	cpi	r24, 0x01	; 1
    4cf4:	49 f5       	brne	.+82     	; 0x4d48 <_ZgeRK5ValueS1_+0x84>
    4cf6:	91 11       	cpse	r25, r1
    4cf8:	10 c0       	rjmp	.+32     	; 0x4d1a <_ZgeRK5ValueS1_+0x56>
    4cfa:	2a 96       	adiw	r28, 0x0a	; 10
    4cfc:	fe 01       	movw	r30, r28
    4cfe:	01 90       	ld	r0, Z+
    4d00:	00 20       	and	r0, r0
    4d02:	e9 f7       	brne	.-6      	; 0x4cfe <_ZgeRK5ValueS1_+0x3a>
    4d04:	31 97       	sbiw	r30, 0x01	; 1
    4d06:	ec 1b       	sub	r30, r28
    4d08:	fd 0b       	sbc	r31, r29
    4d0a:	14 96       	adiw	r26, 0x04	; 4
    4d0c:	2d 91       	ld	r18, X+
    4d0e:	3c 91       	ld	r19, X
    4d10:	15 97       	sbiw	r26, 0x05	; 5
    4d12:	2e 17       	cp	r18, r30
    4d14:	3f 07       	cpc	r19, r31
    4d16:	8c f4       	brge	.+34     	; 0x4d3a <_ZgeRK5ValueS1_+0x76>
    4d18:	0f c0       	rjmp	.+30     	; 0x4d38 <_ZgeRK5ValueS1_+0x74>
    4d1a:	d8 01       	movw	r26, r16
    4d1c:	1a 96       	adiw	r26, 0x0a	; 10
    4d1e:	fd 01       	movw	r30, r26
    4d20:	01 90       	ld	r0, Z+
    4d22:	00 20       	and	r0, r0
    4d24:	e9 f7       	brne	.-6      	; 0x4d20 <_ZgeRK5ValueS1_+0x5c>
    4d26:	31 97       	sbiw	r30, 0x01	; 1
    4d28:	ea 1b       	sub	r30, r26
    4d2a:	fb 0b       	sbc	r31, r27
    4d2c:	81 e0       	ldi	r24, 0x01	; 1
    4d2e:	2c 81       	ldd	r18, Y+4	; 0x04
    4d30:	3d 81       	ldd	r19, Y+5	; 0x05
    4d32:	e2 17       	cp	r30, r18
    4d34:	f3 07       	cpc	r31, r19
    4d36:	0c f4       	brge	.+2      	; 0x4d3a <_ZgeRK5ValueS1_+0x76>
    4d38:	80 e0       	ldi	r24, 0x00	; 0
    4d3a:	92 e0       	ldi	r25, 0x02	; 2
    4d3c:	d7 01       	movw	r26, r14
    4d3e:	df 96       	adiw	r26, 0x3f	; 63
    4d40:	9c 93       	st	X, r25
    4d42:	f6 01       	movw	r30, r12
    4d44:	80 83       	st	Z, r24
    4d46:	59 c0       	rjmp	.+178    	; 0x4dfa <_ZgeRK5ValueS1_+0x136>
    4d48:	93 30       	cpi	r25, 0x03	; 3
    4d4a:	c1 f4       	brne	.+48     	; 0x4d7c <_ZgeRK5ValueS1_+0xb8>
    4d4c:	83 30       	cpi	r24, 0x03	; 3
    4d4e:	e1 f4       	brne	.+56     	; 0x4d88 <_ZgeRK5ValueS1_+0xc4>
    4d50:	bb 24       	eor	r11, r11
    4d52:	b3 94       	inc	r11
    4d54:	2e 81       	ldd	r18, Y+6	; 0x06
    4d56:	3f 81       	ldd	r19, Y+7	; 0x07
    4d58:	48 85       	ldd	r20, Y+8	; 0x08
    4d5a:	59 85       	ldd	r21, Y+9	; 0x09
    4d5c:	db 01       	movw	r26, r22
    4d5e:	16 96       	adiw	r26, 0x06	; 6
    4d60:	6d 91       	ld	r22, X+
    4d62:	7d 91       	ld	r23, X+
    4d64:	8d 91       	ld	r24, X+
    4d66:	9c 91       	ld	r25, X
    4d68:	19 97       	sbiw	r26, 0x09	; 9
    4d6a:	93 d3       	rcall	.+1830   	; 0x5492 <__gesf2>
    4d6c:	87 fd       	sbrc	r24, 7
    4d6e:	b1 2c       	mov	r11, r1
    4d70:	82 e0       	ldi	r24, 0x02	; 2
    4d72:	f7 01       	movw	r30, r14
    4d74:	87 af       	std	Z+63, r24	; 0x3f
    4d76:	d6 01       	movw	r26, r12
    4d78:	bc 92       	st	X, r11
    4d7a:	3f c0       	rjmp	.+126    	; 0x4dfa <_ZgeRK5ValueS1_+0x136>
    4d7c:	fb 01       	movw	r30, r22
    4d7e:	64 81       	ldd	r22, Z+4	; 0x04
    4d80:	75 81       	ldd	r23, Z+5	; 0x05
    4d82:	83 30       	cpi	r24, 0x03	; 3
    4d84:	71 f5       	brne	.+92     	; 0x4de2 <_ZgeRK5ValueS1_+0x11e>
    4d86:	1a c0       	rjmp	.+52     	; 0x4dbc <_ZgeRK5ValueS1_+0xf8>
    4d88:	6c 81       	ldd	r22, Y+4	; 0x04
    4d8a:	7d 81       	ldd	r23, Y+5	; 0x05
    4d8c:	07 2e       	mov	r0, r23
    4d8e:	00 0c       	add	r0, r0
    4d90:	88 0b       	sbc	r24, r24
    4d92:	99 0b       	sbc	r25, r25
    4d94:	ce d2       	rcall	.+1436   	; 0x5332 <__floatsisf>
    4d96:	9b 01       	movw	r18, r22
    4d98:	ac 01       	movw	r20, r24
    4d9a:	c1 e0       	ldi	r28, 0x01	; 1
    4d9c:	d8 01       	movw	r26, r16
    4d9e:	16 96       	adiw	r26, 0x06	; 6
    4da0:	6d 91       	ld	r22, X+
    4da2:	7d 91       	ld	r23, X+
    4da4:	8d 91       	ld	r24, X+
    4da6:	9c 91       	ld	r25, X
    4da8:	19 97       	sbiw	r26, 0x09	; 9
    4daa:	73 d3       	rcall	.+1766   	; 0x5492 <__gesf2>
    4dac:	87 fd       	sbrc	r24, 7
    4dae:	c0 e0       	ldi	r28, 0x00	; 0
    4db0:	82 e0       	ldi	r24, 0x02	; 2
    4db2:	f7 01       	movw	r30, r14
    4db4:	87 af       	std	Z+63, r24	; 0x3f
    4db6:	d6 01       	movw	r26, r12
    4db8:	cc 93       	st	X, r28
    4dba:	1f c0       	rjmp	.+62     	; 0x4dfa <_ZgeRK5ValueS1_+0x136>
    4dbc:	07 2e       	mov	r0, r23
    4dbe:	00 0c       	add	r0, r0
    4dc0:	88 0b       	sbc	r24, r24
    4dc2:	99 0b       	sbc	r25, r25
    4dc4:	b6 d2       	rcall	.+1388   	; 0x5332 <__floatsisf>
    4dc6:	11 e0       	ldi	r17, 0x01	; 1
    4dc8:	2e 81       	ldd	r18, Y+6	; 0x06
    4dca:	3f 81       	ldd	r19, Y+7	; 0x07
    4dcc:	48 85       	ldd	r20, Y+8	; 0x08
    4dce:	59 85       	ldd	r21, Y+9	; 0x09
    4dd0:	60 d3       	rcall	.+1728   	; 0x5492 <__gesf2>
    4dd2:	87 fd       	sbrc	r24, 7
    4dd4:	10 e0       	ldi	r17, 0x00	; 0
    4dd6:	82 e0       	ldi	r24, 0x02	; 2
    4dd8:	f7 01       	movw	r30, r14
    4dda:	87 af       	std	Z+63, r24	; 0x3f
    4ddc:	d6 01       	movw	r26, r12
    4dde:	1c 93       	st	X, r17
    4de0:	0c c0       	rjmp	.+24     	; 0x4dfa <_ZgeRK5ValueS1_+0x136>
    4de2:	81 e0       	ldi	r24, 0x01	; 1
    4de4:	2c 81       	ldd	r18, Y+4	; 0x04
    4de6:	3d 81       	ldd	r19, Y+5	; 0x05
    4de8:	62 17       	cp	r22, r18
    4dea:	73 07       	cpc	r23, r19
    4dec:	0c f4       	brge	.+2      	; 0x4df0 <_ZgeRK5ValueS1_+0x12c>
    4dee:	80 e0       	ldi	r24, 0x00	; 0
    4df0:	92 e0       	ldi	r25, 0x02	; 2
    4df2:	f7 01       	movw	r30, r14
    4df4:	97 af       	std	Z+63, r25	; 0x3f
    4df6:	d6 01       	movw	r26, r12
    4df8:	8c 93       	st	X, r24
    4dfa:	c7 01       	movw	r24, r14
    4dfc:	df 91       	pop	r29
    4dfe:	cf 91       	pop	r28
    4e00:	1f 91       	pop	r17
    4e02:	0f 91       	pop	r16
    4e04:	ff 90       	pop	r15
    4e06:	ef 90       	pop	r14
    4e08:	df 90       	pop	r13
    4e0a:	cf 90       	pop	r12
    4e0c:	bf 90       	pop	r11
    4e0e:	08 95       	ret

00004e10 <_ZpsRK5Value>:
    4e10:	0f 93       	push	r16
    4e12:	1f 93       	push	r17
    4e14:	cf 93       	push	r28
    4e16:	df 93       	push	r29
    4e18:	cd b7       	in	r28, 0x3d	; 61
    4e1a:	de b7       	in	r29, 0x3e	; 62
    4e1c:	c1 54       	subi	r28, 0x41	; 65
    4e1e:	d1 09       	sbc	r29, r1
    4e20:	0f b6       	in	r0, 0x3f	; 63
    4e22:	f8 94       	cli
    4e24:	de bf       	out	0x3e, r29	; 62
    4e26:	0f be       	out	0x3f, r0	; 63
    4e28:	cd bf       	out	0x3d, r28	; 61
    4e2a:	8c 01       	movw	r16, r24
    4e2c:	fb 01       	movw	r30, r22
    4e2e:	87 ad       	ldd	r24, Z+63	; 0x3f
    4e30:	81 30       	cpi	r24, 0x01	; 1
    4e32:	39 f4       	brne	.+14     	; 0x4e42 <_ZpsRK5Value+0x32>
    4e34:	66 5f       	subi	r22, 0xF6	; 246
    4e36:	7f 4f       	sbci	r23, 0xFF	; 255
    4e38:	ce 01       	movw	r24, r28
    4e3a:	01 96       	adiw	r24, 0x01	; 1
    4e3c:	0e 94 d7 1b 	call	0x37ae	; 0x37ae <_ZN5ValueC1EPKc>
    4e40:	13 c0       	rjmp	.+38     	; 0x4e68 <_ZpsRK5Value+0x58>
    4e42:	83 30       	cpi	r24, 0x03	; 3
    4e44:	59 f4       	brne	.+22     	; 0x4e5c <_ZpsRK5Value+0x4c>
    4e46:	46 81       	ldd	r20, Z+6	; 0x06
    4e48:	57 81       	ldd	r21, Z+7	; 0x07
    4e4a:	60 85       	ldd	r22, Z+8	; 0x08
    4e4c:	71 85       	ldd	r23, Z+9	; 0x09
    4e4e:	f8 01       	movw	r30, r16
    4e50:	46 83       	std	Z+6, r20	; 0x06
    4e52:	57 83       	std	Z+7, r21	; 0x07
    4e54:	60 87       	std	Z+8, r22	; 0x08
    4e56:	71 87       	std	Z+9, r23	; 0x09
    4e58:	87 af       	std	Z+63, r24	; 0x3f
    4e5a:	0e c0       	rjmp	.+28     	; 0x4e78 <_ZpsRK5Value+0x68>
    4e5c:	64 81       	ldd	r22, Z+4	; 0x04
    4e5e:	75 81       	ldd	r23, Z+5	; 0x05
    4e60:	ce 01       	movw	r24, r28
    4e62:	01 96       	adiw	r24, 0x01	; 1
    4e64:	0e 94 9f 1b 	call	0x373e	; 0x373e <_ZN5ValueC1Ei>
    4e68:	81 e4       	ldi	r24, 0x41	; 65
    4e6a:	fe 01       	movw	r30, r28
    4e6c:	31 96       	adiw	r30, 0x01	; 1
    4e6e:	d8 01       	movw	r26, r16
    4e70:	01 90       	ld	r0, Z+
    4e72:	0d 92       	st	X+, r0
    4e74:	8a 95       	dec	r24
    4e76:	e1 f7       	brne	.-8      	; 0x4e70 <_ZpsRK5Value+0x60>
    4e78:	c8 01       	movw	r24, r16
    4e7a:	cf 5b       	subi	r28, 0xBF	; 191
    4e7c:	df 4f       	sbci	r29, 0xFF	; 255
    4e7e:	0f b6       	in	r0, 0x3f	; 63
    4e80:	f8 94       	cli
    4e82:	de bf       	out	0x3e, r29	; 62
    4e84:	0f be       	out	0x3f, r0	; 63
    4e86:	cd bf       	out	0x3d, r28	; 61
    4e88:	df 91       	pop	r29
    4e8a:	cf 91       	pop	r28
    4e8c:	1f 91       	pop	r17
    4e8e:	0f 91       	pop	r16
    4e90:	08 95       	ret

00004e92 <_ZngRK5Value>:
    4e92:	0f 93       	push	r16
    4e94:	1f 93       	push	r17
    4e96:	cf 93       	push	r28
    4e98:	df 93       	push	r29
    4e9a:	cd b7       	in	r28, 0x3d	; 61
    4e9c:	de b7       	in	r29, 0x3e	; 62
    4e9e:	c1 54       	subi	r28, 0x41	; 65
    4ea0:	d1 09       	sbc	r29, r1
    4ea2:	0f b6       	in	r0, 0x3f	; 63
    4ea4:	f8 94       	cli
    4ea6:	de bf       	out	0x3e, r29	; 62
    4ea8:	0f be       	out	0x3f, r0	; 63
    4eaa:	cd bf       	out	0x3d, r28	; 61
    4eac:	8c 01       	movw	r16, r24
    4eae:	fb 01       	movw	r30, r22
    4eb0:	87 ad       	ldd	r24, Z+63	; 0x3f
    4eb2:	81 30       	cpi	r24, 0x01	; 1
    4eb4:	39 f4       	brne	.+14     	; 0x4ec4 <_ZngRK5Value+0x32>
    4eb6:	66 5f       	subi	r22, 0xF6	; 246
    4eb8:	7f 4f       	sbci	r23, 0xFF	; 255
    4eba:	ce 01       	movw	r24, r28
    4ebc:	01 96       	adiw	r24, 0x01	; 1
    4ebe:	0e 94 d7 1b 	call	0x37ae	; 0x37ae <_ZN5ValueC1EPKc>
    4ec2:	17 c0       	rjmp	.+46     	; 0x4ef2 <_ZngRK5Value+0x60>
    4ec4:	83 30       	cpi	r24, 0x03	; 3
    4ec6:	61 f4       	brne	.+24     	; 0x4ee0 <_ZngRK5Value+0x4e>
    4ec8:	46 81       	ldd	r20, Z+6	; 0x06
    4eca:	57 81       	ldd	r21, Z+7	; 0x07
    4ecc:	60 85       	ldd	r22, Z+8	; 0x08
    4ece:	71 85       	ldd	r23, Z+9	; 0x09
    4ed0:	70 58       	subi	r23, 0x80	; 128
    4ed2:	f8 01       	movw	r30, r16
    4ed4:	46 83       	std	Z+6, r20	; 0x06
    4ed6:	57 83       	std	Z+7, r21	; 0x07
    4ed8:	60 87       	std	Z+8, r22	; 0x08
    4eda:	71 87       	std	Z+9, r23	; 0x09
    4edc:	87 af       	std	Z+63, r24	; 0x3f
    4ede:	11 c0       	rjmp	.+34     	; 0x4f02 <_ZngRK5Value+0x70>
    4ee0:	64 81       	ldd	r22, Z+4	; 0x04
    4ee2:	75 81       	ldd	r23, Z+5	; 0x05
    4ee4:	71 95       	neg	r23
    4ee6:	61 95       	neg	r22
    4ee8:	71 09       	sbc	r23, r1
    4eea:	ce 01       	movw	r24, r28
    4eec:	01 96       	adiw	r24, 0x01	; 1
    4eee:	0e 94 9f 1b 	call	0x373e	; 0x373e <_ZN5ValueC1Ei>
    4ef2:	81 e4       	ldi	r24, 0x41	; 65
    4ef4:	fe 01       	movw	r30, r28
    4ef6:	31 96       	adiw	r30, 0x01	; 1
    4ef8:	d8 01       	movw	r26, r16
    4efa:	01 90       	ld	r0, Z+
    4efc:	0d 92       	st	X+, r0
    4efe:	8a 95       	dec	r24
    4f00:	e1 f7       	brne	.-8      	; 0x4efa <_ZngRK5Value+0x68>
    4f02:	c8 01       	movw	r24, r16
    4f04:	cf 5b       	subi	r28, 0xBF	; 191
    4f06:	df 4f       	sbci	r29, 0xFF	; 255
    4f08:	0f b6       	in	r0, 0x3f	; 63
    4f0a:	f8 94       	cli
    4f0c:	de bf       	out	0x3e, r29	; 62
    4f0e:	0f be       	out	0x3f, r0	; 63
    4f10:	cd bf       	out	0x3d, r28	; 61
    4f12:	df 91       	pop	r29
    4f14:	cf 91       	pop	r28
    4f16:	1f 91       	pop	r17
    4f18:	0f 91       	pop	r16
    4f1a:	08 95       	ret

00004f1c <_ZN5Value9ToBooleanEv>:
    4f1c:	cf 93       	push	r28
    4f1e:	fc 01       	movw	r30, r24
    4f20:	27 ad       	ldd	r18, Z+63	; 0x3f
    4f22:	21 30       	cpi	r18, 0x01	; 1
    4f24:	e9 f0       	breq	.+58     	; 0x4f60 <_ZN5Value9ToBooleanEv+0x44>
    4f26:	22 30       	cpi	r18, 0x02	; 2
    4f28:	21 f4       	brne	.+8      	; 0x4f32 <_ZN5Value9ToBooleanEv+0x16>
    4f2a:	e0 5c       	subi	r30, 0xC0	; 192
    4f2c:	ff 4f       	sbci	r31, 0xFF	; 255
    4f2e:	c0 81       	ld	r28, Z
    4f30:	18 c0       	rjmp	.+48     	; 0x4f62 <_ZN5Value9ToBooleanEv+0x46>
    4f32:	23 30       	cpi	r18, 0x03	; 3
    4f34:	69 f4       	brne	.+26     	; 0x4f50 <_ZN5Value9ToBooleanEv+0x34>
    4f36:	fc 01       	movw	r30, r24
    4f38:	c1 e0       	ldi	r28, 0x01	; 1
    4f3a:	20 e0       	ldi	r18, 0x00	; 0
    4f3c:	30 e0       	ldi	r19, 0x00	; 0
    4f3e:	a9 01       	movw	r20, r18
    4f40:	66 81       	ldd	r22, Z+6	; 0x06
    4f42:	77 81       	ldd	r23, Z+7	; 0x07
    4f44:	80 85       	ldd	r24, Z+8	; 0x08
    4f46:	91 85       	ldd	r25, Z+9	; 0x09
    4f48:	55 d1       	rcall	.+682    	; 0x51f4 <__cmpsf2>
    4f4a:	81 11       	cpse	r24, r1
    4f4c:	0a c0       	rjmp	.+20     	; 0x4f62 <_ZN5Value9ToBooleanEv+0x46>
    4f4e:	06 c0       	rjmp	.+12     	; 0x4f5c <_ZN5Value9ToBooleanEv+0x40>
    4f50:	c1 e0       	ldi	r28, 0x01	; 1
    4f52:	fc 01       	movw	r30, r24
    4f54:	84 81       	ldd	r24, Z+4	; 0x04
    4f56:	95 81       	ldd	r25, Z+5	; 0x05
    4f58:	89 2b       	or	r24, r25
    4f5a:	19 f4       	brne	.+6      	; 0x4f62 <_ZN5Value9ToBooleanEv+0x46>
    4f5c:	c0 e0       	ldi	r28, 0x00	; 0
    4f5e:	01 c0       	rjmp	.+2      	; 0x4f62 <_ZN5Value9ToBooleanEv+0x46>
    4f60:	c1 e0       	ldi	r28, 0x01	; 1
    4f62:	8c 2f       	mov	r24, r28
    4f64:	cf 91       	pop	r28
    4f66:	08 95       	ret

00004f68 <_ZN5Value5ToIntEv>:
    4f68:	fc 01       	movw	r30, r24
    4f6a:	27 ad       	ldd	r18, Z+63	; 0x3f
    4f6c:	21 30       	cpi	r18, 0x01	; 1
    4f6e:	19 f4       	brne	.+6      	; 0x4f76 <_ZN5Value5ToIntEv+0xe>
    4f70:	0a 96       	adiw	r24, 0x0a	; 10
    4f72:	0c 94 af 30 	jmp	0x615e	; 0x615e <atoi>
    4f76:	fc 01       	movw	r30, r24
    4f78:	22 30       	cpi	r18, 0x02	; 2
    4f7a:	31 f4       	brne	.+12     	; 0x4f88 <_ZN5Value5ToIntEv+0x20>
    4f7c:	e0 5c       	subi	r30, 0xC0	; 192
    4f7e:	ff 4f       	sbci	r31, 0xFF	; 255
    4f80:	60 81       	ld	r22, Z
    4f82:	86 2f       	mov	r24, r22
    4f84:	90 e0       	ldi	r25, 0x00	; 0
    4f86:	08 95       	ret
    4f88:	23 30       	cpi	r18, 0x03	; 3
    4f8a:	39 f4       	brne	.+14     	; 0x4f9a <_ZN5Value5ToIntEv+0x32>
    4f8c:	66 81       	ldd	r22, Z+6	; 0x06
    4f8e:	77 81       	ldd	r23, Z+7	; 0x07
    4f90:	80 85       	ldd	r24, Z+8	; 0x08
    4f92:	91 85       	ldd	r25, Z+9	; 0x09
    4f94:	9b d1       	rcall	.+822    	; 0x52cc <__fixsfsi>
    4f96:	cb 01       	movw	r24, r22
    4f98:	08 95       	ret
    4f9a:	84 81       	ldd	r24, Z+4	; 0x04
    4f9c:	95 81       	ldd	r25, Z+5	; 0x05
    4f9e:	08 95       	ret

00004fa0 <_ZN5Value8ToDoubleEv>:
    4fa0:	fc 01       	movw	r30, r24
    4fa2:	27 ad       	ldd	r18, Z+63	; 0x3f
    4fa4:	21 30       	cpi	r18, 0x01	; 1
    4fa6:	19 f4       	brne	.+6      	; 0x4fae <_ZN5Value8ToDoubleEv+0xe>
    4fa8:	0a 96       	adiw	r24, 0x0a	; 10
    4faa:	0c 94 ac 30 	jmp	0x6158	; 0x6158 <atof>
    4fae:	fc 01       	movw	r30, r24
    4fb0:	22 30       	cpi	r18, 0x02	; 2
    4fb2:	49 f4       	brne	.+18     	; 0x4fc6 <_ZN5Value8ToDoubleEv+0x26>
    4fb4:	e0 5c       	subi	r30, 0xC0	; 192
    4fb6:	ff 4f       	sbci	r31, 0xFF	; 255
    4fb8:	80 81       	ld	r24, Z
    4fba:	81 11       	cpse	r24, r1
    4fbc:	12 c0       	rjmp	.+36     	; 0x4fe2 <_ZN5Value8ToDoubleEv+0x42>
    4fbe:	60 e0       	ldi	r22, 0x00	; 0
    4fc0:	70 e0       	ldi	r23, 0x00	; 0
    4fc2:	cb 01       	movw	r24, r22
    4fc4:	08 95       	ret
    4fc6:	23 30       	cpi	r18, 0x03	; 3
    4fc8:	29 f4       	brne	.+10     	; 0x4fd4 <_ZN5Value8ToDoubleEv+0x34>
    4fca:	66 81       	ldd	r22, Z+6	; 0x06
    4fcc:	77 81       	ldd	r23, Z+7	; 0x07
    4fce:	80 85       	ldd	r24, Z+8	; 0x08
    4fd0:	91 85       	ldd	r25, Z+9	; 0x09
    4fd2:	08 95       	ret
    4fd4:	64 81       	ldd	r22, Z+4	; 0x04
    4fd6:	75 81       	ldd	r23, Z+5	; 0x05
    4fd8:	07 2e       	mov	r0, r23
    4fda:	00 0c       	add	r0, r0
    4fdc:	88 0b       	sbc	r24, r24
    4fde:	99 0b       	sbc	r25, r25
    4fe0:	a8 c1       	rjmp	.+848    	; 0x5332 <__floatsisf>
    4fe2:	60 e0       	ldi	r22, 0x00	; 0
    4fe4:	70 e0       	ldi	r23, 0x00	; 0
    4fe6:	80 e8       	ldi	r24, 0x80	; 128
    4fe8:	9f e3       	ldi	r25, 0x3F	; 63
    4fea:	08 95       	ret

00004fec <_ZN5Value8ToStringEv>:
    4fec:	cf 93       	push	r28
    4fee:	df 93       	push	r29
    4ff0:	fc 01       	movw	r30, r24
    4ff2:	27 ad       	ldd	r18, Z+63	; 0x3f
    4ff4:	21 30       	cpi	r18, 0x01	; 1
    4ff6:	11 f4       	brne	.+4      	; 0x4ffc <_ZN5Value8ToStringEv+0x10>
    4ff8:	0a 96       	adiw	r24, 0x0a	; 10
    4ffa:	3e c0       	rjmp	.+124    	; 0x5078 <_ZN5Value8ToStringEv+0x8c>
    4ffc:	fc 01       	movw	r30, r24
    4ffe:	22 30       	cpi	r18, 0x02	; 2
    5000:	41 f4       	brne	.+16     	; 0x5012 <_ZN5Value8ToStringEv+0x26>
    5002:	e0 5c       	subi	r30, 0xC0	; 192
    5004:	ff 4f       	sbci	r31, 0xFF	; 255
    5006:	80 81       	ld	r24, Z
    5008:	81 11       	cpse	r24, r1
    500a:	34 c0       	rjmp	.+104    	; 0x5074 <_ZN5Value8ToStringEv+0x88>
    500c:	8f e8       	ldi	r24, 0x8F	; 143
    500e:	92 e0       	ldi	r25, 0x02	; 2
    5010:	33 c0       	rjmp	.+102    	; 0x5078 <_ZN5Value8ToStringEv+0x8c>
    5012:	ec 01       	movw	r28, r24
    5014:	2a 96       	adiw	r28, 0x0a	; 10
    5016:	23 30       	cpi	r18, 0x03	; 3
    5018:	c9 f4       	brne	.+50     	; 0x504c <_ZN5Value8ToStringEv+0x60>
    501a:	81 85       	ldd	r24, Z+9	; 0x09
    501c:	8f 93       	push	r24
    501e:	80 85       	ldd	r24, Z+8	; 0x08
    5020:	8f 93       	push	r24
    5022:	87 81       	ldd	r24, Z+7	; 0x07
    5024:	8f 93       	push	r24
    5026:	86 81       	ldd	r24, Z+6	; 0x06
    5028:	8f 93       	push	r24
    502a:	83 e5       	ldi	r24, 0x53	; 83
    502c:	93 e0       	ldi	r25, 0x03	; 3
    502e:	9f 93       	push	r25
    5030:	8f 93       	push	r24
    5032:	df 93       	push	r29
    5034:	cf 93       	push	r28
    5036:	0e 94 46 32 	call	0x648c	; 0x648c <sprintf>
    503a:	ed b7       	in	r30, 0x3d	; 61
    503c:	fe b7       	in	r31, 0x3e	; 62
    503e:	38 96       	adiw	r30, 0x08	; 8
    5040:	0f b6       	in	r0, 0x3f	; 63
    5042:	f8 94       	cli
    5044:	fe bf       	out	0x3e, r31	; 62
    5046:	0f be       	out	0x3f, r0	; 63
    5048:	ed bf       	out	0x3d, r30	; 61
    504a:	12 c0       	rjmp	.+36     	; 0x5070 <_ZN5Value8ToStringEv+0x84>
    504c:	85 81       	ldd	r24, Z+5	; 0x05
    504e:	8f 93       	push	r24
    5050:	84 81       	ldd	r24, Z+4	; 0x04
    5052:	8f 93       	push	r24
    5054:	80 e5       	ldi	r24, 0x50	; 80
    5056:	93 e0       	ldi	r25, 0x03	; 3
    5058:	9f 93       	push	r25
    505a:	8f 93       	push	r24
    505c:	df 93       	push	r29
    505e:	cf 93       	push	r28
    5060:	0e 94 46 32 	call	0x648c	; 0x648c <sprintf>
    5064:	0f 90       	pop	r0
    5066:	0f 90       	pop	r0
    5068:	0f 90       	pop	r0
    506a:	0f 90       	pop	r0
    506c:	0f 90       	pop	r0
    506e:	0f 90       	pop	r0
    5070:	ce 01       	movw	r24, r28
    5072:	02 c0       	rjmp	.+4      	; 0x5078 <_ZN5Value8ToStringEv+0x8c>
    5074:	8a e8       	ldi	r24, 0x8A	; 138
    5076:	92 e0       	ldi	r25, 0x02	; 2
    5078:	df 91       	pop	r29
    507a:	cf 91       	pop	r28
    507c:	08 95       	ret

0000507e <_ZN5Value11index_arrayEi>:
    507e:	cf 93       	push	r28
    5080:	df 93       	push	r29
    5082:	ec 01       	movw	r28, r24
    5084:	fb 01       	movw	r30, r22
    5086:	84 ad       	ldd	r24, Z+60	; 0x3c
    5088:	88 23       	and	r24, r24
    508a:	11 f1       	breq	.+68     	; 0x50d0 <_ZN5Value11index_arrayEi+0x52>
    508c:	87 ad       	ldd	r24, Z+63	; 0x3f
    508e:	81 11       	cpse	r24, r1
    5090:	0a c0       	rjmp	.+20     	; 0x50a6 <_ZN5Value11index_arrayEi+0x28>
    5092:	44 0f       	add	r20, r20
    5094:	55 1f       	adc	r21, r21
    5096:	01 90       	ld	r0, Z+
    5098:	f0 81       	ld	r31, Z
    509a:	e0 2d       	mov	r30, r0
    509c:	e4 0f       	add	r30, r20
    509e:	f5 1f       	adc	r31, r21
    50a0:	60 81       	ld	r22, Z
    50a2:	71 81       	ldd	r23, Z+1	; 0x01
    50a4:	17 c0       	rjmp	.+46     	; 0x50d4 <_ZN5Value11index_arrayEi+0x56>
    50a6:	83 30       	cpi	r24, 0x03	; 3
    50a8:	99 f4       	brne	.+38     	; 0x50d0 <_ZN5Value11index_arrayEi+0x52>
    50aa:	44 0f       	add	r20, r20
    50ac:	55 1f       	adc	r21, r21
    50ae:	44 0f       	add	r20, r20
    50b0:	55 1f       	adc	r21, r21
    50b2:	02 80       	ldd	r0, Z+2	; 0x02
    50b4:	f3 81       	ldd	r31, Z+3	; 0x03
    50b6:	e0 2d       	mov	r30, r0
    50b8:	e4 0f       	add	r30, r20
    50ba:	f5 1f       	adc	r31, r21
    50bc:	40 81       	ld	r20, Z
    50be:	51 81       	ldd	r21, Z+1	; 0x01
    50c0:	62 81       	ldd	r22, Z+2	; 0x02
    50c2:	73 81       	ldd	r23, Z+3	; 0x03
    50c4:	4e 83       	std	Y+6, r20	; 0x06
    50c6:	5f 83       	std	Y+7, r21	; 0x07
    50c8:	68 87       	std	Y+8, r22	; 0x08
    50ca:	79 87       	std	Y+9, r23	; 0x09
    50cc:	8f af       	std	Y+63, r24	; 0x3f
    50ce:	05 c0       	rjmp	.+10     	; 0x50da <_ZN5Value11index_arrayEi+0x5c>
    50d0:	6f ef       	ldi	r22, 0xFF	; 255
    50d2:	7f ef       	ldi	r23, 0xFF	; 255
    50d4:	ce 01       	movw	r24, r28
    50d6:	0e 94 9f 1b 	call	0x373e	; 0x373e <_ZN5ValueC1Ei>
    50da:	ce 01       	movw	r24, r28
    50dc:	df 91       	pop	r29
    50de:	cf 91       	pop	r28
    50e0:	08 95       	ret

000050e2 <_ZN5Value12update_arrayEii>:
    50e2:	dc 01       	movw	r26, r24
    50e4:	dc 96       	adiw	r26, 0x3c	; 60
    50e6:	2c 91       	ld	r18, X
    50e8:	dc 97       	sbiw	r26, 0x3c	; 60
    50ea:	22 23       	and	r18, r18
    50ec:	41 f0       	breq	.+16     	; 0x50fe <_ZN5Value12update_arrayEii+0x1c>
    50ee:	66 0f       	add	r22, r22
    50f0:	77 1f       	adc	r23, r23
    50f2:	ed 91       	ld	r30, X+
    50f4:	fc 91       	ld	r31, X
    50f6:	e6 0f       	add	r30, r22
    50f8:	f7 1f       	adc	r31, r23
    50fa:	51 83       	std	Z+1, r21	; 0x01
    50fc:	40 83       	st	Z, r20
    50fe:	08 95       	ret

00005100 <_ZN5Value12update_arrayEid>:
    5100:	dc 01       	movw	r26, r24
    5102:	dc 96       	adiw	r26, 0x3c	; 60
    5104:	ec 91       	ld	r30, X
    5106:	dc 97       	sbiw	r26, 0x3c	; 60
    5108:	ee 23       	and	r30, r30
    510a:	71 f0       	breq	.+28     	; 0x5128 <_ZN5Value12update_arrayEid+0x28>
    510c:	66 0f       	add	r22, r22
    510e:	77 1f       	adc	r23, r23
    5110:	66 0f       	add	r22, r22
    5112:	77 1f       	adc	r23, r23
    5114:	12 96       	adiw	r26, 0x02	; 2
    5116:	ed 91       	ld	r30, X+
    5118:	fc 91       	ld	r31, X
    511a:	13 97       	sbiw	r26, 0x03	; 3
    511c:	e6 0f       	add	r30, r22
    511e:	f7 1f       	adc	r31, r23
    5120:	20 83       	st	Z, r18
    5122:	31 83       	std	Z+1, r19	; 0x01
    5124:	42 83       	std	Z+2, r20	; 0x02
    5126:	53 83       	std	Z+3, r21	; 0x03
    5128:	08 95       	ret

0000512a <__subsf3>:
    512a:	50 58       	subi	r21, 0x80	; 128

0000512c <__addsf3>:
    512c:	bb 27       	eor	r27, r27
    512e:	aa 27       	eor	r26, r26
    5130:	0e d0       	rcall	.+28     	; 0x514e <__addsf3x>
    5132:	75 c1       	rjmp	.+746    	; 0x541e <__fp_round>
    5134:	66 d1       	rcall	.+716    	; 0x5402 <__fp_pscA>
    5136:	30 f0       	brcs	.+12     	; 0x5144 <__addsf3+0x18>
    5138:	6b d1       	rcall	.+726    	; 0x5410 <__fp_pscB>
    513a:	20 f0       	brcs	.+8      	; 0x5144 <__addsf3+0x18>
    513c:	31 f4       	brne	.+12     	; 0x514a <__addsf3+0x1e>
    513e:	9f 3f       	cpi	r25, 0xFF	; 255
    5140:	11 f4       	brne	.+4      	; 0x5146 <__addsf3+0x1a>
    5142:	1e f4       	brtc	.+6      	; 0x514a <__addsf3+0x1e>
    5144:	5b c1       	rjmp	.+694    	; 0x53fc <__fp_nan>
    5146:	0e f4       	brtc	.+2      	; 0x514a <__addsf3+0x1e>
    5148:	e0 95       	com	r30
    514a:	e7 fb       	bst	r30, 7
    514c:	51 c1       	rjmp	.+674    	; 0x53f0 <__fp_inf>

0000514e <__addsf3x>:
    514e:	e9 2f       	mov	r30, r25
    5150:	77 d1       	rcall	.+750    	; 0x5440 <__fp_split3>
    5152:	80 f3       	brcs	.-32     	; 0x5134 <__addsf3+0x8>
    5154:	ba 17       	cp	r27, r26
    5156:	62 07       	cpc	r22, r18
    5158:	73 07       	cpc	r23, r19
    515a:	84 07       	cpc	r24, r20
    515c:	95 07       	cpc	r25, r21
    515e:	18 f0       	brcs	.+6      	; 0x5166 <__addsf3x+0x18>
    5160:	71 f4       	brne	.+28     	; 0x517e <__addsf3x+0x30>
    5162:	9e f5       	brtc	.+102    	; 0x51ca <__addsf3x+0x7c>
    5164:	8f c1       	rjmp	.+798    	; 0x5484 <__fp_zero>
    5166:	0e f4       	brtc	.+2      	; 0x516a <__addsf3x+0x1c>
    5168:	e0 95       	com	r30
    516a:	0b 2e       	mov	r0, r27
    516c:	ba 2f       	mov	r27, r26
    516e:	a0 2d       	mov	r26, r0
    5170:	0b 01       	movw	r0, r22
    5172:	b9 01       	movw	r22, r18
    5174:	90 01       	movw	r18, r0
    5176:	0c 01       	movw	r0, r24
    5178:	ca 01       	movw	r24, r20
    517a:	a0 01       	movw	r20, r0
    517c:	11 24       	eor	r1, r1
    517e:	ff 27       	eor	r31, r31
    5180:	59 1b       	sub	r21, r25
    5182:	99 f0       	breq	.+38     	; 0x51aa <__addsf3x+0x5c>
    5184:	59 3f       	cpi	r21, 0xF9	; 249
    5186:	50 f4       	brcc	.+20     	; 0x519c <__addsf3x+0x4e>
    5188:	50 3e       	cpi	r21, 0xE0	; 224
    518a:	68 f1       	brcs	.+90     	; 0x51e6 <__addsf3x+0x98>
    518c:	1a 16       	cp	r1, r26
    518e:	f0 40       	sbci	r31, 0x00	; 0
    5190:	a2 2f       	mov	r26, r18
    5192:	23 2f       	mov	r18, r19
    5194:	34 2f       	mov	r19, r20
    5196:	44 27       	eor	r20, r20
    5198:	58 5f       	subi	r21, 0xF8	; 248
    519a:	f3 cf       	rjmp	.-26     	; 0x5182 <__addsf3x+0x34>
    519c:	46 95       	lsr	r20
    519e:	37 95       	ror	r19
    51a0:	27 95       	ror	r18
    51a2:	a7 95       	ror	r26
    51a4:	f0 40       	sbci	r31, 0x00	; 0
    51a6:	53 95       	inc	r21
    51a8:	c9 f7       	brne	.-14     	; 0x519c <__addsf3x+0x4e>
    51aa:	7e f4       	brtc	.+30     	; 0x51ca <__addsf3x+0x7c>
    51ac:	1f 16       	cp	r1, r31
    51ae:	ba 0b       	sbc	r27, r26
    51b0:	62 0b       	sbc	r22, r18
    51b2:	73 0b       	sbc	r23, r19
    51b4:	84 0b       	sbc	r24, r20
    51b6:	ba f0       	brmi	.+46     	; 0x51e6 <__addsf3x+0x98>
    51b8:	91 50       	subi	r25, 0x01	; 1
    51ba:	a1 f0       	breq	.+40     	; 0x51e4 <__addsf3x+0x96>
    51bc:	ff 0f       	add	r31, r31
    51be:	bb 1f       	adc	r27, r27
    51c0:	66 1f       	adc	r22, r22
    51c2:	77 1f       	adc	r23, r23
    51c4:	88 1f       	adc	r24, r24
    51c6:	c2 f7       	brpl	.-16     	; 0x51b8 <__addsf3x+0x6a>
    51c8:	0e c0       	rjmp	.+28     	; 0x51e6 <__addsf3x+0x98>
    51ca:	ba 0f       	add	r27, r26
    51cc:	62 1f       	adc	r22, r18
    51ce:	73 1f       	adc	r23, r19
    51d0:	84 1f       	adc	r24, r20
    51d2:	48 f4       	brcc	.+18     	; 0x51e6 <__addsf3x+0x98>
    51d4:	87 95       	ror	r24
    51d6:	77 95       	ror	r23
    51d8:	67 95       	ror	r22
    51da:	b7 95       	ror	r27
    51dc:	f7 95       	ror	r31
    51de:	9e 3f       	cpi	r25, 0xFE	; 254
    51e0:	08 f0       	brcs	.+2      	; 0x51e4 <__addsf3x+0x96>
    51e2:	b3 cf       	rjmp	.-154    	; 0x514a <__addsf3+0x1e>
    51e4:	93 95       	inc	r25
    51e6:	88 0f       	add	r24, r24
    51e8:	08 f0       	brcs	.+2      	; 0x51ec <__addsf3x+0x9e>
    51ea:	99 27       	eor	r25, r25
    51ec:	ee 0f       	add	r30, r30
    51ee:	97 95       	ror	r25
    51f0:	87 95       	ror	r24
    51f2:	08 95       	ret

000051f4 <__cmpsf2>:
    51f4:	d9 d0       	rcall	.+434    	; 0x53a8 <__fp_cmp>
    51f6:	08 f4       	brcc	.+2      	; 0x51fa <__cmpsf2+0x6>
    51f8:	81 e0       	ldi	r24, 0x01	; 1
    51fa:	08 95       	ret

000051fc <__divsf3>:
    51fc:	0c d0       	rcall	.+24     	; 0x5216 <__divsf3x>
    51fe:	0f c1       	rjmp	.+542    	; 0x541e <__fp_round>
    5200:	07 d1       	rcall	.+526    	; 0x5410 <__fp_pscB>
    5202:	40 f0       	brcs	.+16     	; 0x5214 <__divsf3+0x18>
    5204:	fe d0       	rcall	.+508    	; 0x5402 <__fp_pscA>
    5206:	30 f0       	brcs	.+12     	; 0x5214 <__divsf3+0x18>
    5208:	21 f4       	brne	.+8      	; 0x5212 <__divsf3+0x16>
    520a:	5f 3f       	cpi	r21, 0xFF	; 255
    520c:	19 f0       	breq	.+6      	; 0x5214 <__divsf3+0x18>
    520e:	f0 c0       	rjmp	.+480    	; 0x53f0 <__fp_inf>
    5210:	51 11       	cpse	r21, r1
    5212:	39 c1       	rjmp	.+626    	; 0x5486 <__fp_szero>
    5214:	f3 c0       	rjmp	.+486    	; 0x53fc <__fp_nan>

00005216 <__divsf3x>:
    5216:	14 d1       	rcall	.+552    	; 0x5440 <__fp_split3>
    5218:	98 f3       	brcs	.-26     	; 0x5200 <__divsf3+0x4>

0000521a <__divsf3_pse>:
    521a:	99 23       	and	r25, r25
    521c:	c9 f3       	breq	.-14     	; 0x5210 <__divsf3+0x14>
    521e:	55 23       	and	r21, r21
    5220:	b1 f3       	breq	.-20     	; 0x520e <__divsf3+0x12>
    5222:	95 1b       	sub	r25, r21
    5224:	55 0b       	sbc	r21, r21
    5226:	bb 27       	eor	r27, r27
    5228:	aa 27       	eor	r26, r26
    522a:	62 17       	cp	r22, r18
    522c:	73 07       	cpc	r23, r19
    522e:	84 07       	cpc	r24, r20
    5230:	38 f0       	brcs	.+14     	; 0x5240 <__divsf3_pse+0x26>
    5232:	9f 5f       	subi	r25, 0xFF	; 255
    5234:	5f 4f       	sbci	r21, 0xFF	; 255
    5236:	22 0f       	add	r18, r18
    5238:	33 1f       	adc	r19, r19
    523a:	44 1f       	adc	r20, r20
    523c:	aa 1f       	adc	r26, r26
    523e:	a9 f3       	breq	.-22     	; 0x522a <__divsf3_pse+0x10>
    5240:	33 d0       	rcall	.+102    	; 0x52a8 <__divsf3_pse+0x8e>
    5242:	0e 2e       	mov	r0, r30
    5244:	3a f0       	brmi	.+14     	; 0x5254 <__divsf3_pse+0x3a>
    5246:	e0 e8       	ldi	r30, 0x80	; 128
    5248:	30 d0       	rcall	.+96     	; 0x52aa <__divsf3_pse+0x90>
    524a:	91 50       	subi	r25, 0x01	; 1
    524c:	50 40       	sbci	r21, 0x00	; 0
    524e:	e6 95       	lsr	r30
    5250:	00 1c       	adc	r0, r0
    5252:	ca f7       	brpl	.-14     	; 0x5246 <__divsf3_pse+0x2c>
    5254:	29 d0       	rcall	.+82     	; 0x52a8 <__divsf3_pse+0x8e>
    5256:	fe 2f       	mov	r31, r30
    5258:	27 d0       	rcall	.+78     	; 0x52a8 <__divsf3_pse+0x8e>
    525a:	66 0f       	add	r22, r22
    525c:	77 1f       	adc	r23, r23
    525e:	88 1f       	adc	r24, r24
    5260:	bb 1f       	adc	r27, r27
    5262:	26 17       	cp	r18, r22
    5264:	37 07       	cpc	r19, r23
    5266:	48 07       	cpc	r20, r24
    5268:	ab 07       	cpc	r26, r27
    526a:	b0 e8       	ldi	r27, 0x80	; 128
    526c:	09 f0       	breq	.+2      	; 0x5270 <__divsf3_pse+0x56>
    526e:	bb 0b       	sbc	r27, r27
    5270:	80 2d       	mov	r24, r0
    5272:	bf 01       	movw	r22, r30
    5274:	ff 27       	eor	r31, r31
    5276:	93 58       	subi	r25, 0x83	; 131
    5278:	5f 4f       	sbci	r21, 0xFF	; 255
    527a:	2a f0       	brmi	.+10     	; 0x5286 <__divsf3_pse+0x6c>
    527c:	9e 3f       	cpi	r25, 0xFE	; 254
    527e:	51 05       	cpc	r21, r1
    5280:	68 f0       	brcs	.+26     	; 0x529c <__divsf3_pse+0x82>
    5282:	b6 c0       	rjmp	.+364    	; 0x53f0 <__fp_inf>
    5284:	00 c1       	rjmp	.+512    	; 0x5486 <__fp_szero>
    5286:	5f 3f       	cpi	r21, 0xFF	; 255
    5288:	ec f3       	brlt	.-6      	; 0x5284 <__divsf3_pse+0x6a>
    528a:	98 3e       	cpi	r25, 0xE8	; 232
    528c:	dc f3       	brlt	.-10     	; 0x5284 <__divsf3_pse+0x6a>
    528e:	86 95       	lsr	r24
    5290:	77 95       	ror	r23
    5292:	67 95       	ror	r22
    5294:	b7 95       	ror	r27
    5296:	f7 95       	ror	r31
    5298:	9f 5f       	subi	r25, 0xFF	; 255
    529a:	c9 f7       	brne	.-14     	; 0x528e <__divsf3_pse+0x74>
    529c:	88 0f       	add	r24, r24
    529e:	91 1d       	adc	r25, r1
    52a0:	96 95       	lsr	r25
    52a2:	87 95       	ror	r24
    52a4:	97 f9       	bld	r25, 7
    52a6:	08 95       	ret
    52a8:	e1 e0       	ldi	r30, 0x01	; 1
    52aa:	66 0f       	add	r22, r22
    52ac:	77 1f       	adc	r23, r23
    52ae:	88 1f       	adc	r24, r24
    52b0:	bb 1f       	adc	r27, r27
    52b2:	62 17       	cp	r22, r18
    52b4:	73 07       	cpc	r23, r19
    52b6:	84 07       	cpc	r24, r20
    52b8:	ba 07       	cpc	r27, r26
    52ba:	20 f0       	brcs	.+8      	; 0x52c4 <__divsf3_pse+0xaa>
    52bc:	62 1b       	sub	r22, r18
    52be:	73 0b       	sbc	r23, r19
    52c0:	84 0b       	sbc	r24, r20
    52c2:	ba 0b       	sbc	r27, r26
    52c4:	ee 1f       	adc	r30, r30
    52c6:	88 f7       	brcc	.-30     	; 0x52aa <__divsf3_pse+0x90>
    52c8:	e0 95       	com	r30
    52ca:	08 95       	ret

000052cc <__fixsfsi>:
    52cc:	04 d0       	rcall	.+8      	; 0x52d6 <__fixunssfsi>
    52ce:	68 94       	set
    52d0:	b1 11       	cpse	r27, r1
    52d2:	d9 c0       	rjmp	.+434    	; 0x5486 <__fp_szero>
    52d4:	08 95       	ret

000052d6 <__fixunssfsi>:
    52d6:	bc d0       	rcall	.+376    	; 0x5450 <__fp_splitA>
    52d8:	88 f0       	brcs	.+34     	; 0x52fc <__fixunssfsi+0x26>
    52da:	9f 57       	subi	r25, 0x7F	; 127
    52dc:	90 f0       	brcs	.+36     	; 0x5302 <__fixunssfsi+0x2c>
    52de:	b9 2f       	mov	r27, r25
    52e0:	99 27       	eor	r25, r25
    52e2:	b7 51       	subi	r27, 0x17	; 23
    52e4:	a0 f0       	brcs	.+40     	; 0x530e <__fixunssfsi+0x38>
    52e6:	d1 f0       	breq	.+52     	; 0x531c <__fixunssfsi+0x46>
    52e8:	66 0f       	add	r22, r22
    52ea:	77 1f       	adc	r23, r23
    52ec:	88 1f       	adc	r24, r24
    52ee:	99 1f       	adc	r25, r25
    52f0:	1a f0       	brmi	.+6      	; 0x52f8 <__fixunssfsi+0x22>
    52f2:	ba 95       	dec	r27
    52f4:	c9 f7       	brne	.-14     	; 0x52e8 <__fixunssfsi+0x12>
    52f6:	12 c0       	rjmp	.+36     	; 0x531c <__fixunssfsi+0x46>
    52f8:	b1 30       	cpi	r27, 0x01	; 1
    52fa:	81 f0       	breq	.+32     	; 0x531c <__fixunssfsi+0x46>
    52fc:	c3 d0       	rcall	.+390    	; 0x5484 <__fp_zero>
    52fe:	b1 e0       	ldi	r27, 0x01	; 1
    5300:	08 95       	ret
    5302:	c0 c0       	rjmp	.+384    	; 0x5484 <__fp_zero>
    5304:	67 2f       	mov	r22, r23
    5306:	78 2f       	mov	r23, r24
    5308:	88 27       	eor	r24, r24
    530a:	b8 5f       	subi	r27, 0xF8	; 248
    530c:	39 f0       	breq	.+14     	; 0x531c <__fixunssfsi+0x46>
    530e:	b9 3f       	cpi	r27, 0xF9	; 249
    5310:	cc f3       	brlt	.-14     	; 0x5304 <__fixunssfsi+0x2e>
    5312:	86 95       	lsr	r24
    5314:	77 95       	ror	r23
    5316:	67 95       	ror	r22
    5318:	b3 95       	inc	r27
    531a:	d9 f7       	brne	.-10     	; 0x5312 <__fixunssfsi+0x3c>
    531c:	3e f4       	brtc	.+14     	; 0x532c <__fixunssfsi+0x56>
    531e:	90 95       	com	r25
    5320:	80 95       	com	r24
    5322:	70 95       	com	r23
    5324:	61 95       	neg	r22
    5326:	7f 4f       	sbci	r23, 0xFF	; 255
    5328:	8f 4f       	sbci	r24, 0xFF	; 255
    532a:	9f 4f       	sbci	r25, 0xFF	; 255
    532c:	08 95       	ret

0000532e <__floatunsisf>:
    532e:	e8 94       	clt
    5330:	09 c0       	rjmp	.+18     	; 0x5344 <__floatsisf+0x12>

00005332 <__floatsisf>:
    5332:	97 fb       	bst	r25, 7
    5334:	3e f4       	brtc	.+14     	; 0x5344 <__floatsisf+0x12>
    5336:	90 95       	com	r25
    5338:	80 95       	com	r24
    533a:	70 95       	com	r23
    533c:	61 95       	neg	r22
    533e:	7f 4f       	sbci	r23, 0xFF	; 255
    5340:	8f 4f       	sbci	r24, 0xFF	; 255
    5342:	9f 4f       	sbci	r25, 0xFF	; 255
    5344:	99 23       	and	r25, r25
    5346:	a9 f0       	breq	.+42     	; 0x5372 <__floatsisf+0x40>
    5348:	f9 2f       	mov	r31, r25
    534a:	96 e9       	ldi	r25, 0x96	; 150
    534c:	bb 27       	eor	r27, r27
    534e:	93 95       	inc	r25
    5350:	f6 95       	lsr	r31
    5352:	87 95       	ror	r24
    5354:	77 95       	ror	r23
    5356:	67 95       	ror	r22
    5358:	b7 95       	ror	r27
    535a:	f1 11       	cpse	r31, r1
    535c:	f8 cf       	rjmp	.-16     	; 0x534e <__floatsisf+0x1c>
    535e:	fa f4       	brpl	.+62     	; 0x539e <__floatsisf+0x6c>
    5360:	bb 0f       	add	r27, r27
    5362:	11 f4       	brne	.+4      	; 0x5368 <__floatsisf+0x36>
    5364:	60 ff       	sbrs	r22, 0
    5366:	1b c0       	rjmp	.+54     	; 0x539e <__floatsisf+0x6c>
    5368:	6f 5f       	subi	r22, 0xFF	; 255
    536a:	7f 4f       	sbci	r23, 0xFF	; 255
    536c:	8f 4f       	sbci	r24, 0xFF	; 255
    536e:	9f 4f       	sbci	r25, 0xFF	; 255
    5370:	16 c0       	rjmp	.+44     	; 0x539e <__floatsisf+0x6c>
    5372:	88 23       	and	r24, r24
    5374:	11 f0       	breq	.+4      	; 0x537a <__floatsisf+0x48>
    5376:	96 e9       	ldi	r25, 0x96	; 150
    5378:	11 c0       	rjmp	.+34     	; 0x539c <__floatsisf+0x6a>
    537a:	77 23       	and	r23, r23
    537c:	21 f0       	breq	.+8      	; 0x5386 <__floatsisf+0x54>
    537e:	9e e8       	ldi	r25, 0x8E	; 142
    5380:	87 2f       	mov	r24, r23
    5382:	76 2f       	mov	r23, r22
    5384:	05 c0       	rjmp	.+10     	; 0x5390 <__floatsisf+0x5e>
    5386:	66 23       	and	r22, r22
    5388:	71 f0       	breq	.+28     	; 0x53a6 <__floatsisf+0x74>
    538a:	96 e8       	ldi	r25, 0x86	; 134
    538c:	86 2f       	mov	r24, r22
    538e:	70 e0       	ldi	r23, 0x00	; 0
    5390:	60 e0       	ldi	r22, 0x00	; 0
    5392:	2a f0       	brmi	.+10     	; 0x539e <__floatsisf+0x6c>
    5394:	9a 95       	dec	r25
    5396:	66 0f       	add	r22, r22
    5398:	77 1f       	adc	r23, r23
    539a:	88 1f       	adc	r24, r24
    539c:	da f7       	brpl	.-10     	; 0x5394 <__floatsisf+0x62>
    539e:	88 0f       	add	r24, r24
    53a0:	96 95       	lsr	r25
    53a2:	87 95       	ror	r24
    53a4:	97 f9       	bld	r25, 7
    53a6:	08 95       	ret

000053a8 <__fp_cmp>:
    53a8:	99 0f       	add	r25, r25
    53aa:	00 08       	sbc	r0, r0
    53ac:	55 0f       	add	r21, r21
    53ae:	aa 0b       	sbc	r26, r26
    53b0:	e0 e8       	ldi	r30, 0x80	; 128
    53b2:	fe ef       	ldi	r31, 0xFE	; 254
    53b4:	16 16       	cp	r1, r22
    53b6:	17 06       	cpc	r1, r23
    53b8:	e8 07       	cpc	r30, r24
    53ba:	f9 07       	cpc	r31, r25
    53bc:	c0 f0       	brcs	.+48     	; 0x53ee <__fp_cmp+0x46>
    53be:	12 16       	cp	r1, r18
    53c0:	13 06       	cpc	r1, r19
    53c2:	e4 07       	cpc	r30, r20
    53c4:	f5 07       	cpc	r31, r21
    53c6:	98 f0       	brcs	.+38     	; 0x53ee <__fp_cmp+0x46>
    53c8:	62 1b       	sub	r22, r18
    53ca:	73 0b       	sbc	r23, r19
    53cc:	84 0b       	sbc	r24, r20
    53ce:	95 0b       	sbc	r25, r21
    53d0:	39 f4       	brne	.+14     	; 0x53e0 <__fp_cmp+0x38>
    53d2:	0a 26       	eor	r0, r26
    53d4:	61 f0       	breq	.+24     	; 0x53ee <__fp_cmp+0x46>
    53d6:	23 2b       	or	r18, r19
    53d8:	24 2b       	or	r18, r20
    53da:	25 2b       	or	r18, r21
    53dc:	21 f4       	brne	.+8      	; 0x53e6 <__fp_cmp+0x3e>
    53de:	08 95       	ret
    53e0:	0a 26       	eor	r0, r26
    53e2:	09 f4       	brne	.+2      	; 0x53e6 <__fp_cmp+0x3e>
    53e4:	a1 40       	sbci	r26, 0x01	; 1
    53e6:	a6 95       	lsr	r26
    53e8:	8f ef       	ldi	r24, 0xFF	; 255
    53ea:	81 1d       	adc	r24, r1
    53ec:	81 1d       	adc	r24, r1
    53ee:	08 95       	ret

000053f0 <__fp_inf>:
    53f0:	97 f9       	bld	r25, 7
    53f2:	9f 67       	ori	r25, 0x7F	; 127
    53f4:	80 e8       	ldi	r24, 0x80	; 128
    53f6:	70 e0       	ldi	r23, 0x00	; 0
    53f8:	60 e0       	ldi	r22, 0x00	; 0
    53fa:	08 95       	ret

000053fc <__fp_nan>:
    53fc:	9f ef       	ldi	r25, 0xFF	; 255
    53fe:	80 ec       	ldi	r24, 0xC0	; 192
    5400:	08 95       	ret

00005402 <__fp_pscA>:
    5402:	00 24       	eor	r0, r0
    5404:	0a 94       	dec	r0
    5406:	16 16       	cp	r1, r22
    5408:	17 06       	cpc	r1, r23
    540a:	18 06       	cpc	r1, r24
    540c:	09 06       	cpc	r0, r25
    540e:	08 95       	ret

00005410 <__fp_pscB>:
    5410:	00 24       	eor	r0, r0
    5412:	0a 94       	dec	r0
    5414:	12 16       	cp	r1, r18
    5416:	13 06       	cpc	r1, r19
    5418:	14 06       	cpc	r1, r20
    541a:	05 06       	cpc	r0, r21
    541c:	08 95       	ret

0000541e <__fp_round>:
    541e:	09 2e       	mov	r0, r25
    5420:	03 94       	inc	r0
    5422:	00 0c       	add	r0, r0
    5424:	11 f4       	brne	.+4      	; 0x542a <__fp_round+0xc>
    5426:	88 23       	and	r24, r24
    5428:	52 f0       	brmi	.+20     	; 0x543e <__fp_round+0x20>
    542a:	bb 0f       	add	r27, r27
    542c:	40 f4       	brcc	.+16     	; 0x543e <__fp_round+0x20>
    542e:	bf 2b       	or	r27, r31
    5430:	11 f4       	brne	.+4      	; 0x5436 <__fp_round+0x18>
    5432:	60 ff       	sbrs	r22, 0
    5434:	04 c0       	rjmp	.+8      	; 0x543e <__fp_round+0x20>
    5436:	6f 5f       	subi	r22, 0xFF	; 255
    5438:	7f 4f       	sbci	r23, 0xFF	; 255
    543a:	8f 4f       	sbci	r24, 0xFF	; 255
    543c:	9f 4f       	sbci	r25, 0xFF	; 255
    543e:	08 95       	ret

00005440 <__fp_split3>:
    5440:	57 fd       	sbrc	r21, 7
    5442:	90 58       	subi	r25, 0x80	; 128
    5444:	44 0f       	add	r20, r20
    5446:	55 1f       	adc	r21, r21
    5448:	59 f0       	breq	.+22     	; 0x5460 <__fp_splitA+0x10>
    544a:	5f 3f       	cpi	r21, 0xFF	; 255
    544c:	71 f0       	breq	.+28     	; 0x546a <__fp_splitA+0x1a>
    544e:	47 95       	ror	r20

00005450 <__fp_splitA>:
    5450:	88 0f       	add	r24, r24
    5452:	97 fb       	bst	r25, 7
    5454:	99 1f       	adc	r25, r25
    5456:	61 f0       	breq	.+24     	; 0x5470 <__fp_splitA+0x20>
    5458:	9f 3f       	cpi	r25, 0xFF	; 255
    545a:	79 f0       	breq	.+30     	; 0x547a <__fp_splitA+0x2a>
    545c:	87 95       	ror	r24
    545e:	08 95       	ret
    5460:	12 16       	cp	r1, r18
    5462:	13 06       	cpc	r1, r19
    5464:	14 06       	cpc	r1, r20
    5466:	55 1f       	adc	r21, r21
    5468:	f2 cf       	rjmp	.-28     	; 0x544e <__fp_split3+0xe>
    546a:	46 95       	lsr	r20
    546c:	f1 df       	rcall	.-30     	; 0x5450 <__fp_splitA>
    546e:	08 c0       	rjmp	.+16     	; 0x5480 <__fp_splitA+0x30>
    5470:	16 16       	cp	r1, r22
    5472:	17 06       	cpc	r1, r23
    5474:	18 06       	cpc	r1, r24
    5476:	99 1f       	adc	r25, r25
    5478:	f1 cf       	rjmp	.-30     	; 0x545c <__fp_splitA+0xc>
    547a:	86 95       	lsr	r24
    547c:	71 05       	cpc	r23, r1
    547e:	61 05       	cpc	r22, r1
    5480:	08 94       	sec
    5482:	08 95       	ret

00005484 <__fp_zero>:
    5484:	e8 94       	clt

00005486 <__fp_szero>:
    5486:	bb 27       	eor	r27, r27
    5488:	66 27       	eor	r22, r22
    548a:	77 27       	eor	r23, r23
    548c:	cb 01       	movw	r24, r22
    548e:	97 f9       	bld	r25, 7
    5490:	08 95       	ret

00005492 <__gesf2>:
    5492:	8a df       	rcall	.-236    	; 0x53a8 <__fp_cmp>
    5494:	08 f4       	brcc	.+2      	; 0x5498 <__gesf2+0x6>
    5496:	8f ef       	ldi	r24, 0xFF	; 255
    5498:	08 95       	ret

0000549a <__mulsf3>:
    549a:	0b d0       	rcall	.+22     	; 0x54b2 <__mulsf3x>
    549c:	c0 cf       	rjmp	.-128    	; 0x541e <__fp_round>
    549e:	b1 df       	rcall	.-158    	; 0x5402 <__fp_pscA>
    54a0:	28 f0       	brcs	.+10     	; 0x54ac <__mulsf3+0x12>
    54a2:	b6 df       	rcall	.-148    	; 0x5410 <__fp_pscB>
    54a4:	18 f0       	brcs	.+6      	; 0x54ac <__mulsf3+0x12>
    54a6:	95 23       	and	r25, r21
    54a8:	09 f0       	breq	.+2      	; 0x54ac <__mulsf3+0x12>
    54aa:	a2 cf       	rjmp	.-188    	; 0x53f0 <__fp_inf>
    54ac:	a7 cf       	rjmp	.-178    	; 0x53fc <__fp_nan>
    54ae:	11 24       	eor	r1, r1
    54b0:	ea cf       	rjmp	.-44     	; 0x5486 <__fp_szero>

000054b2 <__mulsf3x>:
    54b2:	c6 df       	rcall	.-116    	; 0x5440 <__fp_split3>
    54b4:	a0 f3       	brcs	.-24     	; 0x549e <__mulsf3+0x4>

000054b6 <__mulsf3_pse>:
    54b6:	95 9f       	mul	r25, r21
    54b8:	d1 f3       	breq	.-12     	; 0x54ae <__mulsf3+0x14>
    54ba:	95 0f       	add	r25, r21
    54bc:	50 e0       	ldi	r21, 0x00	; 0
    54be:	55 1f       	adc	r21, r21
    54c0:	62 9f       	mul	r22, r18
    54c2:	f0 01       	movw	r30, r0
    54c4:	72 9f       	mul	r23, r18
    54c6:	bb 27       	eor	r27, r27
    54c8:	f0 0d       	add	r31, r0
    54ca:	b1 1d       	adc	r27, r1
    54cc:	63 9f       	mul	r22, r19
    54ce:	aa 27       	eor	r26, r26
    54d0:	f0 0d       	add	r31, r0
    54d2:	b1 1d       	adc	r27, r1
    54d4:	aa 1f       	adc	r26, r26
    54d6:	64 9f       	mul	r22, r20
    54d8:	66 27       	eor	r22, r22
    54da:	b0 0d       	add	r27, r0
    54dc:	a1 1d       	adc	r26, r1
    54de:	66 1f       	adc	r22, r22
    54e0:	82 9f       	mul	r24, r18
    54e2:	22 27       	eor	r18, r18
    54e4:	b0 0d       	add	r27, r0
    54e6:	a1 1d       	adc	r26, r1
    54e8:	62 1f       	adc	r22, r18
    54ea:	73 9f       	mul	r23, r19
    54ec:	b0 0d       	add	r27, r0
    54ee:	a1 1d       	adc	r26, r1
    54f0:	62 1f       	adc	r22, r18
    54f2:	83 9f       	mul	r24, r19
    54f4:	a0 0d       	add	r26, r0
    54f6:	61 1d       	adc	r22, r1
    54f8:	22 1f       	adc	r18, r18
    54fa:	74 9f       	mul	r23, r20
    54fc:	33 27       	eor	r19, r19
    54fe:	a0 0d       	add	r26, r0
    5500:	61 1d       	adc	r22, r1
    5502:	23 1f       	adc	r18, r19
    5504:	84 9f       	mul	r24, r20
    5506:	60 0d       	add	r22, r0
    5508:	21 1d       	adc	r18, r1
    550a:	82 2f       	mov	r24, r18
    550c:	76 2f       	mov	r23, r22
    550e:	6a 2f       	mov	r22, r26
    5510:	11 24       	eor	r1, r1
    5512:	9f 57       	subi	r25, 0x7F	; 127
    5514:	50 40       	sbci	r21, 0x00	; 0
    5516:	8a f0       	brmi	.+34     	; 0x553a <__mulsf3_pse+0x84>
    5518:	e1 f0       	breq	.+56     	; 0x5552 <__mulsf3_pse+0x9c>
    551a:	88 23       	and	r24, r24
    551c:	4a f0       	brmi	.+18     	; 0x5530 <__mulsf3_pse+0x7a>
    551e:	ee 0f       	add	r30, r30
    5520:	ff 1f       	adc	r31, r31
    5522:	bb 1f       	adc	r27, r27
    5524:	66 1f       	adc	r22, r22
    5526:	77 1f       	adc	r23, r23
    5528:	88 1f       	adc	r24, r24
    552a:	91 50       	subi	r25, 0x01	; 1
    552c:	50 40       	sbci	r21, 0x00	; 0
    552e:	a9 f7       	brne	.-22     	; 0x551a <__mulsf3_pse+0x64>
    5530:	9e 3f       	cpi	r25, 0xFE	; 254
    5532:	51 05       	cpc	r21, r1
    5534:	70 f0       	brcs	.+28     	; 0x5552 <__mulsf3_pse+0x9c>
    5536:	5c cf       	rjmp	.-328    	; 0x53f0 <__fp_inf>
    5538:	a6 cf       	rjmp	.-180    	; 0x5486 <__fp_szero>
    553a:	5f 3f       	cpi	r21, 0xFF	; 255
    553c:	ec f3       	brlt	.-6      	; 0x5538 <__mulsf3_pse+0x82>
    553e:	98 3e       	cpi	r25, 0xE8	; 232
    5540:	dc f3       	brlt	.-10     	; 0x5538 <__mulsf3_pse+0x82>
    5542:	86 95       	lsr	r24
    5544:	77 95       	ror	r23
    5546:	67 95       	ror	r22
    5548:	b7 95       	ror	r27
    554a:	f7 95       	ror	r31
    554c:	e7 95       	ror	r30
    554e:	9f 5f       	subi	r25, 0xFF	; 255
    5550:	c1 f7       	brne	.-16     	; 0x5542 <__mulsf3_pse+0x8c>
    5552:	fe 2b       	or	r31, r30
    5554:	88 0f       	add	r24, r24
    5556:	91 1d       	adc	r25, r1
    5558:	96 95       	lsr	r25
    555a:	87 95       	ror	r24
    555c:	97 f9       	bld	r25, 7
    555e:	08 95       	ret

00005560 <vfprintf>:
    5560:	2f 92       	push	r2
    5562:	3f 92       	push	r3
    5564:	4f 92       	push	r4
    5566:	5f 92       	push	r5
    5568:	6f 92       	push	r6
    556a:	7f 92       	push	r7
    556c:	8f 92       	push	r8
    556e:	9f 92       	push	r9
    5570:	af 92       	push	r10
    5572:	bf 92       	push	r11
    5574:	cf 92       	push	r12
    5576:	df 92       	push	r13
    5578:	ef 92       	push	r14
    557a:	ff 92       	push	r15
    557c:	0f 93       	push	r16
    557e:	1f 93       	push	r17
    5580:	cf 93       	push	r28
    5582:	df 93       	push	r29
    5584:	cd b7       	in	r28, 0x3d	; 61
    5586:	de b7       	in	r29, 0x3e	; 62
    5588:	60 97       	sbiw	r28, 0x10	; 16
    558a:	0f b6       	in	r0, 0x3f	; 63
    558c:	f8 94       	cli
    558e:	de bf       	out	0x3e, r29	; 62
    5590:	0f be       	out	0x3f, r0	; 63
    5592:	cd bf       	out	0x3d, r28	; 61
    5594:	7c 01       	movw	r14, r24
    5596:	1b 01       	movw	r2, r22
    5598:	6a 01       	movw	r12, r20
    559a:	fc 01       	movw	r30, r24
    559c:	17 82       	std	Z+7, r1	; 0x07
    559e:	16 82       	std	Z+6, r1	; 0x06
    55a0:	83 81       	ldd	r24, Z+3	; 0x03
    55a2:	81 ff       	sbrs	r24, 1
    55a4:	2a c3       	rjmp	.+1620   	; 0x5bfa <vfprintf+0x69a>
    55a6:	9e 01       	movw	r18, r28
    55a8:	2f 5f       	subi	r18, 0xFF	; 255
    55aa:	3f 4f       	sbci	r19, 0xFF	; 255
    55ac:	39 01       	movw	r6, r18
    55ae:	f7 01       	movw	r30, r14
    55b0:	93 81       	ldd	r25, Z+3	; 0x03
    55b2:	f1 01       	movw	r30, r2
    55b4:	93 fd       	sbrc	r25, 3
    55b6:	85 91       	lpm	r24, Z+
    55b8:	93 ff       	sbrs	r25, 3
    55ba:	81 91       	ld	r24, Z+
    55bc:	1f 01       	movw	r2, r30
    55be:	88 23       	and	r24, r24
    55c0:	09 f4       	brne	.+2      	; 0x55c4 <vfprintf+0x64>
    55c2:	17 c3       	rjmp	.+1582   	; 0x5bf2 <vfprintf+0x692>
    55c4:	85 32       	cpi	r24, 0x25	; 37
    55c6:	39 f4       	brne	.+14     	; 0x55d6 <vfprintf+0x76>
    55c8:	93 fd       	sbrc	r25, 3
    55ca:	85 91       	lpm	r24, Z+
    55cc:	93 ff       	sbrs	r25, 3
    55ce:	81 91       	ld	r24, Z+
    55d0:	1f 01       	movw	r2, r30
    55d2:	85 32       	cpi	r24, 0x25	; 37
    55d4:	31 f4       	brne	.+12     	; 0x55e2 <vfprintf+0x82>
    55d6:	b7 01       	movw	r22, r14
    55d8:	90 e0       	ldi	r25, 0x00	; 0
    55da:	1c d7       	rcall	.+3640   	; 0x6414 <fputc>
    55dc:	56 01       	movw	r10, r12
    55de:	65 01       	movw	r12, r10
    55e0:	e6 cf       	rjmp	.-52     	; 0x55ae <vfprintf+0x4e>
    55e2:	10 e0       	ldi	r17, 0x00	; 0
    55e4:	51 2c       	mov	r5, r1
    55e6:	91 2c       	mov	r9, r1
    55e8:	ff e1       	ldi	r31, 0x1F	; 31
    55ea:	f9 15       	cp	r31, r9
    55ec:	d8 f0       	brcs	.+54     	; 0x5624 <vfprintf+0xc4>
    55ee:	8b 32       	cpi	r24, 0x2B	; 43
    55f0:	79 f0       	breq	.+30     	; 0x5610 <vfprintf+0xb0>
    55f2:	38 f4       	brcc	.+14     	; 0x5602 <vfprintf+0xa2>
    55f4:	80 32       	cpi	r24, 0x20	; 32
    55f6:	79 f0       	breq	.+30     	; 0x5616 <vfprintf+0xb6>
    55f8:	83 32       	cpi	r24, 0x23	; 35
    55fa:	a1 f4       	brne	.+40     	; 0x5624 <vfprintf+0xc4>
    55fc:	f9 2d       	mov	r31, r9
    55fe:	f0 61       	ori	r31, 0x10	; 16
    5600:	2e c0       	rjmp	.+92     	; 0x565e <vfprintf+0xfe>
    5602:	8d 32       	cpi	r24, 0x2D	; 45
    5604:	61 f0       	breq	.+24     	; 0x561e <vfprintf+0xbe>
    5606:	80 33       	cpi	r24, 0x30	; 48
    5608:	69 f4       	brne	.+26     	; 0x5624 <vfprintf+0xc4>
    560a:	29 2d       	mov	r18, r9
    560c:	21 60       	ori	r18, 0x01	; 1
    560e:	2d c0       	rjmp	.+90     	; 0x566a <vfprintf+0x10a>
    5610:	39 2d       	mov	r19, r9
    5612:	32 60       	ori	r19, 0x02	; 2
    5614:	93 2e       	mov	r9, r19
    5616:	89 2d       	mov	r24, r9
    5618:	84 60       	ori	r24, 0x04	; 4
    561a:	98 2e       	mov	r9, r24
    561c:	2a c0       	rjmp	.+84     	; 0x5672 <vfprintf+0x112>
    561e:	e9 2d       	mov	r30, r9
    5620:	e8 60       	ori	r30, 0x08	; 8
    5622:	15 c0       	rjmp	.+42     	; 0x564e <vfprintf+0xee>
    5624:	97 fc       	sbrc	r9, 7
    5626:	2d c0       	rjmp	.+90     	; 0x5682 <vfprintf+0x122>
    5628:	20 ed       	ldi	r18, 0xD0	; 208
    562a:	28 0f       	add	r18, r24
    562c:	2a 30       	cpi	r18, 0x0A	; 10
    562e:	88 f4       	brcc	.+34     	; 0x5652 <vfprintf+0xf2>
    5630:	96 fe       	sbrs	r9, 6
    5632:	06 c0       	rjmp	.+12     	; 0x5640 <vfprintf+0xe0>
    5634:	3a e0       	ldi	r19, 0x0A	; 10
    5636:	13 9f       	mul	r17, r19
    5638:	20 0d       	add	r18, r0
    563a:	11 24       	eor	r1, r1
    563c:	12 2f       	mov	r17, r18
    563e:	19 c0       	rjmp	.+50     	; 0x5672 <vfprintf+0x112>
    5640:	8a e0       	ldi	r24, 0x0A	; 10
    5642:	58 9e       	mul	r5, r24
    5644:	20 0d       	add	r18, r0
    5646:	11 24       	eor	r1, r1
    5648:	52 2e       	mov	r5, r18
    564a:	e9 2d       	mov	r30, r9
    564c:	e0 62       	ori	r30, 0x20	; 32
    564e:	9e 2e       	mov	r9, r30
    5650:	10 c0       	rjmp	.+32     	; 0x5672 <vfprintf+0x112>
    5652:	8e 32       	cpi	r24, 0x2E	; 46
    5654:	31 f4       	brne	.+12     	; 0x5662 <vfprintf+0x102>
    5656:	96 fc       	sbrc	r9, 6
    5658:	cc c2       	rjmp	.+1432   	; 0x5bf2 <vfprintf+0x692>
    565a:	f9 2d       	mov	r31, r9
    565c:	f0 64       	ori	r31, 0x40	; 64
    565e:	9f 2e       	mov	r9, r31
    5660:	08 c0       	rjmp	.+16     	; 0x5672 <vfprintf+0x112>
    5662:	8c 36       	cpi	r24, 0x6C	; 108
    5664:	21 f4       	brne	.+8      	; 0x566e <vfprintf+0x10e>
    5666:	29 2d       	mov	r18, r9
    5668:	20 68       	ori	r18, 0x80	; 128
    566a:	92 2e       	mov	r9, r18
    566c:	02 c0       	rjmp	.+4      	; 0x5672 <vfprintf+0x112>
    566e:	88 36       	cpi	r24, 0x68	; 104
    5670:	41 f4       	brne	.+16     	; 0x5682 <vfprintf+0x122>
    5672:	f1 01       	movw	r30, r2
    5674:	93 fd       	sbrc	r25, 3
    5676:	85 91       	lpm	r24, Z+
    5678:	93 ff       	sbrs	r25, 3
    567a:	81 91       	ld	r24, Z+
    567c:	1f 01       	movw	r2, r30
    567e:	81 11       	cpse	r24, r1
    5680:	b3 cf       	rjmp	.-154    	; 0x55e8 <vfprintf+0x88>
    5682:	9b eb       	ldi	r25, 0xBB	; 187
    5684:	98 0f       	add	r25, r24
    5686:	93 30       	cpi	r25, 0x03	; 3
    5688:	20 f4       	brcc	.+8      	; 0x5692 <vfprintf+0x132>
    568a:	99 2d       	mov	r25, r9
    568c:	90 61       	ori	r25, 0x10	; 16
    568e:	80 5e       	subi	r24, 0xE0	; 224
    5690:	07 c0       	rjmp	.+14     	; 0x56a0 <vfprintf+0x140>
    5692:	9b e9       	ldi	r25, 0x9B	; 155
    5694:	98 0f       	add	r25, r24
    5696:	93 30       	cpi	r25, 0x03	; 3
    5698:	08 f0       	brcs	.+2      	; 0x569c <vfprintf+0x13c>
    569a:	59 c1       	rjmp	.+690    	; 0x594e <vfprintf+0x3ee>
    569c:	99 2d       	mov	r25, r9
    569e:	9f 7e       	andi	r25, 0xEF	; 239
    56a0:	96 ff       	sbrs	r25, 6
    56a2:	16 e0       	ldi	r17, 0x06	; 6
    56a4:	9f 73       	andi	r25, 0x3F	; 63
    56a6:	99 2e       	mov	r9, r25
    56a8:	85 36       	cpi	r24, 0x65	; 101
    56aa:	19 f4       	brne	.+6      	; 0x56b2 <vfprintf+0x152>
    56ac:	90 64       	ori	r25, 0x40	; 64
    56ae:	99 2e       	mov	r9, r25
    56b0:	08 c0       	rjmp	.+16     	; 0x56c2 <vfprintf+0x162>
    56b2:	86 36       	cpi	r24, 0x66	; 102
    56b4:	21 f4       	brne	.+8      	; 0x56be <vfprintf+0x15e>
    56b6:	39 2f       	mov	r19, r25
    56b8:	30 68       	ori	r19, 0x80	; 128
    56ba:	93 2e       	mov	r9, r19
    56bc:	02 c0       	rjmp	.+4      	; 0x56c2 <vfprintf+0x162>
    56be:	11 11       	cpse	r17, r1
    56c0:	11 50       	subi	r17, 0x01	; 1
    56c2:	97 fe       	sbrs	r9, 7
    56c4:	07 c0       	rjmp	.+14     	; 0x56d4 <vfprintf+0x174>
    56c6:	1c 33       	cpi	r17, 0x3C	; 60
    56c8:	50 f4       	brcc	.+20     	; 0x56de <vfprintf+0x17e>
    56ca:	44 24       	eor	r4, r4
    56cc:	43 94       	inc	r4
    56ce:	41 0e       	add	r4, r17
    56d0:	27 e0       	ldi	r18, 0x07	; 7
    56d2:	0b c0       	rjmp	.+22     	; 0x56ea <vfprintf+0x18a>
    56d4:	18 30       	cpi	r17, 0x08	; 8
    56d6:	38 f0       	brcs	.+14     	; 0x56e6 <vfprintf+0x186>
    56d8:	27 e0       	ldi	r18, 0x07	; 7
    56da:	17 e0       	ldi	r17, 0x07	; 7
    56dc:	05 c0       	rjmp	.+10     	; 0x56e8 <vfprintf+0x188>
    56de:	27 e0       	ldi	r18, 0x07	; 7
    56e0:	9c e3       	ldi	r25, 0x3C	; 60
    56e2:	49 2e       	mov	r4, r25
    56e4:	02 c0       	rjmp	.+4      	; 0x56ea <vfprintf+0x18a>
    56e6:	21 2f       	mov	r18, r17
    56e8:	41 2c       	mov	r4, r1
    56ea:	56 01       	movw	r10, r12
    56ec:	84 e0       	ldi	r24, 0x04	; 4
    56ee:	a8 0e       	add	r10, r24
    56f0:	b1 1c       	adc	r11, r1
    56f2:	f6 01       	movw	r30, r12
    56f4:	60 81       	ld	r22, Z
    56f6:	71 81       	ldd	r23, Z+1	; 0x01
    56f8:	82 81       	ldd	r24, Z+2	; 0x02
    56fa:	93 81       	ldd	r25, Z+3	; 0x03
    56fc:	04 2d       	mov	r16, r4
    56fe:	a3 01       	movw	r20, r6
    5700:	4b d5       	rcall	.+2710   	; 0x6198 <__ftoa_engine>
    5702:	6c 01       	movw	r12, r24
    5704:	f9 81       	ldd	r31, Y+1	; 0x01
    5706:	fc 87       	std	Y+12, r31	; 0x0c
    5708:	f0 ff       	sbrs	r31, 0
    570a:	02 c0       	rjmp	.+4      	; 0x5710 <vfprintf+0x1b0>
    570c:	f3 ff       	sbrs	r31, 3
    570e:	06 c0       	rjmp	.+12     	; 0x571c <vfprintf+0x1bc>
    5710:	91 fc       	sbrc	r9, 1
    5712:	06 c0       	rjmp	.+12     	; 0x5720 <vfprintf+0x1c0>
    5714:	92 fe       	sbrs	r9, 2
    5716:	06 c0       	rjmp	.+12     	; 0x5724 <vfprintf+0x1c4>
    5718:	00 e2       	ldi	r16, 0x20	; 32
    571a:	05 c0       	rjmp	.+10     	; 0x5726 <vfprintf+0x1c6>
    571c:	0d e2       	ldi	r16, 0x2D	; 45
    571e:	03 c0       	rjmp	.+6      	; 0x5726 <vfprintf+0x1c6>
    5720:	0b e2       	ldi	r16, 0x2B	; 43
    5722:	01 c0       	rjmp	.+2      	; 0x5726 <vfprintf+0x1c6>
    5724:	00 e0       	ldi	r16, 0x00	; 0
    5726:	8c 85       	ldd	r24, Y+12	; 0x0c
    5728:	8c 70       	andi	r24, 0x0C	; 12
    572a:	19 f0       	breq	.+6      	; 0x5732 <vfprintf+0x1d2>
    572c:	01 11       	cpse	r16, r1
    572e:	43 c2       	rjmp	.+1158   	; 0x5bb6 <vfprintf+0x656>
    5730:	80 c2       	rjmp	.+1280   	; 0x5c32 <vfprintf+0x6d2>
    5732:	97 fe       	sbrs	r9, 7
    5734:	10 c0       	rjmp	.+32     	; 0x5756 <vfprintf+0x1f6>
    5736:	4c 0c       	add	r4, r12
    5738:	fc 85       	ldd	r31, Y+12	; 0x0c
    573a:	f4 ff       	sbrs	r31, 4
    573c:	04 c0       	rjmp	.+8      	; 0x5746 <vfprintf+0x1e6>
    573e:	8a 81       	ldd	r24, Y+2	; 0x02
    5740:	81 33       	cpi	r24, 0x31	; 49
    5742:	09 f4       	brne	.+2      	; 0x5746 <vfprintf+0x1e6>
    5744:	4a 94       	dec	r4
    5746:	14 14       	cp	r1, r4
    5748:	74 f5       	brge	.+92     	; 0x57a6 <vfprintf+0x246>
    574a:	28 e0       	ldi	r18, 0x08	; 8
    574c:	24 15       	cp	r18, r4
    574e:	78 f5       	brcc	.+94     	; 0x57ae <vfprintf+0x24e>
    5750:	88 e0       	ldi	r24, 0x08	; 8
    5752:	48 2e       	mov	r4, r24
    5754:	2c c0       	rjmp	.+88     	; 0x57ae <vfprintf+0x24e>
    5756:	96 fc       	sbrc	r9, 6
    5758:	2a c0       	rjmp	.+84     	; 0x57ae <vfprintf+0x24e>
    575a:	81 2f       	mov	r24, r17
    575c:	90 e0       	ldi	r25, 0x00	; 0
    575e:	8c 15       	cp	r24, r12
    5760:	9d 05       	cpc	r25, r13
    5762:	9c f0       	brlt	.+38     	; 0x578a <vfprintf+0x22a>
    5764:	3c ef       	ldi	r19, 0xFC	; 252
    5766:	c3 16       	cp	r12, r19
    5768:	3f ef       	ldi	r19, 0xFF	; 255
    576a:	d3 06       	cpc	r13, r19
    576c:	74 f0       	brlt	.+28     	; 0x578a <vfprintf+0x22a>
    576e:	89 2d       	mov	r24, r9
    5770:	80 68       	ori	r24, 0x80	; 128
    5772:	98 2e       	mov	r9, r24
    5774:	0a c0       	rjmp	.+20     	; 0x578a <vfprintf+0x22a>
    5776:	e2 e0       	ldi	r30, 0x02	; 2
    5778:	f0 e0       	ldi	r31, 0x00	; 0
    577a:	ec 0f       	add	r30, r28
    577c:	fd 1f       	adc	r31, r29
    577e:	e1 0f       	add	r30, r17
    5780:	f1 1d       	adc	r31, r1
    5782:	80 81       	ld	r24, Z
    5784:	80 33       	cpi	r24, 0x30	; 48
    5786:	19 f4       	brne	.+6      	; 0x578e <vfprintf+0x22e>
    5788:	11 50       	subi	r17, 0x01	; 1
    578a:	11 11       	cpse	r17, r1
    578c:	f4 cf       	rjmp	.-24     	; 0x5776 <vfprintf+0x216>
    578e:	97 fe       	sbrs	r9, 7
    5790:	0e c0       	rjmp	.+28     	; 0x57ae <vfprintf+0x24e>
    5792:	44 24       	eor	r4, r4
    5794:	43 94       	inc	r4
    5796:	41 0e       	add	r4, r17
    5798:	81 2f       	mov	r24, r17
    579a:	90 e0       	ldi	r25, 0x00	; 0
    579c:	c8 16       	cp	r12, r24
    579e:	d9 06       	cpc	r13, r25
    57a0:	2c f4       	brge	.+10     	; 0x57ac <vfprintf+0x24c>
    57a2:	1c 19       	sub	r17, r12
    57a4:	04 c0       	rjmp	.+8      	; 0x57ae <vfprintf+0x24e>
    57a6:	44 24       	eor	r4, r4
    57a8:	43 94       	inc	r4
    57aa:	01 c0       	rjmp	.+2      	; 0x57ae <vfprintf+0x24e>
    57ac:	10 e0       	ldi	r17, 0x00	; 0
    57ae:	97 fe       	sbrs	r9, 7
    57b0:	06 c0       	rjmp	.+12     	; 0x57be <vfprintf+0x25e>
    57b2:	1c 14       	cp	r1, r12
    57b4:	1d 04       	cpc	r1, r13
    57b6:	34 f4       	brge	.+12     	; 0x57c4 <vfprintf+0x264>
    57b8:	c6 01       	movw	r24, r12
    57ba:	01 96       	adiw	r24, 0x01	; 1
    57bc:	05 c0       	rjmp	.+10     	; 0x57c8 <vfprintf+0x268>
    57be:	85 e0       	ldi	r24, 0x05	; 5
    57c0:	90 e0       	ldi	r25, 0x00	; 0
    57c2:	02 c0       	rjmp	.+4      	; 0x57c8 <vfprintf+0x268>
    57c4:	81 e0       	ldi	r24, 0x01	; 1
    57c6:	90 e0       	ldi	r25, 0x00	; 0
    57c8:	01 11       	cpse	r16, r1
    57ca:	01 96       	adiw	r24, 0x01	; 1
    57cc:	11 23       	and	r17, r17
    57ce:	31 f0       	breq	.+12     	; 0x57dc <vfprintf+0x27c>
    57d0:	21 2f       	mov	r18, r17
    57d2:	30 e0       	ldi	r19, 0x00	; 0
    57d4:	2f 5f       	subi	r18, 0xFF	; 255
    57d6:	3f 4f       	sbci	r19, 0xFF	; 255
    57d8:	82 0f       	add	r24, r18
    57da:	93 1f       	adc	r25, r19
    57dc:	25 2d       	mov	r18, r5
    57de:	30 e0       	ldi	r19, 0x00	; 0
    57e0:	82 17       	cp	r24, r18
    57e2:	93 07       	cpc	r25, r19
    57e4:	14 f4       	brge	.+4      	; 0x57ea <vfprintf+0x28a>
    57e6:	58 1a       	sub	r5, r24
    57e8:	01 c0       	rjmp	.+2      	; 0x57ec <vfprintf+0x28c>
    57ea:	51 2c       	mov	r5, r1
    57ec:	89 2d       	mov	r24, r9
    57ee:	89 70       	andi	r24, 0x09	; 9
    57f0:	41 f4       	brne	.+16     	; 0x5802 <vfprintf+0x2a2>
    57f2:	55 20       	and	r5, r5
    57f4:	31 f0       	breq	.+12     	; 0x5802 <vfprintf+0x2a2>
    57f6:	b7 01       	movw	r22, r14
    57f8:	80 e2       	ldi	r24, 0x20	; 32
    57fa:	90 e0       	ldi	r25, 0x00	; 0
    57fc:	0b d6       	rcall	.+3094   	; 0x6414 <fputc>
    57fe:	5a 94       	dec	r5
    5800:	f8 cf       	rjmp	.-16     	; 0x57f2 <vfprintf+0x292>
    5802:	00 23       	and	r16, r16
    5804:	21 f0       	breq	.+8      	; 0x580e <vfprintf+0x2ae>
    5806:	b7 01       	movw	r22, r14
    5808:	80 2f       	mov	r24, r16
    580a:	90 e0       	ldi	r25, 0x00	; 0
    580c:	03 d6       	rcall	.+3078   	; 0x6414 <fputc>
    580e:	93 fc       	sbrc	r9, 3
    5810:	08 c0       	rjmp	.+16     	; 0x5822 <vfprintf+0x2c2>
    5812:	55 20       	and	r5, r5
    5814:	31 f0       	breq	.+12     	; 0x5822 <vfprintf+0x2c2>
    5816:	b7 01       	movw	r22, r14
    5818:	80 e3       	ldi	r24, 0x30	; 48
    581a:	90 e0       	ldi	r25, 0x00	; 0
    581c:	fb d5       	rcall	.+3062   	; 0x6414 <fputc>
    581e:	5a 94       	dec	r5
    5820:	f8 cf       	rjmp	.-16     	; 0x5812 <vfprintf+0x2b2>
    5822:	97 fe       	sbrs	r9, 7
    5824:	4a c0       	rjmp	.+148    	; 0x58ba <vfprintf+0x35a>
    5826:	46 01       	movw	r8, r12
    5828:	d7 fe       	sbrs	r13, 7
    582a:	02 c0       	rjmp	.+4      	; 0x5830 <vfprintf+0x2d0>
    582c:	81 2c       	mov	r8, r1
    582e:	91 2c       	mov	r9, r1
    5830:	c6 01       	movw	r24, r12
    5832:	88 19       	sub	r24, r8
    5834:	99 09       	sbc	r25, r9
    5836:	f3 01       	movw	r30, r6
    5838:	e8 0f       	add	r30, r24
    583a:	f9 1f       	adc	r31, r25
    583c:	fe 87       	std	Y+14, r31	; 0x0e
    583e:	ed 87       	std	Y+13, r30	; 0x0d
    5840:	96 01       	movw	r18, r12
    5842:	24 19       	sub	r18, r4
    5844:	31 09       	sbc	r19, r1
    5846:	38 8b       	std	Y+16, r19	; 0x10
    5848:	2f 87       	std	Y+15, r18	; 0x0f
    584a:	01 2f       	mov	r16, r17
    584c:	10 e0       	ldi	r17, 0x00	; 0
    584e:	11 95       	neg	r17
    5850:	01 95       	neg	r16
    5852:	11 09       	sbc	r17, r1
    5854:	3f ef       	ldi	r19, 0xFF	; 255
    5856:	83 16       	cp	r8, r19
    5858:	93 06       	cpc	r9, r19
    585a:	21 f4       	brne	.+8      	; 0x5864 <vfprintf+0x304>
    585c:	b7 01       	movw	r22, r14
    585e:	8e e2       	ldi	r24, 0x2E	; 46
    5860:	90 e0       	ldi	r25, 0x00	; 0
    5862:	d8 d5       	rcall	.+2992   	; 0x6414 <fputc>
    5864:	c8 14       	cp	r12, r8
    5866:	d9 04       	cpc	r13, r9
    5868:	4c f0       	brlt	.+18     	; 0x587c <vfprintf+0x31c>
    586a:	8f 85       	ldd	r24, Y+15	; 0x0f
    586c:	98 89       	ldd	r25, Y+16	; 0x10
    586e:	88 15       	cp	r24, r8
    5870:	99 05       	cpc	r25, r9
    5872:	24 f4       	brge	.+8      	; 0x587c <vfprintf+0x31c>
    5874:	ed 85       	ldd	r30, Y+13	; 0x0d
    5876:	fe 85       	ldd	r31, Y+14	; 0x0e
    5878:	81 81       	ldd	r24, Z+1	; 0x01
    587a:	01 c0       	rjmp	.+2      	; 0x587e <vfprintf+0x31e>
    587c:	80 e3       	ldi	r24, 0x30	; 48
    587e:	f1 e0       	ldi	r31, 0x01	; 1
    5880:	8f 1a       	sub	r8, r31
    5882:	91 08       	sbc	r9, r1
    5884:	2d 85       	ldd	r18, Y+13	; 0x0d
    5886:	3e 85       	ldd	r19, Y+14	; 0x0e
    5888:	2f 5f       	subi	r18, 0xFF	; 255
    588a:	3f 4f       	sbci	r19, 0xFF	; 255
    588c:	3e 87       	std	Y+14, r19	; 0x0e
    588e:	2d 87       	std	Y+13, r18	; 0x0d
    5890:	80 16       	cp	r8, r16
    5892:	91 06       	cpc	r9, r17
    5894:	24 f0       	brlt	.+8      	; 0x589e <vfprintf+0x33e>
    5896:	b7 01       	movw	r22, r14
    5898:	90 e0       	ldi	r25, 0x00	; 0
    589a:	bc d5       	rcall	.+2936   	; 0x6414 <fputc>
    589c:	db cf       	rjmp	.-74     	; 0x5854 <vfprintf+0x2f4>
    589e:	c8 14       	cp	r12, r8
    58a0:	d9 04       	cpc	r13, r9
    58a2:	41 f4       	brne	.+16     	; 0x58b4 <vfprintf+0x354>
    58a4:	9a 81       	ldd	r25, Y+2	; 0x02
    58a6:	96 33       	cpi	r25, 0x36	; 54
    58a8:	20 f4       	brcc	.+8      	; 0x58b2 <vfprintf+0x352>
    58aa:	95 33       	cpi	r25, 0x35	; 53
    58ac:	19 f4       	brne	.+6      	; 0x58b4 <vfprintf+0x354>
    58ae:	3c 85       	ldd	r19, Y+12	; 0x0c
    58b0:	34 ff       	sbrs	r19, 4
    58b2:	81 e3       	ldi	r24, 0x31	; 49
    58b4:	b7 01       	movw	r22, r14
    58b6:	90 e0       	ldi	r25, 0x00	; 0
    58b8:	48 c0       	rjmp	.+144    	; 0x594a <vfprintf+0x3ea>
    58ba:	8a 81       	ldd	r24, Y+2	; 0x02
    58bc:	81 33       	cpi	r24, 0x31	; 49
    58be:	19 f0       	breq	.+6      	; 0x58c6 <vfprintf+0x366>
    58c0:	9c 85       	ldd	r25, Y+12	; 0x0c
    58c2:	9f 7e       	andi	r25, 0xEF	; 239
    58c4:	9c 87       	std	Y+12, r25	; 0x0c
    58c6:	b7 01       	movw	r22, r14
    58c8:	90 e0       	ldi	r25, 0x00	; 0
    58ca:	a4 d5       	rcall	.+2888   	; 0x6414 <fputc>
    58cc:	11 11       	cpse	r17, r1
    58ce:	05 c0       	rjmp	.+10     	; 0x58da <vfprintf+0x37a>
    58d0:	94 fc       	sbrc	r9, 4
    58d2:	16 c0       	rjmp	.+44     	; 0x5900 <vfprintf+0x3a0>
    58d4:	85 e6       	ldi	r24, 0x65	; 101
    58d6:	90 e0       	ldi	r25, 0x00	; 0
    58d8:	15 c0       	rjmp	.+42     	; 0x5904 <vfprintf+0x3a4>
    58da:	b7 01       	movw	r22, r14
    58dc:	8e e2       	ldi	r24, 0x2E	; 46
    58de:	90 e0       	ldi	r25, 0x00	; 0
    58e0:	99 d5       	rcall	.+2866   	; 0x6414 <fputc>
    58e2:	1e 5f       	subi	r17, 0xFE	; 254
    58e4:	82 e0       	ldi	r24, 0x02	; 2
    58e6:	01 e0       	ldi	r16, 0x01	; 1
    58e8:	08 0f       	add	r16, r24
    58ea:	f3 01       	movw	r30, r6
    58ec:	e8 0f       	add	r30, r24
    58ee:	f1 1d       	adc	r31, r1
    58f0:	80 81       	ld	r24, Z
    58f2:	b7 01       	movw	r22, r14
    58f4:	90 e0       	ldi	r25, 0x00	; 0
    58f6:	8e d5       	rcall	.+2844   	; 0x6414 <fputc>
    58f8:	80 2f       	mov	r24, r16
    58fa:	01 13       	cpse	r16, r17
    58fc:	f4 cf       	rjmp	.-24     	; 0x58e6 <vfprintf+0x386>
    58fe:	e8 cf       	rjmp	.-48     	; 0x58d0 <vfprintf+0x370>
    5900:	85 e4       	ldi	r24, 0x45	; 69
    5902:	90 e0       	ldi	r25, 0x00	; 0
    5904:	b7 01       	movw	r22, r14
    5906:	86 d5       	rcall	.+2828   	; 0x6414 <fputc>
    5908:	d7 fc       	sbrc	r13, 7
    590a:	06 c0       	rjmp	.+12     	; 0x5918 <vfprintf+0x3b8>
    590c:	c1 14       	cp	r12, r1
    590e:	d1 04       	cpc	r13, r1
    5910:	41 f4       	brne	.+16     	; 0x5922 <vfprintf+0x3c2>
    5912:	ec 85       	ldd	r30, Y+12	; 0x0c
    5914:	e4 ff       	sbrs	r30, 4
    5916:	05 c0       	rjmp	.+10     	; 0x5922 <vfprintf+0x3c2>
    5918:	d1 94       	neg	r13
    591a:	c1 94       	neg	r12
    591c:	d1 08       	sbc	r13, r1
    591e:	8d e2       	ldi	r24, 0x2D	; 45
    5920:	01 c0       	rjmp	.+2      	; 0x5924 <vfprintf+0x3c4>
    5922:	8b e2       	ldi	r24, 0x2B	; 43
    5924:	b7 01       	movw	r22, r14
    5926:	90 e0       	ldi	r25, 0x00	; 0
    5928:	75 d5       	rcall	.+2794   	; 0x6414 <fputc>
    592a:	80 e3       	ldi	r24, 0x30	; 48
    592c:	2a e0       	ldi	r18, 0x0A	; 10
    592e:	c2 16       	cp	r12, r18
    5930:	d1 04       	cpc	r13, r1
    5932:	2c f0       	brlt	.+10     	; 0x593e <vfprintf+0x3de>
    5934:	8f 5f       	subi	r24, 0xFF	; 255
    5936:	fa e0       	ldi	r31, 0x0A	; 10
    5938:	cf 1a       	sub	r12, r31
    593a:	d1 08       	sbc	r13, r1
    593c:	f7 cf       	rjmp	.-18     	; 0x592c <vfprintf+0x3cc>
    593e:	b7 01       	movw	r22, r14
    5940:	90 e0       	ldi	r25, 0x00	; 0
    5942:	68 d5       	rcall	.+2768   	; 0x6414 <fputc>
    5944:	b7 01       	movw	r22, r14
    5946:	c6 01       	movw	r24, r12
    5948:	c0 96       	adiw	r24, 0x30	; 48
    594a:	64 d5       	rcall	.+2760   	; 0x6414 <fputc>
    594c:	49 c1       	rjmp	.+658    	; 0x5be0 <vfprintf+0x680>
    594e:	83 36       	cpi	r24, 0x63	; 99
    5950:	31 f0       	breq	.+12     	; 0x595e <vfprintf+0x3fe>
    5952:	83 37       	cpi	r24, 0x73	; 115
    5954:	79 f0       	breq	.+30     	; 0x5974 <vfprintf+0x414>
    5956:	83 35       	cpi	r24, 0x53	; 83
    5958:	09 f0       	breq	.+2      	; 0x595c <vfprintf+0x3fc>
    595a:	52 c0       	rjmp	.+164    	; 0x5a00 <vfprintf+0x4a0>
    595c:	1f c0       	rjmp	.+62     	; 0x599c <vfprintf+0x43c>
    595e:	56 01       	movw	r10, r12
    5960:	32 e0       	ldi	r19, 0x02	; 2
    5962:	a3 0e       	add	r10, r19
    5964:	b1 1c       	adc	r11, r1
    5966:	f6 01       	movw	r30, r12
    5968:	80 81       	ld	r24, Z
    596a:	89 83       	std	Y+1, r24	; 0x01
    596c:	01 e0       	ldi	r16, 0x01	; 1
    596e:	10 e0       	ldi	r17, 0x00	; 0
    5970:	63 01       	movw	r12, r6
    5972:	11 c0       	rjmp	.+34     	; 0x5996 <vfprintf+0x436>
    5974:	56 01       	movw	r10, r12
    5976:	f2 e0       	ldi	r31, 0x02	; 2
    5978:	af 0e       	add	r10, r31
    597a:	b1 1c       	adc	r11, r1
    597c:	f6 01       	movw	r30, r12
    597e:	c0 80       	ld	r12, Z
    5980:	d1 80       	ldd	r13, Z+1	; 0x01
    5982:	96 fe       	sbrs	r9, 6
    5984:	03 c0       	rjmp	.+6      	; 0x598c <vfprintf+0x42c>
    5986:	61 2f       	mov	r22, r17
    5988:	70 e0       	ldi	r23, 0x00	; 0
    598a:	02 c0       	rjmp	.+4      	; 0x5990 <vfprintf+0x430>
    598c:	6f ef       	ldi	r22, 0xFF	; 255
    598e:	7f ef       	ldi	r23, 0xFF	; 255
    5990:	c6 01       	movw	r24, r12
    5992:	2d d5       	rcall	.+2650   	; 0x63ee <strnlen>
    5994:	8c 01       	movw	r16, r24
    5996:	f9 2d       	mov	r31, r9
    5998:	ff 77       	andi	r31, 0x7F	; 127
    599a:	13 c0       	rjmp	.+38     	; 0x59c2 <vfprintf+0x462>
    599c:	56 01       	movw	r10, r12
    599e:	22 e0       	ldi	r18, 0x02	; 2
    59a0:	a2 0e       	add	r10, r18
    59a2:	b1 1c       	adc	r11, r1
    59a4:	f6 01       	movw	r30, r12
    59a6:	c0 80       	ld	r12, Z
    59a8:	d1 80       	ldd	r13, Z+1	; 0x01
    59aa:	96 fe       	sbrs	r9, 6
    59ac:	03 c0       	rjmp	.+6      	; 0x59b4 <vfprintf+0x454>
    59ae:	61 2f       	mov	r22, r17
    59b0:	70 e0       	ldi	r23, 0x00	; 0
    59b2:	02 c0       	rjmp	.+4      	; 0x59b8 <vfprintf+0x458>
    59b4:	6f ef       	ldi	r22, 0xFF	; 255
    59b6:	7f ef       	ldi	r23, 0xFF	; 255
    59b8:	c6 01       	movw	r24, r12
    59ba:	ea d4       	rcall	.+2516   	; 0x6390 <strnlen_P>
    59bc:	8c 01       	movw	r16, r24
    59be:	f9 2d       	mov	r31, r9
    59c0:	f0 68       	ori	r31, 0x80	; 128
    59c2:	9f 2e       	mov	r9, r31
    59c4:	f3 fd       	sbrc	r31, 3
    59c6:	18 c0       	rjmp	.+48     	; 0x59f8 <vfprintf+0x498>
    59c8:	85 2d       	mov	r24, r5
    59ca:	90 e0       	ldi	r25, 0x00	; 0
    59cc:	08 17       	cp	r16, r24
    59ce:	19 07       	cpc	r17, r25
    59d0:	98 f4       	brcc	.+38     	; 0x59f8 <vfprintf+0x498>
    59d2:	b7 01       	movw	r22, r14
    59d4:	80 e2       	ldi	r24, 0x20	; 32
    59d6:	90 e0       	ldi	r25, 0x00	; 0
    59d8:	1d d5       	rcall	.+2618   	; 0x6414 <fputc>
    59da:	5a 94       	dec	r5
    59dc:	f5 cf       	rjmp	.-22     	; 0x59c8 <vfprintf+0x468>
    59de:	f6 01       	movw	r30, r12
    59e0:	97 fc       	sbrc	r9, 7
    59e2:	85 91       	lpm	r24, Z+
    59e4:	97 fe       	sbrs	r9, 7
    59e6:	81 91       	ld	r24, Z+
    59e8:	6f 01       	movw	r12, r30
    59ea:	b7 01       	movw	r22, r14
    59ec:	90 e0       	ldi	r25, 0x00	; 0
    59ee:	12 d5       	rcall	.+2596   	; 0x6414 <fputc>
    59f0:	51 10       	cpse	r5, r1
    59f2:	5a 94       	dec	r5
    59f4:	01 50       	subi	r16, 0x01	; 1
    59f6:	11 09       	sbc	r17, r1
    59f8:	01 15       	cp	r16, r1
    59fa:	11 05       	cpc	r17, r1
    59fc:	81 f7       	brne	.-32     	; 0x59de <vfprintf+0x47e>
    59fe:	f0 c0       	rjmp	.+480    	; 0x5be0 <vfprintf+0x680>
    5a00:	84 36       	cpi	r24, 0x64	; 100
    5a02:	11 f0       	breq	.+4      	; 0x5a08 <vfprintf+0x4a8>
    5a04:	89 36       	cpi	r24, 0x69	; 105
    5a06:	59 f5       	brne	.+86     	; 0x5a5e <vfprintf+0x4fe>
    5a08:	56 01       	movw	r10, r12
    5a0a:	97 fe       	sbrs	r9, 7
    5a0c:	09 c0       	rjmp	.+18     	; 0x5a20 <vfprintf+0x4c0>
    5a0e:	24 e0       	ldi	r18, 0x04	; 4
    5a10:	a2 0e       	add	r10, r18
    5a12:	b1 1c       	adc	r11, r1
    5a14:	f6 01       	movw	r30, r12
    5a16:	60 81       	ld	r22, Z
    5a18:	71 81       	ldd	r23, Z+1	; 0x01
    5a1a:	82 81       	ldd	r24, Z+2	; 0x02
    5a1c:	93 81       	ldd	r25, Z+3	; 0x03
    5a1e:	0a c0       	rjmp	.+20     	; 0x5a34 <vfprintf+0x4d4>
    5a20:	f2 e0       	ldi	r31, 0x02	; 2
    5a22:	af 0e       	add	r10, r31
    5a24:	b1 1c       	adc	r11, r1
    5a26:	f6 01       	movw	r30, r12
    5a28:	60 81       	ld	r22, Z
    5a2a:	71 81       	ldd	r23, Z+1	; 0x01
    5a2c:	07 2e       	mov	r0, r23
    5a2e:	00 0c       	add	r0, r0
    5a30:	88 0b       	sbc	r24, r24
    5a32:	99 0b       	sbc	r25, r25
    5a34:	f9 2d       	mov	r31, r9
    5a36:	ff 76       	andi	r31, 0x6F	; 111
    5a38:	9f 2e       	mov	r9, r31
    5a3a:	97 ff       	sbrs	r25, 7
    5a3c:	09 c0       	rjmp	.+18     	; 0x5a50 <vfprintf+0x4f0>
    5a3e:	90 95       	com	r25
    5a40:	80 95       	com	r24
    5a42:	70 95       	com	r23
    5a44:	61 95       	neg	r22
    5a46:	7f 4f       	sbci	r23, 0xFF	; 255
    5a48:	8f 4f       	sbci	r24, 0xFF	; 255
    5a4a:	9f 4f       	sbci	r25, 0xFF	; 255
    5a4c:	f0 68       	ori	r31, 0x80	; 128
    5a4e:	9f 2e       	mov	r9, r31
    5a50:	2a e0       	ldi	r18, 0x0A	; 10
    5a52:	30 e0       	ldi	r19, 0x00	; 0
    5a54:	a3 01       	movw	r20, r6
    5a56:	48 d5       	rcall	.+2704   	; 0x64e8 <__ultoa_invert>
    5a58:	c8 2e       	mov	r12, r24
    5a5a:	c6 18       	sub	r12, r6
    5a5c:	3e c0       	rjmp	.+124    	; 0x5ada <vfprintf+0x57a>
    5a5e:	09 2d       	mov	r16, r9
    5a60:	85 37       	cpi	r24, 0x75	; 117
    5a62:	21 f4       	brne	.+8      	; 0x5a6c <vfprintf+0x50c>
    5a64:	0f 7e       	andi	r16, 0xEF	; 239
    5a66:	2a e0       	ldi	r18, 0x0A	; 10
    5a68:	30 e0       	ldi	r19, 0x00	; 0
    5a6a:	1d c0       	rjmp	.+58     	; 0x5aa6 <vfprintf+0x546>
    5a6c:	09 7f       	andi	r16, 0xF9	; 249
    5a6e:	8f 36       	cpi	r24, 0x6F	; 111
    5a70:	91 f0       	breq	.+36     	; 0x5a96 <vfprintf+0x536>
    5a72:	18 f4       	brcc	.+6      	; 0x5a7a <vfprintf+0x51a>
    5a74:	88 35       	cpi	r24, 0x58	; 88
    5a76:	59 f0       	breq	.+22     	; 0x5a8e <vfprintf+0x52e>
    5a78:	bc c0       	rjmp	.+376    	; 0x5bf2 <vfprintf+0x692>
    5a7a:	80 37       	cpi	r24, 0x70	; 112
    5a7c:	19 f0       	breq	.+6      	; 0x5a84 <vfprintf+0x524>
    5a7e:	88 37       	cpi	r24, 0x78	; 120
    5a80:	11 f0       	breq	.+4      	; 0x5a86 <vfprintf+0x526>
    5a82:	b7 c0       	rjmp	.+366    	; 0x5bf2 <vfprintf+0x692>
    5a84:	00 61       	ori	r16, 0x10	; 16
    5a86:	04 ff       	sbrs	r16, 4
    5a88:	09 c0       	rjmp	.+18     	; 0x5a9c <vfprintf+0x53c>
    5a8a:	04 60       	ori	r16, 0x04	; 4
    5a8c:	07 c0       	rjmp	.+14     	; 0x5a9c <vfprintf+0x53c>
    5a8e:	94 fe       	sbrs	r9, 4
    5a90:	08 c0       	rjmp	.+16     	; 0x5aa2 <vfprintf+0x542>
    5a92:	06 60       	ori	r16, 0x06	; 6
    5a94:	06 c0       	rjmp	.+12     	; 0x5aa2 <vfprintf+0x542>
    5a96:	28 e0       	ldi	r18, 0x08	; 8
    5a98:	30 e0       	ldi	r19, 0x00	; 0
    5a9a:	05 c0       	rjmp	.+10     	; 0x5aa6 <vfprintf+0x546>
    5a9c:	20 e1       	ldi	r18, 0x10	; 16
    5a9e:	30 e0       	ldi	r19, 0x00	; 0
    5aa0:	02 c0       	rjmp	.+4      	; 0x5aa6 <vfprintf+0x546>
    5aa2:	20 e1       	ldi	r18, 0x10	; 16
    5aa4:	32 e0       	ldi	r19, 0x02	; 2
    5aa6:	56 01       	movw	r10, r12
    5aa8:	07 ff       	sbrs	r16, 7
    5aaa:	09 c0       	rjmp	.+18     	; 0x5abe <vfprintf+0x55e>
    5aac:	84 e0       	ldi	r24, 0x04	; 4
    5aae:	a8 0e       	add	r10, r24
    5ab0:	b1 1c       	adc	r11, r1
    5ab2:	f6 01       	movw	r30, r12
    5ab4:	60 81       	ld	r22, Z
    5ab6:	71 81       	ldd	r23, Z+1	; 0x01
    5ab8:	82 81       	ldd	r24, Z+2	; 0x02
    5aba:	93 81       	ldd	r25, Z+3	; 0x03
    5abc:	08 c0       	rjmp	.+16     	; 0x5ace <vfprintf+0x56e>
    5abe:	f2 e0       	ldi	r31, 0x02	; 2
    5ac0:	af 0e       	add	r10, r31
    5ac2:	b1 1c       	adc	r11, r1
    5ac4:	f6 01       	movw	r30, r12
    5ac6:	60 81       	ld	r22, Z
    5ac8:	71 81       	ldd	r23, Z+1	; 0x01
    5aca:	80 e0       	ldi	r24, 0x00	; 0
    5acc:	90 e0       	ldi	r25, 0x00	; 0
    5ace:	a3 01       	movw	r20, r6
    5ad0:	0b d5       	rcall	.+2582   	; 0x64e8 <__ultoa_invert>
    5ad2:	c8 2e       	mov	r12, r24
    5ad4:	c6 18       	sub	r12, r6
    5ad6:	0f 77       	andi	r16, 0x7F	; 127
    5ad8:	90 2e       	mov	r9, r16
    5ada:	96 fe       	sbrs	r9, 6
    5adc:	0b c0       	rjmp	.+22     	; 0x5af4 <vfprintf+0x594>
    5ade:	09 2d       	mov	r16, r9
    5ae0:	0e 7f       	andi	r16, 0xFE	; 254
    5ae2:	c1 16       	cp	r12, r17
    5ae4:	50 f4       	brcc	.+20     	; 0x5afa <vfprintf+0x59a>
    5ae6:	94 fe       	sbrs	r9, 4
    5ae8:	0a c0       	rjmp	.+20     	; 0x5afe <vfprintf+0x59e>
    5aea:	92 fc       	sbrc	r9, 2
    5aec:	08 c0       	rjmp	.+16     	; 0x5afe <vfprintf+0x59e>
    5aee:	09 2d       	mov	r16, r9
    5af0:	0e 7e       	andi	r16, 0xEE	; 238
    5af2:	05 c0       	rjmp	.+10     	; 0x5afe <vfprintf+0x59e>
    5af4:	dc 2c       	mov	r13, r12
    5af6:	09 2d       	mov	r16, r9
    5af8:	03 c0       	rjmp	.+6      	; 0x5b00 <vfprintf+0x5a0>
    5afa:	dc 2c       	mov	r13, r12
    5afc:	01 c0       	rjmp	.+2      	; 0x5b00 <vfprintf+0x5a0>
    5afe:	d1 2e       	mov	r13, r17
    5b00:	04 ff       	sbrs	r16, 4
    5b02:	0d c0       	rjmp	.+26     	; 0x5b1e <vfprintf+0x5be>
    5b04:	fe 01       	movw	r30, r28
    5b06:	ec 0d       	add	r30, r12
    5b08:	f1 1d       	adc	r31, r1
    5b0a:	80 81       	ld	r24, Z
    5b0c:	80 33       	cpi	r24, 0x30	; 48
    5b0e:	11 f4       	brne	.+4      	; 0x5b14 <vfprintf+0x5b4>
    5b10:	09 7e       	andi	r16, 0xE9	; 233
    5b12:	09 c0       	rjmp	.+18     	; 0x5b26 <vfprintf+0x5c6>
    5b14:	02 ff       	sbrs	r16, 2
    5b16:	06 c0       	rjmp	.+12     	; 0x5b24 <vfprintf+0x5c4>
    5b18:	d3 94       	inc	r13
    5b1a:	d3 94       	inc	r13
    5b1c:	04 c0       	rjmp	.+8      	; 0x5b26 <vfprintf+0x5c6>
    5b1e:	80 2f       	mov	r24, r16
    5b20:	86 78       	andi	r24, 0x86	; 134
    5b22:	09 f0       	breq	.+2      	; 0x5b26 <vfprintf+0x5c6>
    5b24:	d3 94       	inc	r13
    5b26:	03 fd       	sbrc	r16, 3
    5b28:	10 c0       	rjmp	.+32     	; 0x5b4a <vfprintf+0x5ea>
    5b2a:	00 ff       	sbrs	r16, 0
    5b2c:	06 c0       	rjmp	.+12     	; 0x5b3a <vfprintf+0x5da>
    5b2e:	1c 2d       	mov	r17, r12
    5b30:	d5 14       	cp	r13, r5
    5b32:	78 f4       	brcc	.+30     	; 0x5b52 <vfprintf+0x5f2>
    5b34:	15 0d       	add	r17, r5
    5b36:	1d 19       	sub	r17, r13
    5b38:	0c c0       	rjmp	.+24     	; 0x5b52 <vfprintf+0x5f2>
    5b3a:	d5 14       	cp	r13, r5
    5b3c:	50 f4       	brcc	.+20     	; 0x5b52 <vfprintf+0x5f2>
    5b3e:	b7 01       	movw	r22, r14
    5b40:	80 e2       	ldi	r24, 0x20	; 32
    5b42:	90 e0       	ldi	r25, 0x00	; 0
    5b44:	67 d4       	rcall	.+2254   	; 0x6414 <fputc>
    5b46:	d3 94       	inc	r13
    5b48:	f8 cf       	rjmp	.-16     	; 0x5b3a <vfprintf+0x5da>
    5b4a:	d5 14       	cp	r13, r5
    5b4c:	10 f4       	brcc	.+4      	; 0x5b52 <vfprintf+0x5f2>
    5b4e:	5d 18       	sub	r5, r13
    5b50:	01 c0       	rjmp	.+2      	; 0x5b54 <vfprintf+0x5f4>
    5b52:	51 2c       	mov	r5, r1
    5b54:	04 ff       	sbrs	r16, 4
    5b56:	0f c0       	rjmp	.+30     	; 0x5b76 <vfprintf+0x616>
    5b58:	b7 01       	movw	r22, r14
    5b5a:	80 e3       	ldi	r24, 0x30	; 48
    5b5c:	90 e0       	ldi	r25, 0x00	; 0
    5b5e:	5a d4       	rcall	.+2228   	; 0x6414 <fputc>
    5b60:	02 ff       	sbrs	r16, 2
    5b62:	16 c0       	rjmp	.+44     	; 0x5b90 <vfprintf+0x630>
    5b64:	01 fd       	sbrc	r16, 1
    5b66:	03 c0       	rjmp	.+6      	; 0x5b6e <vfprintf+0x60e>
    5b68:	88 e7       	ldi	r24, 0x78	; 120
    5b6a:	90 e0       	ldi	r25, 0x00	; 0
    5b6c:	02 c0       	rjmp	.+4      	; 0x5b72 <vfprintf+0x612>
    5b6e:	88 e5       	ldi	r24, 0x58	; 88
    5b70:	90 e0       	ldi	r25, 0x00	; 0
    5b72:	b7 01       	movw	r22, r14
    5b74:	0c c0       	rjmp	.+24     	; 0x5b8e <vfprintf+0x62e>
    5b76:	80 2f       	mov	r24, r16
    5b78:	86 78       	andi	r24, 0x86	; 134
    5b7a:	51 f0       	breq	.+20     	; 0x5b90 <vfprintf+0x630>
    5b7c:	01 ff       	sbrs	r16, 1
    5b7e:	02 c0       	rjmp	.+4      	; 0x5b84 <vfprintf+0x624>
    5b80:	8b e2       	ldi	r24, 0x2B	; 43
    5b82:	01 c0       	rjmp	.+2      	; 0x5b86 <vfprintf+0x626>
    5b84:	80 e2       	ldi	r24, 0x20	; 32
    5b86:	07 fd       	sbrc	r16, 7
    5b88:	8d e2       	ldi	r24, 0x2D	; 45
    5b8a:	b7 01       	movw	r22, r14
    5b8c:	90 e0       	ldi	r25, 0x00	; 0
    5b8e:	42 d4       	rcall	.+2180   	; 0x6414 <fputc>
    5b90:	c1 16       	cp	r12, r17
    5b92:	30 f4       	brcc	.+12     	; 0x5ba0 <vfprintf+0x640>
    5b94:	b7 01       	movw	r22, r14
    5b96:	80 e3       	ldi	r24, 0x30	; 48
    5b98:	90 e0       	ldi	r25, 0x00	; 0
    5b9a:	3c d4       	rcall	.+2168   	; 0x6414 <fputc>
    5b9c:	11 50       	subi	r17, 0x01	; 1
    5b9e:	f8 cf       	rjmp	.-16     	; 0x5b90 <vfprintf+0x630>
    5ba0:	ca 94       	dec	r12
    5ba2:	f3 01       	movw	r30, r6
    5ba4:	ec 0d       	add	r30, r12
    5ba6:	f1 1d       	adc	r31, r1
    5ba8:	80 81       	ld	r24, Z
    5baa:	b7 01       	movw	r22, r14
    5bac:	90 e0       	ldi	r25, 0x00	; 0
    5bae:	32 d4       	rcall	.+2148   	; 0x6414 <fputc>
    5bb0:	c1 10       	cpse	r12, r1
    5bb2:	f6 cf       	rjmp	.-20     	; 0x5ba0 <vfprintf+0x640>
    5bb4:	15 c0       	rjmp	.+42     	; 0x5be0 <vfprintf+0x680>
    5bb6:	f4 e0       	ldi	r31, 0x04	; 4
    5bb8:	f5 15       	cp	r31, r5
    5bba:	50 f5       	brcc	.+84     	; 0x5c10 <vfprintf+0x6b0>
    5bbc:	84 e0       	ldi	r24, 0x04	; 4
    5bbe:	58 1a       	sub	r5, r24
    5bc0:	93 fe       	sbrs	r9, 3
    5bc2:	1e c0       	rjmp	.+60     	; 0x5c00 <vfprintf+0x6a0>
    5bc4:	01 11       	cpse	r16, r1
    5bc6:	25 c0       	rjmp	.+74     	; 0x5c12 <vfprintf+0x6b2>
    5bc8:	2c 85       	ldd	r18, Y+12	; 0x0c
    5bca:	23 ff       	sbrs	r18, 3
    5bcc:	27 c0       	rjmp	.+78     	; 0x5c1c <vfprintf+0x6bc>
    5bce:	0c e8       	ldi	r16, 0x8C	; 140
    5bd0:	10 e0       	ldi	r17, 0x00	; 0
    5bd2:	39 2d       	mov	r19, r9
    5bd4:	30 71       	andi	r19, 0x10	; 16
    5bd6:	93 2e       	mov	r9, r19
    5bd8:	f8 01       	movw	r30, r16
    5bda:	84 91       	lpm	r24, Z
    5bdc:	81 11       	cpse	r24, r1
    5bde:	21 c0       	rjmp	.+66     	; 0x5c22 <vfprintf+0x6c2>
    5be0:	55 20       	and	r5, r5
    5be2:	09 f4       	brne	.+2      	; 0x5be6 <vfprintf+0x686>
    5be4:	fc cc       	rjmp	.-1544   	; 0x55de <vfprintf+0x7e>
    5be6:	b7 01       	movw	r22, r14
    5be8:	80 e2       	ldi	r24, 0x20	; 32
    5bea:	90 e0       	ldi	r25, 0x00	; 0
    5bec:	13 d4       	rcall	.+2086   	; 0x6414 <fputc>
    5bee:	5a 94       	dec	r5
    5bf0:	f7 cf       	rjmp	.-18     	; 0x5be0 <vfprintf+0x680>
    5bf2:	f7 01       	movw	r30, r14
    5bf4:	86 81       	ldd	r24, Z+6	; 0x06
    5bf6:	97 81       	ldd	r25, Z+7	; 0x07
    5bf8:	23 c0       	rjmp	.+70     	; 0x5c40 <vfprintf+0x6e0>
    5bfa:	8f ef       	ldi	r24, 0xFF	; 255
    5bfc:	9f ef       	ldi	r25, 0xFF	; 255
    5bfe:	20 c0       	rjmp	.+64     	; 0x5c40 <vfprintf+0x6e0>
    5c00:	b7 01       	movw	r22, r14
    5c02:	80 e2       	ldi	r24, 0x20	; 32
    5c04:	90 e0       	ldi	r25, 0x00	; 0
    5c06:	06 d4       	rcall	.+2060   	; 0x6414 <fputc>
    5c08:	5a 94       	dec	r5
    5c0a:	51 10       	cpse	r5, r1
    5c0c:	f9 cf       	rjmp	.-14     	; 0x5c00 <vfprintf+0x6a0>
    5c0e:	da cf       	rjmp	.-76     	; 0x5bc4 <vfprintf+0x664>
    5c10:	51 2c       	mov	r5, r1
    5c12:	b7 01       	movw	r22, r14
    5c14:	80 2f       	mov	r24, r16
    5c16:	90 e0       	ldi	r25, 0x00	; 0
    5c18:	fd d3       	rcall	.+2042   	; 0x6414 <fputc>
    5c1a:	d6 cf       	rjmp	.-84     	; 0x5bc8 <vfprintf+0x668>
    5c1c:	00 e9       	ldi	r16, 0x90	; 144
    5c1e:	10 e0       	ldi	r17, 0x00	; 0
    5c20:	d8 cf       	rjmp	.-80     	; 0x5bd2 <vfprintf+0x672>
    5c22:	91 10       	cpse	r9, r1
    5c24:	80 52       	subi	r24, 0x20	; 32
    5c26:	b7 01       	movw	r22, r14
    5c28:	90 e0       	ldi	r25, 0x00	; 0
    5c2a:	f4 d3       	rcall	.+2024   	; 0x6414 <fputc>
    5c2c:	0f 5f       	subi	r16, 0xFF	; 255
    5c2e:	1f 4f       	sbci	r17, 0xFF	; 255
    5c30:	d3 cf       	rjmp	.-90     	; 0x5bd8 <vfprintf+0x678>
    5c32:	23 e0       	ldi	r18, 0x03	; 3
    5c34:	25 15       	cp	r18, r5
    5c36:	10 f4       	brcc	.+4      	; 0x5c3c <vfprintf+0x6dc>
    5c38:	83 e0       	ldi	r24, 0x03	; 3
    5c3a:	c1 cf       	rjmp	.-126    	; 0x5bbe <vfprintf+0x65e>
    5c3c:	51 2c       	mov	r5, r1
    5c3e:	c4 cf       	rjmp	.-120    	; 0x5bc8 <vfprintf+0x668>
    5c40:	60 96       	adiw	r28, 0x10	; 16
    5c42:	0f b6       	in	r0, 0x3f	; 63
    5c44:	f8 94       	cli
    5c46:	de bf       	out	0x3e, r29	; 62
    5c48:	0f be       	out	0x3f, r0	; 63
    5c4a:	cd bf       	out	0x3d, r28	; 61
    5c4c:	df 91       	pop	r29
    5c4e:	cf 91       	pop	r28
    5c50:	1f 91       	pop	r17
    5c52:	0f 91       	pop	r16
    5c54:	ff 90       	pop	r15
    5c56:	ef 90       	pop	r14
    5c58:	df 90       	pop	r13
    5c5a:	cf 90       	pop	r12
    5c5c:	bf 90       	pop	r11
    5c5e:	af 90       	pop	r10
    5c60:	9f 90       	pop	r9
    5c62:	8f 90       	pop	r8
    5c64:	7f 90       	pop	r7
    5c66:	6f 90       	pop	r6
    5c68:	5f 90       	pop	r5
    5c6a:	4f 90       	pop	r4
    5c6c:	3f 90       	pop	r3
    5c6e:	2f 90       	pop	r2
    5c70:	08 95       	ret

00005c72 <__divmodhi4>:
    5c72:	97 fb       	bst	r25, 7
    5c74:	07 2e       	mov	r0, r23
    5c76:	16 f4       	brtc	.+4      	; 0x5c7c <__divmodhi4+0xa>
    5c78:	00 94       	com	r0
    5c7a:	06 d0       	rcall	.+12     	; 0x5c88 <__divmodhi4_neg1>
    5c7c:	77 fd       	sbrc	r23, 7
    5c7e:	08 d0       	rcall	.+16     	; 0x5c90 <__divmodhi4_neg2>
    5c80:	0b d0       	rcall	.+22     	; 0x5c98 <__udivmodhi4>
    5c82:	07 fc       	sbrc	r0, 7
    5c84:	05 d0       	rcall	.+10     	; 0x5c90 <__divmodhi4_neg2>
    5c86:	3e f4       	brtc	.+14     	; 0x5c96 <__divmodhi4_exit>

00005c88 <__divmodhi4_neg1>:
    5c88:	90 95       	com	r25
    5c8a:	81 95       	neg	r24
    5c8c:	9f 4f       	sbci	r25, 0xFF	; 255
    5c8e:	08 95       	ret

00005c90 <__divmodhi4_neg2>:
    5c90:	70 95       	com	r23
    5c92:	61 95       	neg	r22
    5c94:	7f 4f       	sbci	r23, 0xFF	; 255

00005c96 <__divmodhi4_exit>:
    5c96:	08 95       	ret

00005c98 <__udivmodhi4>:
    5c98:	aa 1b       	sub	r26, r26
    5c9a:	bb 1b       	sub	r27, r27
    5c9c:	51 e1       	ldi	r21, 0x11	; 17
    5c9e:	07 c0       	rjmp	.+14     	; 0x5cae <__udivmodhi4_ep>

00005ca0 <__udivmodhi4_loop>:
    5ca0:	aa 1f       	adc	r26, r26
    5ca2:	bb 1f       	adc	r27, r27
    5ca4:	a6 17       	cp	r26, r22
    5ca6:	b7 07       	cpc	r27, r23
    5ca8:	10 f0       	brcs	.+4      	; 0x5cae <__udivmodhi4_ep>
    5caa:	a6 1b       	sub	r26, r22
    5cac:	b7 0b       	sbc	r27, r23

00005cae <__udivmodhi4_ep>:
    5cae:	88 1f       	adc	r24, r24
    5cb0:	99 1f       	adc	r25, r25
    5cb2:	5a 95       	dec	r21
    5cb4:	a9 f7       	brne	.-22     	; 0x5ca0 <__udivmodhi4_loop>
    5cb6:	80 95       	com	r24
    5cb8:	90 95       	com	r25
    5cba:	bc 01       	movw	r22, r24
    5cbc:	cd 01       	movw	r24, r26
    5cbe:	08 95       	ret

00005cc0 <malloc>:
    5cc0:	0f 93       	push	r16
    5cc2:	1f 93       	push	r17
    5cc4:	cf 93       	push	r28
    5cc6:	df 93       	push	r29
    5cc8:	82 30       	cpi	r24, 0x02	; 2
    5cca:	91 05       	cpc	r25, r1
    5ccc:	10 f4       	brcc	.+4      	; 0x5cd2 <malloc+0x12>
    5cce:	82 e0       	ldi	r24, 0x02	; 2
    5cd0:	90 e0       	ldi	r25, 0x00	; 0
    5cd2:	e0 91 34 04 	lds	r30, 0x0434	; 0x800434 <__flp>
    5cd6:	f0 91 35 04 	lds	r31, 0x0435	; 0x800435 <__flp+0x1>
    5cda:	20 e0       	ldi	r18, 0x00	; 0
    5cdc:	30 e0       	ldi	r19, 0x00	; 0
    5cde:	a0 e0       	ldi	r26, 0x00	; 0
    5ce0:	b0 e0       	ldi	r27, 0x00	; 0
    5ce2:	30 97       	sbiw	r30, 0x00	; 0
    5ce4:	19 f1       	breq	.+70     	; 0x5d2c <malloc+0x6c>
    5ce6:	40 81       	ld	r20, Z
    5ce8:	51 81       	ldd	r21, Z+1	; 0x01
    5cea:	02 81       	ldd	r16, Z+2	; 0x02
    5cec:	13 81       	ldd	r17, Z+3	; 0x03
    5cee:	48 17       	cp	r20, r24
    5cf0:	59 07       	cpc	r21, r25
    5cf2:	c8 f0       	brcs	.+50     	; 0x5d26 <malloc+0x66>
    5cf4:	84 17       	cp	r24, r20
    5cf6:	95 07       	cpc	r25, r21
    5cf8:	69 f4       	brne	.+26     	; 0x5d14 <malloc+0x54>
    5cfa:	10 97       	sbiw	r26, 0x00	; 0
    5cfc:	31 f0       	breq	.+12     	; 0x5d0a <malloc+0x4a>
    5cfe:	12 96       	adiw	r26, 0x02	; 2
    5d00:	0c 93       	st	X, r16
    5d02:	12 97       	sbiw	r26, 0x02	; 2
    5d04:	13 96       	adiw	r26, 0x03	; 3
    5d06:	1c 93       	st	X, r17
    5d08:	27 c0       	rjmp	.+78     	; 0x5d58 <malloc+0x98>
    5d0a:	00 93 34 04 	sts	0x0434, r16	; 0x800434 <__flp>
    5d0e:	10 93 35 04 	sts	0x0435, r17	; 0x800435 <__flp+0x1>
    5d12:	22 c0       	rjmp	.+68     	; 0x5d58 <malloc+0x98>
    5d14:	21 15       	cp	r18, r1
    5d16:	31 05       	cpc	r19, r1
    5d18:	19 f0       	breq	.+6      	; 0x5d20 <malloc+0x60>
    5d1a:	42 17       	cp	r20, r18
    5d1c:	53 07       	cpc	r21, r19
    5d1e:	18 f4       	brcc	.+6      	; 0x5d26 <malloc+0x66>
    5d20:	9a 01       	movw	r18, r20
    5d22:	bd 01       	movw	r22, r26
    5d24:	ef 01       	movw	r28, r30
    5d26:	df 01       	movw	r26, r30
    5d28:	f8 01       	movw	r30, r16
    5d2a:	db cf       	rjmp	.-74     	; 0x5ce2 <malloc+0x22>
    5d2c:	21 15       	cp	r18, r1
    5d2e:	31 05       	cpc	r19, r1
    5d30:	f9 f0       	breq	.+62     	; 0x5d70 <malloc+0xb0>
    5d32:	28 1b       	sub	r18, r24
    5d34:	39 0b       	sbc	r19, r25
    5d36:	24 30       	cpi	r18, 0x04	; 4
    5d38:	31 05       	cpc	r19, r1
    5d3a:	80 f4       	brcc	.+32     	; 0x5d5c <malloc+0x9c>
    5d3c:	8a 81       	ldd	r24, Y+2	; 0x02
    5d3e:	9b 81       	ldd	r25, Y+3	; 0x03
    5d40:	61 15       	cp	r22, r1
    5d42:	71 05       	cpc	r23, r1
    5d44:	21 f0       	breq	.+8      	; 0x5d4e <malloc+0x8e>
    5d46:	fb 01       	movw	r30, r22
    5d48:	93 83       	std	Z+3, r25	; 0x03
    5d4a:	82 83       	std	Z+2, r24	; 0x02
    5d4c:	04 c0       	rjmp	.+8      	; 0x5d56 <malloc+0x96>
    5d4e:	90 93 35 04 	sts	0x0435, r25	; 0x800435 <__flp+0x1>
    5d52:	80 93 34 04 	sts	0x0434, r24	; 0x800434 <__flp>
    5d56:	fe 01       	movw	r30, r28
    5d58:	32 96       	adiw	r30, 0x02	; 2
    5d5a:	44 c0       	rjmp	.+136    	; 0x5de4 <malloc+0x124>
    5d5c:	fe 01       	movw	r30, r28
    5d5e:	e2 0f       	add	r30, r18
    5d60:	f3 1f       	adc	r31, r19
    5d62:	81 93       	st	Z+, r24
    5d64:	91 93       	st	Z+, r25
    5d66:	22 50       	subi	r18, 0x02	; 2
    5d68:	31 09       	sbc	r19, r1
    5d6a:	39 83       	std	Y+1, r19	; 0x01
    5d6c:	28 83       	st	Y, r18
    5d6e:	3a c0       	rjmp	.+116    	; 0x5de4 <malloc+0x124>
    5d70:	20 91 32 04 	lds	r18, 0x0432	; 0x800432 <__brkval>
    5d74:	30 91 33 04 	lds	r19, 0x0433	; 0x800433 <__brkval+0x1>
    5d78:	23 2b       	or	r18, r19
    5d7a:	41 f4       	brne	.+16     	; 0x5d8c <malloc+0xcc>
    5d7c:	20 91 02 01 	lds	r18, 0x0102	; 0x800102 <__malloc_heap_start>
    5d80:	30 91 03 01 	lds	r19, 0x0103	; 0x800103 <__malloc_heap_start+0x1>
    5d84:	30 93 33 04 	sts	0x0433, r19	; 0x800433 <__brkval+0x1>
    5d88:	20 93 32 04 	sts	0x0432, r18	; 0x800432 <__brkval>
    5d8c:	20 91 00 01 	lds	r18, 0x0100	; 0x800100 <__data_start>
    5d90:	30 91 01 01 	lds	r19, 0x0101	; 0x800101 <__data_start+0x1>
    5d94:	21 15       	cp	r18, r1
    5d96:	31 05       	cpc	r19, r1
    5d98:	41 f4       	brne	.+16     	; 0x5daa <malloc+0xea>
    5d9a:	2d b7       	in	r18, 0x3d	; 61
    5d9c:	3e b7       	in	r19, 0x3e	; 62
    5d9e:	40 91 04 01 	lds	r20, 0x0104	; 0x800104 <__malloc_margin>
    5da2:	50 91 05 01 	lds	r21, 0x0105	; 0x800105 <__malloc_margin+0x1>
    5da6:	24 1b       	sub	r18, r20
    5da8:	35 0b       	sbc	r19, r21
    5daa:	e0 91 32 04 	lds	r30, 0x0432	; 0x800432 <__brkval>
    5dae:	f0 91 33 04 	lds	r31, 0x0433	; 0x800433 <__brkval+0x1>
    5db2:	e2 17       	cp	r30, r18
    5db4:	f3 07       	cpc	r31, r19
    5db6:	a0 f4       	brcc	.+40     	; 0x5de0 <malloc+0x120>
    5db8:	2e 1b       	sub	r18, r30
    5dba:	3f 0b       	sbc	r19, r31
    5dbc:	28 17       	cp	r18, r24
    5dbe:	39 07       	cpc	r19, r25
    5dc0:	78 f0       	brcs	.+30     	; 0x5de0 <malloc+0x120>
    5dc2:	ac 01       	movw	r20, r24
    5dc4:	4e 5f       	subi	r20, 0xFE	; 254
    5dc6:	5f 4f       	sbci	r21, 0xFF	; 255
    5dc8:	24 17       	cp	r18, r20
    5dca:	35 07       	cpc	r19, r21
    5dcc:	48 f0       	brcs	.+18     	; 0x5de0 <malloc+0x120>
    5dce:	4e 0f       	add	r20, r30
    5dd0:	5f 1f       	adc	r21, r31
    5dd2:	50 93 33 04 	sts	0x0433, r21	; 0x800433 <__brkval+0x1>
    5dd6:	40 93 32 04 	sts	0x0432, r20	; 0x800432 <__brkval>
    5dda:	81 93       	st	Z+, r24
    5ddc:	91 93       	st	Z+, r25
    5dde:	02 c0       	rjmp	.+4      	; 0x5de4 <malloc+0x124>
    5de0:	e0 e0       	ldi	r30, 0x00	; 0
    5de2:	f0 e0       	ldi	r31, 0x00	; 0
    5de4:	cf 01       	movw	r24, r30
    5de6:	df 91       	pop	r29
    5de8:	cf 91       	pop	r28
    5dea:	1f 91       	pop	r17
    5dec:	0f 91       	pop	r16
    5dee:	08 95       	ret

00005df0 <free>:
    5df0:	cf 93       	push	r28
    5df2:	df 93       	push	r29
    5df4:	00 97       	sbiw	r24, 0x00	; 0
    5df6:	09 f4       	brne	.+2      	; 0x5dfa <free+0xa>
    5df8:	81 c0       	rjmp	.+258    	; 0x5efc <free+0x10c>
    5dfa:	fc 01       	movw	r30, r24
    5dfc:	32 97       	sbiw	r30, 0x02	; 2
    5dfe:	13 82       	std	Z+3, r1	; 0x03
    5e00:	12 82       	std	Z+2, r1	; 0x02
    5e02:	a0 91 34 04 	lds	r26, 0x0434	; 0x800434 <__flp>
    5e06:	b0 91 35 04 	lds	r27, 0x0435	; 0x800435 <__flp+0x1>
    5e0a:	10 97       	sbiw	r26, 0x00	; 0
    5e0c:	81 f4       	brne	.+32     	; 0x5e2e <free+0x3e>
    5e0e:	20 81       	ld	r18, Z
    5e10:	31 81       	ldd	r19, Z+1	; 0x01
    5e12:	82 0f       	add	r24, r18
    5e14:	93 1f       	adc	r25, r19
    5e16:	20 91 32 04 	lds	r18, 0x0432	; 0x800432 <__brkval>
    5e1a:	30 91 33 04 	lds	r19, 0x0433	; 0x800433 <__brkval+0x1>
    5e1e:	28 17       	cp	r18, r24
    5e20:	39 07       	cpc	r19, r25
    5e22:	51 f5       	brne	.+84     	; 0x5e78 <free+0x88>
    5e24:	f0 93 33 04 	sts	0x0433, r31	; 0x800433 <__brkval+0x1>
    5e28:	e0 93 32 04 	sts	0x0432, r30	; 0x800432 <__brkval>
    5e2c:	67 c0       	rjmp	.+206    	; 0x5efc <free+0x10c>
    5e2e:	ed 01       	movw	r28, r26
    5e30:	20 e0       	ldi	r18, 0x00	; 0
    5e32:	30 e0       	ldi	r19, 0x00	; 0
    5e34:	ce 17       	cp	r28, r30
    5e36:	df 07       	cpc	r29, r31
    5e38:	40 f4       	brcc	.+16     	; 0x5e4a <free+0x5a>
    5e3a:	4a 81       	ldd	r20, Y+2	; 0x02
    5e3c:	5b 81       	ldd	r21, Y+3	; 0x03
    5e3e:	9e 01       	movw	r18, r28
    5e40:	41 15       	cp	r20, r1
    5e42:	51 05       	cpc	r21, r1
    5e44:	f1 f0       	breq	.+60     	; 0x5e82 <free+0x92>
    5e46:	ea 01       	movw	r28, r20
    5e48:	f5 cf       	rjmp	.-22     	; 0x5e34 <free+0x44>
    5e4a:	d3 83       	std	Z+3, r29	; 0x03
    5e4c:	c2 83       	std	Z+2, r28	; 0x02
    5e4e:	40 81       	ld	r20, Z
    5e50:	51 81       	ldd	r21, Z+1	; 0x01
    5e52:	84 0f       	add	r24, r20
    5e54:	95 1f       	adc	r25, r21
    5e56:	c8 17       	cp	r28, r24
    5e58:	d9 07       	cpc	r29, r25
    5e5a:	59 f4       	brne	.+22     	; 0x5e72 <free+0x82>
    5e5c:	88 81       	ld	r24, Y
    5e5e:	99 81       	ldd	r25, Y+1	; 0x01
    5e60:	84 0f       	add	r24, r20
    5e62:	95 1f       	adc	r25, r21
    5e64:	02 96       	adiw	r24, 0x02	; 2
    5e66:	91 83       	std	Z+1, r25	; 0x01
    5e68:	80 83       	st	Z, r24
    5e6a:	8a 81       	ldd	r24, Y+2	; 0x02
    5e6c:	9b 81       	ldd	r25, Y+3	; 0x03
    5e6e:	93 83       	std	Z+3, r25	; 0x03
    5e70:	82 83       	std	Z+2, r24	; 0x02
    5e72:	21 15       	cp	r18, r1
    5e74:	31 05       	cpc	r19, r1
    5e76:	29 f4       	brne	.+10     	; 0x5e82 <free+0x92>
    5e78:	f0 93 35 04 	sts	0x0435, r31	; 0x800435 <__flp+0x1>
    5e7c:	e0 93 34 04 	sts	0x0434, r30	; 0x800434 <__flp>
    5e80:	3d c0       	rjmp	.+122    	; 0x5efc <free+0x10c>
    5e82:	e9 01       	movw	r28, r18
    5e84:	fb 83       	std	Y+3, r31	; 0x03
    5e86:	ea 83       	std	Y+2, r30	; 0x02
    5e88:	49 91       	ld	r20, Y+
    5e8a:	59 91       	ld	r21, Y+
    5e8c:	c4 0f       	add	r28, r20
    5e8e:	d5 1f       	adc	r29, r21
    5e90:	ec 17       	cp	r30, r28
    5e92:	fd 07       	cpc	r31, r29
    5e94:	61 f4       	brne	.+24     	; 0x5eae <free+0xbe>
    5e96:	80 81       	ld	r24, Z
    5e98:	91 81       	ldd	r25, Z+1	; 0x01
    5e9a:	84 0f       	add	r24, r20
    5e9c:	95 1f       	adc	r25, r21
    5e9e:	02 96       	adiw	r24, 0x02	; 2
    5ea0:	e9 01       	movw	r28, r18
    5ea2:	99 83       	std	Y+1, r25	; 0x01
    5ea4:	88 83       	st	Y, r24
    5ea6:	82 81       	ldd	r24, Z+2	; 0x02
    5ea8:	93 81       	ldd	r25, Z+3	; 0x03
    5eaa:	9b 83       	std	Y+3, r25	; 0x03
    5eac:	8a 83       	std	Y+2, r24	; 0x02
    5eae:	e0 e0       	ldi	r30, 0x00	; 0
    5eb0:	f0 e0       	ldi	r31, 0x00	; 0
    5eb2:	12 96       	adiw	r26, 0x02	; 2
    5eb4:	8d 91       	ld	r24, X+
    5eb6:	9c 91       	ld	r25, X
    5eb8:	13 97       	sbiw	r26, 0x03	; 3
    5eba:	00 97       	sbiw	r24, 0x00	; 0
    5ebc:	19 f0       	breq	.+6      	; 0x5ec4 <free+0xd4>
    5ebe:	fd 01       	movw	r30, r26
    5ec0:	dc 01       	movw	r26, r24
    5ec2:	f7 cf       	rjmp	.-18     	; 0x5eb2 <free+0xc2>
    5ec4:	8d 91       	ld	r24, X+
    5ec6:	9c 91       	ld	r25, X
    5ec8:	11 97       	sbiw	r26, 0x01	; 1
    5eca:	9d 01       	movw	r18, r26
    5ecc:	2e 5f       	subi	r18, 0xFE	; 254
    5ece:	3f 4f       	sbci	r19, 0xFF	; 255
    5ed0:	82 0f       	add	r24, r18
    5ed2:	93 1f       	adc	r25, r19
    5ed4:	20 91 32 04 	lds	r18, 0x0432	; 0x800432 <__brkval>
    5ed8:	30 91 33 04 	lds	r19, 0x0433	; 0x800433 <__brkval+0x1>
    5edc:	28 17       	cp	r18, r24
    5ede:	39 07       	cpc	r19, r25
    5ee0:	69 f4       	brne	.+26     	; 0x5efc <free+0x10c>
    5ee2:	30 97       	sbiw	r30, 0x00	; 0
    5ee4:	29 f4       	brne	.+10     	; 0x5ef0 <free+0x100>
    5ee6:	10 92 35 04 	sts	0x0435, r1	; 0x800435 <__flp+0x1>
    5eea:	10 92 34 04 	sts	0x0434, r1	; 0x800434 <__flp>
    5eee:	02 c0       	rjmp	.+4      	; 0x5ef4 <free+0x104>
    5ef0:	13 82       	std	Z+3, r1	; 0x03
    5ef2:	12 82       	std	Z+2, r1	; 0x02
    5ef4:	b0 93 33 04 	sts	0x0433, r27	; 0x800433 <__brkval+0x1>
    5ef8:	a0 93 32 04 	sts	0x0432, r26	; 0x800432 <__brkval>
    5efc:	df 91       	pop	r29
    5efe:	cf 91       	pop	r28
    5f00:	08 95       	ret

00005f02 <strtol>:
    5f02:	3f 92       	push	r3
    5f04:	4f 92       	push	r4
    5f06:	5f 92       	push	r5
    5f08:	6f 92       	push	r6
    5f0a:	7f 92       	push	r7
    5f0c:	8f 92       	push	r8
    5f0e:	9f 92       	push	r9
    5f10:	af 92       	push	r10
    5f12:	bf 92       	push	r11
    5f14:	cf 92       	push	r12
    5f16:	df 92       	push	r13
    5f18:	ef 92       	push	r14
    5f1a:	ff 92       	push	r15
    5f1c:	0f 93       	push	r16
    5f1e:	1f 93       	push	r17
    5f20:	cf 93       	push	r28
    5f22:	df 93       	push	r29
    5f24:	5c 01       	movw	r10, r24
    5f26:	6b 01       	movw	r12, r22
    5f28:	7a 01       	movw	r14, r20
    5f2a:	61 15       	cp	r22, r1
    5f2c:	71 05       	cpc	r23, r1
    5f2e:	19 f0       	breq	.+6      	; 0x5f36 <strtol+0x34>
    5f30:	fb 01       	movw	r30, r22
    5f32:	91 83       	std	Z+1, r25	; 0x01
    5f34:	80 83       	st	Z, r24
    5f36:	e1 14       	cp	r14, r1
    5f38:	f1 04       	cpc	r15, r1
    5f3a:	29 f0       	breq	.+10     	; 0x5f46 <strtol+0x44>
    5f3c:	c7 01       	movw	r24, r14
    5f3e:	02 97       	sbiw	r24, 0x02	; 2
    5f40:	83 97       	sbiw	r24, 0x23	; 35
    5f42:	08 f0       	brcs	.+2      	; 0x5f46 <strtol+0x44>
    5f44:	e2 c0       	rjmp	.+452    	; 0x610a <strtol+0x208>
    5f46:	e5 01       	movw	r28, r10
    5f48:	21 96       	adiw	r28, 0x01	; 1
    5f4a:	f5 01       	movw	r30, r10
    5f4c:	10 81       	ld	r17, Z
    5f4e:	81 2f       	mov	r24, r17
    5f50:	90 e0       	ldi	r25, 0x00	; 0
    5f52:	0e d2       	rcall	.+1052   	; 0x6370 <isspace>
    5f54:	89 2b       	or	r24, r25
    5f56:	11 f0       	breq	.+4      	; 0x5f5c <strtol+0x5a>
    5f58:	5e 01       	movw	r10, r28
    5f5a:	f5 cf       	rjmp	.-22     	; 0x5f46 <strtol+0x44>
    5f5c:	1d 32       	cpi	r17, 0x2D	; 45
    5f5e:	29 f4       	brne	.+10     	; 0x5f6a <strtol+0x68>
    5f60:	21 96       	adiw	r28, 0x01	; 1
    5f62:	f5 01       	movw	r30, r10
    5f64:	11 81       	ldd	r17, Z+1	; 0x01
    5f66:	01 e0       	ldi	r16, 0x01	; 1
    5f68:	07 c0       	rjmp	.+14     	; 0x5f78 <strtol+0x76>
    5f6a:	1b 32       	cpi	r17, 0x2B	; 43
    5f6c:	21 f4       	brne	.+8      	; 0x5f76 <strtol+0x74>
    5f6e:	e5 01       	movw	r28, r10
    5f70:	22 96       	adiw	r28, 0x02	; 2
    5f72:	f5 01       	movw	r30, r10
    5f74:	11 81       	ldd	r17, Z+1	; 0x01
    5f76:	00 e0       	ldi	r16, 0x00	; 0
    5f78:	e1 14       	cp	r14, r1
    5f7a:	f1 04       	cpc	r15, r1
    5f7c:	09 f1       	breq	.+66     	; 0x5fc0 <strtol+0xbe>
    5f7e:	f0 e1       	ldi	r31, 0x10	; 16
    5f80:	ef 16       	cp	r14, r31
    5f82:	f1 04       	cpc	r15, r1
    5f84:	29 f4       	brne	.+10     	; 0x5f90 <strtol+0x8e>
    5f86:	3e c0       	rjmp	.+124    	; 0x6004 <strtol+0x102>
    5f88:	10 e3       	ldi	r17, 0x30	; 48
    5f8a:	e1 14       	cp	r14, r1
    5f8c:	f1 04       	cpc	r15, r1
    5f8e:	21 f1       	breq	.+72     	; 0x5fd8 <strtol+0xd6>
    5f90:	28 e0       	ldi	r18, 0x08	; 8
    5f92:	e2 16       	cp	r14, r18
    5f94:	f1 04       	cpc	r15, r1
    5f96:	01 f1       	breq	.+64     	; 0x5fd8 <strtol+0xd6>
    5f98:	54 f4       	brge	.+20     	; 0x5fae <strtol+0xac>
    5f9a:	e2 e0       	ldi	r30, 0x02	; 2
    5f9c:	ee 16       	cp	r14, r30
    5f9e:	f1 04       	cpc	r15, r1
    5fa0:	21 f5       	brne	.+72     	; 0x5fea <strtol+0xe8>
    5fa2:	81 2c       	mov	r8, r1
    5fa4:	91 2c       	mov	r9, r1
    5fa6:	a1 2c       	mov	r10, r1
    5fa8:	b0 e4       	ldi	r27, 0x40	; 64
    5faa:	bb 2e       	mov	r11, r27
    5fac:	3d c0       	rjmp	.+122    	; 0x6028 <strtol+0x126>
    5fae:	fa e0       	ldi	r31, 0x0A	; 10
    5fb0:	ef 16       	cp	r14, r31
    5fb2:	f1 04       	cpc	r15, r1
    5fb4:	39 f0       	breq	.+14     	; 0x5fc4 <strtol+0xc2>
    5fb6:	20 e1       	ldi	r18, 0x10	; 16
    5fb8:	e2 16       	cp	r14, r18
    5fba:	f1 04       	cpc	r15, r1
    5fbc:	b1 f4       	brne	.+44     	; 0x5fea <strtol+0xe8>
    5fbe:	2f c0       	rjmp	.+94     	; 0x601e <strtol+0x11c>
    5fc0:	10 33       	cpi	r17, 0x30	; 48
    5fc2:	11 f1       	breq	.+68     	; 0x6008 <strtol+0x106>
    5fc4:	fa e0       	ldi	r31, 0x0A	; 10
    5fc6:	ef 2e       	mov	r14, r31
    5fc8:	f1 2c       	mov	r15, r1
    5fca:	ac ec       	ldi	r26, 0xCC	; 204
    5fcc:	8a 2e       	mov	r8, r26
    5fce:	98 2c       	mov	r9, r8
    5fd0:	a8 2c       	mov	r10, r8
    5fd2:	ac e0       	ldi	r26, 0x0C	; 12
    5fd4:	ba 2e       	mov	r11, r26
    5fd6:	28 c0       	rjmp	.+80     	; 0x6028 <strtol+0x126>
    5fd8:	78 e0       	ldi	r23, 0x08	; 8
    5fda:	e7 2e       	mov	r14, r23
    5fdc:	f1 2c       	mov	r15, r1
    5fde:	81 2c       	mov	r8, r1
    5fe0:	91 2c       	mov	r9, r1
    5fe2:	a1 2c       	mov	r10, r1
    5fe4:	e0 e1       	ldi	r30, 0x10	; 16
    5fe6:	be 2e       	mov	r11, r30
    5fe8:	1f c0       	rjmp	.+62     	; 0x6028 <strtol+0x126>
    5fea:	60 e0       	ldi	r22, 0x00	; 0
    5fec:	70 e0       	ldi	r23, 0x00	; 0
    5fee:	80 e0       	ldi	r24, 0x00	; 0
    5ff0:	90 e8       	ldi	r25, 0x80	; 128
    5ff2:	97 01       	movw	r18, r14
    5ff4:	0f 2c       	mov	r0, r15
    5ff6:	00 0c       	add	r0, r0
    5ff8:	44 0b       	sbc	r20, r20
    5ffa:	55 0b       	sbc	r21, r21
    5ffc:	67 d4       	rcall	.+2254   	; 0x68cc <__udivmodsi4>
    5ffe:	49 01       	movw	r8, r18
    6000:	5a 01       	movw	r10, r20
    6002:	12 c0       	rjmp	.+36     	; 0x6028 <strtol+0x126>
    6004:	10 33       	cpi	r17, 0x30	; 48
    6006:	59 f4       	brne	.+22     	; 0x601e <strtol+0x11c>
    6008:	88 81       	ld	r24, Y
    600a:	8f 7d       	andi	r24, 0xDF	; 223
    600c:	88 35       	cpi	r24, 0x58	; 88
    600e:	09 f0       	breq	.+2      	; 0x6012 <strtol+0x110>
    6010:	bb cf       	rjmp	.-138    	; 0x5f88 <strtol+0x86>
    6012:	19 81       	ldd	r17, Y+1	; 0x01
    6014:	22 96       	adiw	r28, 0x02	; 2
    6016:	02 60       	ori	r16, 0x02	; 2
    6018:	80 e1       	ldi	r24, 0x10	; 16
    601a:	e8 2e       	mov	r14, r24
    601c:	f1 2c       	mov	r15, r1
    601e:	81 2c       	mov	r8, r1
    6020:	91 2c       	mov	r9, r1
    6022:	a1 2c       	mov	r10, r1
    6024:	68 e0       	ldi	r22, 0x08	; 8
    6026:	b6 2e       	mov	r11, r22
    6028:	40 e0       	ldi	r20, 0x00	; 0
    602a:	60 e0       	ldi	r22, 0x00	; 0
    602c:	70 e0       	ldi	r23, 0x00	; 0
    602e:	cb 01       	movw	r24, r22
    6030:	27 01       	movw	r4, r14
    6032:	0f 2c       	mov	r0, r15
    6034:	00 0c       	add	r0, r0
    6036:	66 08       	sbc	r6, r6
    6038:	77 08       	sbc	r7, r7
    603a:	fe 01       	movw	r30, r28
    603c:	50 ed       	ldi	r21, 0xD0	; 208
    603e:	35 2e       	mov	r3, r21
    6040:	31 0e       	add	r3, r17
    6042:	29 e0       	ldi	r18, 0x09	; 9
    6044:	23 15       	cp	r18, r3
    6046:	70 f4       	brcc	.+28     	; 0x6064 <strtol+0x162>
    6048:	2f eb       	ldi	r18, 0xBF	; 191
    604a:	21 0f       	add	r18, r17
    604c:	2a 31       	cpi	r18, 0x1A	; 26
    604e:	18 f4       	brcc	.+6      	; 0x6056 <strtol+0x154>
    6050:	39 ec       	ldi	r19, 0xC9	; 201
    6052:	33 2e       	mov	r3, r19
    6054:	06 c0       	rjmp	.+12     	; 0x6062 <strtol+0x160>
    6056:	2f e9       	ldi	r18, 0x9F	; 159
    6058:	21 0f       	add	r18, r17
    605a:	2a 31       	cpi	r18, 0x1A	; 26
    605c:	10 f5       	brcc	.+68     	; 0x60a2 <strtol+0x1a0>
    605e:	29 ea       	ldi	r18, 0xA9	; 169
    6060:	32 2e       	mov	r3, r18
    6062:	31 0e       	add	r3, r17
    6064:	23 2d       	mov	r18, r3
    6066:	30 e0       	ldi	r19, 0x00	; 0
    6068:	2e 15       	cp	r18, r14
    606a:	3f 05       	cpc	r19, r15
    606c:	d4 f4       	brge	.+52     	; 0x60a2 <strtol+0x1a0>
    606e:	47 fd       	sbrc	r20, 7
    6070:	15 c0       	rjmp	.+42     	; 0x609c <strtol+0x19a>
    6072:	86 16       	cp	r8, r22
    6074:	97 06       	cpc	r9, r23
    6076:	a8 06       	cpc	r10, r24
    6078:	b9 06       	cpc	r11, r25
    607a:	68 f0       	brcs	.+26     	; 0x6096 <strtol+0x194>
    607c:	a3 01       	movw	r20, r6
    607e:	92 01       	movw	r18, r4
    6080:	16 d4       	rcall	.+2092   	; 0x68ae <__mulsi3>
    6082:	63 0d       	add	r22, r3
    6084:	71 1d       	adc	r23, r1
    6086:	81 1d       	adc	r24, r1
    6088:	91 1d       	adc	r25, r1
    608a:	61 30       	cpi	r22, 0x01	; 1
    608c:	71 05       	cpc	r23, r1
    608e:	81 05       	cpc	r24, r1
    6090:	20 e8       	ldi	r18, 0x80	; 128
    6092:	92 07       	cpc	r25, r18
    6094:	10 f0       	brcs	.+4      	; 0x609a <strtol+0x198>
    6096:	4f ef       	ldi	r20, 0xFF	; 255
    6098:	01 c0       	rjmp	.+2      	; 0x609c <strtol+0x19a>
    609a:	41 e0       	ldi	r20, 0x01	; 1
    609c:	21 96       	adiw	r28, 0x01	; 1
    609e:	10 81       	ld	r17, Z
    60a0:	cc cf       	rjmp	.-104    	; 0x603a <strtol+0x138>
    60a2:	20 2f       	mov	r18, r16
    60a4:	21 70       	andi	r18, 0x01	; 1
    60a6:	c1 14       	cp	r12, r1
    60a8:	d1 04       	cpc	r13, r1
    60aa:	71 f0       	breq	.+28     	; 0x60c8 <strtol+0x1c6>
    60ac:	44 23       	and	r20, r20
    60ae:	29 f0       	breq	.+10     	; 0x60ba <strtol+0x1b8>
    60b0:	21 97       	sbiw	r28, 0x01	; 1
    60b2:	f6 01       	movw	r30, r12
    60b4:	d1 83       	std	Z+1, r29	; 0x01
    60b6:	c0 83       	st	Z, r28
    60b8:	07 c0       	rjmp	.+14     	; 0x60c8 <strtol+0x1c6>
    60ba:	01 ff       	sbrs	r16, 1
    60bc:	19 c0       	rjmp	.+50     	; 0x60f0 <strtol+0x1ee>
    60be:	22 97       	sbiw	r28, 0x02	; 2
    60c0:	f6 01       	movw	r30, r12
    60c2:	d1 83       	std	Z+1, r29	; 0x01
    60c4:	c0 83       	st	Z, r28
    60c6:	14 c0       	rjmp	.+40     	; 0x60f0 <strtol+0x1ee>
    60c8:	47 ff       	sbrs	r20, 7
    60ca:	12 c0       	rjmp	.+36     	; 0x60f0 <strtol+0x1ee>
    60cc:	22 23       	and	r18, r18
    60ce:	29 f0       	breq	.+10     	; 0x60da <strtol+0x1d8>
    60d0:	60 e0       	ldi	r22, 0x00	; 0
    60d2:	70 e0       	ldi	r23, 0x00	; 0
    60d4:	80 e0       	ldi	r24, 0x00	; 0
    60d6:	90 e8       	ldi	r25, 0x80	; 128
    60d8:	04 c0       	rjmp	.+8      	; 0x60e2 <strtol+0x1e0>
    60da:	6f ef       	ldi	r22, 0xFF	; 255
    60dc:	7f ef       	ldi	r23, 0xFF	; 255
    60de:	8f ef       	ldi	r24, 0xFF	; 255
    60e0:	9f e7       	ldi	r25, 0x7F	; 127
    60e2:	22 e2       	ldi	r18, 0x22	; 34
    60e4:	30 e0       	ldi	r19, 0x00	; 0
    60e6:	30 93 37 04 	sts	0x0437, r19	; 0x800437 <errno+0x1>
    60ea:	20 93 36 04 	sts	0x0436, r18	; 0x800436 <errno>
    60ee:	09 c0       	rjmp	.+18     	; 0x6102 <strtol+0x200>
    60f0:	22 23       	and	r18, r18
    60f2:	81 f0       	breq	.+32     	; 0x6114 <strtol+0x212>
    60f4:	90 95       	com	r25
    60f6:	80 95       	com	r24
    60f8:	70 95       	com	r23
    60fa:	61 95       	neg	r22
    60fc:	7f 4f       	sbci	r23, 0xFF	; 255
    60fe:	8f 4f       	sbci	r24, 0xFF	; 255
    6100:	9f 4f       	sbci	r25, 0xFF	; 255
    6102:	46 2f       	mov	r20, r22
    6104:	37 2f       	mov	r19, r23
    6106:	28 2f       	mov	r18, r24
    6108:	12 c0       	rjmp	.+36     	; 0x612e <strtol+0x22c>
    610a:	40 e0       	ldi	r20, 0x00	; 0
    610c:	30 e0       	ldi	r19, 0x00	; 0
    610e:	20 e0       	ldi	r18, 0x00	; 0
    6110:	90 e0       	ldi	r25, 0x00	; 0
    6112:	0d c0       	rjmp	.+26     	; 0x612e <strtol+0x22c>
    6114:	97 ff       	sbrs	r25, 7
    6116:	f5 cf       	rjmp	.-22     	; 0x6102 <strtol+0x200>
    6118:	82 e2       	ldi	r24, 0x22	; 34
    611a:	90 e0       	ldi	r25, 0x00	; 0
    611c:	90 93 37 04 	sts	0x0437, r25	; 0x800437 <errno+0x1>
    6120:	80 93 36 04 	sts	0x0436, r24	; 0x800436 <errno>
    6124:	6f ef       	ldi	r22, 0xFF	; 255
    6126:	7f ef       	ldi	r23, 0xFF	; 255
    6128:	8f ef       	ldi	r24, 0xFF	; 255
    612a:	9f e7       	ldi	r25, 0x7F	; 127
    612c:	ea cf       	rjmp	.-44     	; 0x6102 <strtol+0x200>
    612e:	64 2f       	mov	r22, r20
    6130:	73 2f       	mov	r23, r19
    6132:	82 2f       	mov	r24, r18
    6134:	df 91       	pop	r29
    6136:	cf 91       	pop	r28
    6138:	1f 91       	pop	r17
    613a:	0f 91       	pop	r16
    613c:	ff 90       	pop	r15
    613e:	ef 90       	pop	r14
    6140:	df 90       	pop	r13
    6142:	cf 90       	pop	r12
    6144:	bf 90       	pop	r11
    6146:	af 90       	pop	r10
    6148:	9f 90       	pop	r9
    614a:	8f 90       	pop	r8
    614c:	7f 90       	pop	r7
    614e:	6f 90       	pop	r6
    6150:	5f 90       	pop	r5
    6152:	4f 90       	pop	r4
    6154:	3f 90       	pop	r3
    6156:	08 95       	ret

00006158 <atof>:
    6158:	66 27       	eor	r22, r22
    615a:	77 27       	eor	r23, r23
    615c:	23 c2       	rjmp	.+1094   	; 0x65a4 <strtod>

0000615e <atoi>:
    615e:	fc 01       	movw	r30, r24
    6160:	88 27       	eor	r24, r24
    6162:	99 27       	eor	r25, r25
    6164:	e8 94       	clt
    6166:	21 91       	ld	r18, Z+
    6168:	20 32       	cpi	r18, 0x20	; 32
    616a:	e9 f3       	breq	.-6      	; 0x6166 <atoi+0x8>
    616c:	29 30       	cpi	r18, 0x09	; 9
    616e:	10 f0       	brcs	.+4      	; 0x6174 <atoi+0x16>
    6170:	2e 30       	cpi	r18, 0x0E	; 14
    6172:	c8 f3       	brcs	.-14     	; 0x6166 <atoi+0x8>
    6174:	2b 32       	cpi	r18, 0x2B	; 43
    6176:	39 f0       	breq	.+14     	; 0x6186 <atoi+0x28>
    6178:	2d 32       	cpi	r18, 0x2D	; 45
    617a:	31 f4       	brne	.+12     	; 0x6188 <atoi+0x2a>
    617c:	68 94       	set
    617e:	03 c0       	rjmp	.+6      	; 0x6186 <atoi+0x28>
    6180:	41 d1       	rcall	.+642    	; 0x6404 <__mulhi_const_10>
    6182:	82 0f       	add	r24, r18
    6184:	91 1d       	adc	r25, r1
    6186:	21 91       	ld	r18, Z+
    6188:	20 53       	subi	r18, 0x30	; 48
    618a:	2a 30       	cpi	r18, 0x0A	; 10
    618c:	c8 f3       	brcs	.-14     	; 0x6180 <atoi+0x22>
    618e:	1e f4       	brtc	.+6      	; 0x6196 <atoi+0x38>
    6190:	90 95       	com	r25
    6192:	81 95       	neg	r24
    6194:	9f 4f       	sbci	r25, 0xFF	; 255
    6196:	08 95       	ret

00006198 <__ftoa_engine>:
    6198:	28 30       	cpi	r18, 0x08	; 8
    619a:	08 f0       	brcs	.+2      	; 0x619e <__ftoa_engine+0x6>
    619c:	27 e0       	ldi	r18, 0x07	; 7
    619e:	33 27       	eor	r19, r19
    61a0:	da 01       	movw	r26, r20
    61a2:	99 0f       	add	r25, r25
    61a4:	31 1d       	adc	r19, r1
    61a6:	87 fd       	sbrc	r24, 7
    61a8:	91 60       	ori	r25, 0x01	; 1
    61aa:	00 96       	adiw	r24, 0x00	; 0
    61ac:	61 05       	cpc	r22, r1
    61ae:	71 05       	cpc	r23, r1
    61b0:	39 f4       	brne	.+14     	; 0x61c0 <__ftoa_engine+0x28>
    61b2:	32 60       	ori	r19, 0x02	; 2
    61b4:	2e 5f       	subi	r18, 0xFE	; 254
    61b6:	3d 93       	st	X+, r19
    61b8:	30 e3       	ldi	r19, 0x30	; 48
    61ba:	2a 95       	dec	r18
    61bc:	e1 f7       	brne	.-8      	; 0x61b6 <__ftoa_engine+0x1e>
    61be:	08 95       	ret
    61c0:	9f 3f       	cpi	r25, 0xFF	; 255
    61c2:	30 f0       	brcs	.+12     	; 0x61d0 <__ftoa_engine+0x38>
    61c4:	80 38       	cpi	r24, 0x80	; 128
    61c6:	71 05       	cpc	r23, r1
    61c8:	61 05       	cpc	r22, r1
    61ca:	09 f0       	breq	.+2      	; 0x61ce <__ftoa_engine+0x36>
    61cc:	3c 5f       	subi	r19, 0xFC	; 252
    61ce:	3c 5f       	subi	r19, 0xFC	; 252
    61d0:	3d 93       	st	X+, r19
    61d2:	91 30       	cpi	r25, 0x01	; 1
    61d4:	08 f0       	brcs	.+2      	; 0x61d8 <__ftoa_engine+0x40>
    61d6:	80 68       	ori	r24, 0x80	; 128
    61d8:	91 1d       	adc	r25, r1
    61da:	df 93       	push	r29
    61dc:	cf 93       	push	r28
    61de:	1f 93       	push	r17
    61e0:	0f 93       	push	r16
    61e2:	ff 92       	push	r15
    61e4:	ef 92       	push	r14
    61e6:	19 2f       	mov	r17, r25
    61e8:	98 7f       	andi	r25, 0xF8	; 248
    61ea:	96 95       	lsr	r25
    61ec:	e9 2f       	mov	r30, r25
    61ee:	96 95       	lsr	r25
    61f0:	96 95       	lsr	r25
    61f2:	e9 0f       	add	r30, r25
    61f4:	ff 27       	eor	r31, r31
    61f6:	e2 51       	subi	r30, 0x12	; 18
    61f8:	ff 4f       	sbci	r31, 0xFF	; 255
    61fa:	99 27       	eor	r25, r25
    61fc:	33 27       	eor	r19, r19
    61fe:	ee 24       	eor	r14, r14
    6200:	ff 24       	eor	r15, r15
    6202:	a7 01       	movw	r20, r14
    6204:	e7 01       	movw	r28, r14
    6206:	05 90       	lpm	r0, Z+
    6208:	08 94       	sec
    620a:	07 94       	ror	r0
    620c:	28 f4       	brcc	.+10     	; 0x6218 <__ftoa_engine+0x80>
    620e:	36 0f       	add	r19, r22
    6210:	e7 1e       	adc	r14, r23
    6212:	f8 1e       	adc	r15, r24
    6214:	49 1f       	adc	r20, r25
    6216:	51 1d       	adc	r21, r1
    6218:	66 0f       	add	r22, r22
    621a:	77 1f       	adc	r23, r23
    621c:	88 1f       	adc	r24, r24
    621e:	99 1f       	adc	r25, r25
    6220:	06 94       	lsr	r0
    6222:	a1 f7       	brne	.-24     	; 0x620c <__ftoa_engine+0x74>
    6224:	05 90       	lpm	r0, Z+
    6226:	07 94       	ror	r0
    6228:	28 f4       	brcc	.+10     	; 0x6234 <__ftoa_engine+0x9c>
    622a:	e7 0e       	add	r14, r23
    622c:	f8 1e       	adc	r15, r24
    622e:	49 1f       	adc	r20, r25
    6230:	56 1f       	adc	r21, r22
    6232:	c1 1d       	adc	r28, r1
    6234:	77 0f       	add	r23, r23
    6236:	88 1f       	adc	r24, r24
    6238:	99 1f       	adc	r25, r25
    623a:	66 1f       	adc	r22, r22
    623c:	06 94       	lsr	r0
    623e:	a1 f7       	brne	.-24     	; 0x6228 <__ftoa_engine+0x90>
    6240:	05 90       	lpm	r0, Z+
    6242:	07 94       	ror	r0
    6244:	28 f4       	brcc	.+10     	; 0x6250 <__ftoa_engine+0xb8>
    6246:	f8 0e       	add	r15, r24
    6248:	49 1f       	adc	r20, r25
    624a:	56 1f       	adc	r21, r22
    624c:	c7 1f       	adc	r28, r23
    624e:	d1 1d       	adc	r29, r1
    6250:	88 0f       	add	r24, r24
    6252:	99 1f       	adc	r25, r25
    6254:	66 1f       	adc	r22, r22
    6256:	77 1f       	adc	r23, r23
    6258:	06 94       	lsr	r0
    625a:	a1 f7       	brne	.-24     	; 0x6244 <__ftoa_engine+0xac>
    625c:	05 90       	lpm	r0, Z+
    625e:	07 94       	ror	r0
    6260:	20 f4       	brcc	.+8      	; 0x626a <__ftoa_engine+0xd2>
    6262:	49 0f       	add	r20, r25
    6264:	56 1f       	adc	r21, r22
    6266:	c7 1f       	adc	r28, r23
    6268:	d8 1f       	adc	r29, r24
    626a:	99 0f       	add	r25, r25
    626c:	66 1f       	adc	r22, r22
    626e:	77 1f       	adc	r23, r23
    6270:	88 1f       	adc	r24, r24
    6272:	06 94       	lsr	r0
    6274:	a9 f7       	brne	.-22     	; 0x6260 <__ftoa_engine+0xc8>
    6276:	84 91       	lpm	r24, Z
    6278:	10 95       	com	r17
    627a:	17 70       	andi	r17, 0x07	; 7
    627c:	41 f0       	breq	.+16     	; 0x628e <__ftoa_engine+0xf6>
    627e:	d6 95       	lsr	r29
    6280:	c7 95       	ror	r28
    6282:	57 95       	ror	r21
    6284:	47 95       	ror	r20
    6286:	f7 94       	ror	r15
    6288:	e7 94       	ror	r14
    628a:	1a 95       	dec	r17
    628c:	c1 f7       	brne	.-16     	; 0x627e <__ftoa_engine+0xe6>
    628e:	e4 e9       	ldi	r30, 0x94	; 148
    6290:	f0 e0       	ldi	r31, 0x00	; 0
    6292:	68 94       	set
    6294:	15 90       	lpm	r1, Z+
    6296:	15 91       	lpm	r17, Z+
    6298:	35 91       	lpm	r19, Z+
    629a:	65 91       	lpm	r22, Z+
    629c:	95 91       	lpm	r25, Z+
    629e:	05 90       	lpm	r0, Z+
    62a0:	7f e2       	ldi	r23, 0x2F	; 47
    62a2:	73 95       	inc	r23
    62a4:	e1 18       	sub	r14, r1
    62a6:	f1 0a       	sbc	r15, r17
    62a8:	43 0b       	sbc	r20, r19
    62aa:	56 0b       	sbc	r21, r22
    62ac:	c9 0b       	sbc	r28, r25
    62ae:	d0 09       	sbc	r29, r0
    62b0:	c0 f7       	brcc	.-16     	; 0x62a2 <__ftoa_engine+0x10a>
    62b2:	e1 0c       	add	r14, r1
    62b4:	f1 1e       	adc	r15, r17
    62b6:	43 1f       	adc	r20, r19
    62b8:	56 1f       	adc	r21, r22
    62ba:	c9 1f       	adc	r28, r25
    62bc:	d0 1d       	adc	r29, r0
    62be:	7e f4       	brtc	.+30     	; 0x62de <__ftoa_engine+0x146>
    62c0:	70 33       	cpi	r23, 0x30	; 48
    62c2:	11 f4       	brne	.+4      	; 0x62c8 <__ftoa_engine+0x130>
    62c4:	8a 95       	dec	r24
    62c6:	e6 cf       	rjmp	.-52     	; 0x6294 <__ftoa_engine+0xfc>
    62c8:	e8 94       	clt
    62ca:	01 50       	subi	r16, 0x01	; 1
    62cc:	30 f0       	brcs	.+12     	; 0x62da <__ftoa_engine+0x142>
    62ce:	08 0f       	add	r16, r24
    62d0:	0a f4       	brpl	.+2      	; 0x62d4 <__ftoa_engine+0x13c>
    62d2:	00 27       	eor	r16, r16
    62d4:	02 17       	cp	r16, r18
    62d6:	08 f4       	brcc	.+2      	; 0x62da <__ftoa_engine+0x142>
    62d8:	20 2f       	mov	r18, r16
    62da:	23 95       	inc	r18
    62dc:	02 2f       	mov	r16, r18
    62de:	7a 33       	cpi	r23, 0x3A	; 58
    62e0:	28 f0       	brcs	.+10     	; 0x62ec <__ftoa_engine+0x154>
    62e2:	79 e3       	ldi	r23, 0x39	; 57
    62e4:	7d 93       	st	X+, r23
    62e6:	2a 95       	dec	r18
    62e8:	e9 f7       	brne	.-6      	; 0x62e4 <__ftoa_engine+0x14c>
    62ea:	10 c0       	rjmp	.+32     	; 0x630c <__ftoa_engine+0x174>
    62ec:	7d 93       	st	X+, r23
    62ee:	2a 95       	dec	r18
    62f0:	89 f6       	brne	.-94     	; 0x6294 <__ftoa_engine+0xfc>
    62f2:	06 94       	lsr	r0
    62f4:	97 95       	ror	r25
    62f6:	67 95       	ror	r22
    62f8:	37 95       	ror	r19
    62fa:	17 95       	ror	r17
    62fc:	17 94       	ror	r1
    62fe:	e1 18       	sub	r14, r1
    6300:	f1 0a       	sbc	r15, r17
    6302:	43 0b       	sbc	r20, r19
    6304:	56 0b       	sbc	r21, r22
    6306:	c9 0b       	sbc	r28, r25
    6308:	d0 09       	sbc	r29, r0
    630a:	98 f0       	brcs	.+38     	; 0x6332 <__ftoa_engine+0x19a>
    630c:	23 95       	inc	r18
    630e:	7e 91       	ld	r23, -X
    6310:	73 95       	inc	r23
    6312:	7a 33       	cpi	r23, 0x3A	; 58
    6314:	08 f0       	brcs	.+2      	; 0x6318 <__ftoa_engine+0x180>
    6316:	70 e3       	ldi	r23, 0x30	; 48
    6318:	7c 93       	st	X, r23
    631a:	20 13       	cpse	r18, r16
    631c:	b8 f7       	brcc	.-18     	; 0x630c <__ftoa_engine+0x174>
    631e:	7e 91       	ld	r23, -X
    6320:	70 61       	ori	r23, 0x10	; 16
    6322:	7d 93       	st	X+, r23
    6324:	30 f0       	brcs	.+12     	; 0x6332 <__ftoa_engine+0x19a>
    6326:	83 95       	inc	r24
    6328:	71 e3       	ldi	r23, 0x31	; 49
    632a:	7d 93       	st	X+, r23
    632c:	70 e3       	ldi	r23, 0x30	; 48
    632e:	2a 95       	dec	r18
    6330:	e1 f7       	brne	.-8      	; 0x632a <__ftoa_engine+0x192>
    6332:	11 24       	eor	r1, r1
    6334:	ef 90       	pop	r14
    6336:	ff 90       	pop	r15
    6338:	0f 91       	pop	r16
    633a:	1f 91       	pop	r17
    633c:	cf 91       	pop	r28
    633e:	df 91       	pop	r29
    6340:	99 27       	eor	r25, r25
    6342:	87 fd       	sbrc	r24, 7
    6344:	90 95       	com	r25
    6346:	08 95       	ret

00006348 <isalnum>:
    6348:	91 11       	cpse	r25, r1
    634a:	06 c0       	rjmp	.+12     	; 0x6358 <__ctype_isfalse>
    634c:	80 53       	subi	r24, 0x30	; 48
    634e:	8a 50       	subi	r24, 0x0A	; 10
    6350:	10 f0       	brcs	.+4      	; 0x6356 <isalnum+0xe>
    6352:	86 5c       	subi	r24, 0xC6	; 198
    6354:	06 c0       	rjmp	.+12     	; 0x6362 <isalpha>
    6356:	08 95       	ret

00006358 <__ctype_isfalse>:
    6358:	99 27       	eor	r25, r25
    635a:	88 27       	eor	r24, r24

0000635c <__ctype_istrue>:
    635c:	08 95       	ret

0000635e <isupper>:
    635e:	85 fd       	sbrc	r24, 5
    6360:	fb cf       	rjmp	.-10     	; 0x6358 <__ctype_isfalse>

00006362 <isalpha>:
    6362:	80 62       	ori	r24, 0x20	; 32

00006364 <islower>:
    6364:	91 11       	cpse	r25, r1
    6366:	f8 cf       	rjmp	.-16     	; 0x6358 <__ctype_isfalse>
    6368:	81 56       	subi	r24, 0x61	; 97
    636a:	8a 51       	subi	r24, 0x1A	; 26
    636c:	e0 f7       	brcc	.-8      	; 0x6366 <islower+0x2>
    636e:	08 95       	ret

00006370 <isspace>:
    6370:	91 11       	cpse	r25, r1
    6372:	f2 cf       	rjmp	.-28     	; 0x6358 <__ctype_isfalse>
    6374:	80 32       	cpi	r24, 0x20	; 32
    6376:	19 f0       	breq	.+6      	; 0x637e <isspace+0xe>
    6378:	89 50       	subi	r24, 0x09	; 9
    637a:	85 50       	subi	r24, 0x05	; 5
    637c:	d0 f7       	brcc	.-12     	; 0x6372 <isspace+0x2>
    637e:	08 95       	ret

00006380 <toupper>:
    6380:	91 11       	cpse	r25, r1
    6382:	08 95       	ret
    6384:	81 56       	subi	r24, 0x61	; 97
    6386:	8a 51       	subi	r24, 0x1A	; 26
    6388:	08 f4       	brcc	.+2      	; 0x638c <toupper+0xc>
    638a:	80 52       	subi	r24, 0x20	; 32
    638c:	85 58       	subi	r24, 0x85	; 133
    638e:	08 95       	ret

00006390 <strnlen_P>:
    6390:	fc 01       	movw	r30, r24
    6392:	05 90       	lpm	r0, Z+
    6394:	61 50       	subi	r22, 0x01	; 1
    6396:	70 40       	sbci	r23, 0x00	; 0
    6398:	01 10       	cpse	r0, r1
    639a:	d8 f7       	brcc	.-10     	; 0x6392 <strnlen_P+0x2>
    639c:	80 95       	com	r24
    639e:	90 95       	com	r25
    63a0:	8e 0f       	add	r24, r30
    63a2:	9f 1f       	adc	r25, r31
    63a4:	08 95       	ret

000063a6 <memcpy>:
    63a6:	fb 01       	movw	r30, r22
    63a8:	dc 01       	movw	r26, r24
    63aa:	02 c0       	rjmp	.+4      	; 0x63b0 <memcpy+0xa>
    63ac:	01 90       	ld	r0, Z+
    63ae:	0d 92       	st	X+, r0
    63b0:	41 50       	subi	r20, 0x01	; 1
    63b2:	50 40       	sbci	r21, 0x00	; 0
    63b4:	d8 f7       	brcc	.-10     	; 0x63ac <memcpy+0x6>
    63b6:	08 95       	ret

000063b8 <strcat>:
    63b8:	fb 01       	movw	r30, r22
    63ba:	dc 01       	movw	r26, r24
    63bc:	0d 90       	ld	r0, X+
    63be:	00 20       	and	r0, r0
    63c0:	e9 f7       	brne	.-6      	; 0x63bc <strcat+0x4>
    63c2:	11 97       	sbiw	r26, 0x01	; 1
    63c4:	01 90       	ld	r0, Z+
    63c6:	0d 92       	st	X+, r0
    63c8:	00 20       	and	r0, r0
    63ca:	e1 f7       	brne	.-8      	; 0x63c4 <strcat+0xc>
    63cc:	08 95       	ret

000063ce <strcmp>:
    63ce:	fb 01       	movw	r30, r22
    63d0:	dc 01       	movw	r26, r24
    63d2:	8d 91       	ld	r24, X+
    63d4:	01 90       	ld	r0, Z+
    63d6:	80 19       	sub	r24, r0
    63d8:	01 10       	cpse	r0, r1
    63da:	d9 f3       	breq	.-10     	; 0x63d2 <strcmp+0x4>
    63dc:	99 0b       	sbc	r25, r25
    63de:	08 95       	ret

000063e0 <strcpy>:
    63e0:	fb 01       	movw	r30, r22
    63e2:	dc 01       	movw	r26, r24
    63e4:	01 90       	ld	r0, Z+
    63e6:	0d 92       	st	X+, r0
    63e8:	00 20       	and	r0, r0
    63ea:	e1 f7       	brne	.-8      	; 0x63e4 <strcpy+0x4>
    63ec:	08 95       	ret

000063ee <strnlen>:
    63ee:	fc 01       	movw	r30, r24
    63f0:	61 50       	subi	r22, 0x01	; 1
    63f2:	70 40       	sbci	r23, 0x00	; 0
    63f4:	01 90       	ld	r0, Z+
    63f6:	01 10       	cpse	r0, r1
    63f8:	d8 f7       	brcc	.-10     	; 0x63f0 <strnlen+0x2>
    63fa:	80 95       	com	r24
    63fc:	90 95       	com	r25
    63fe:	8e 0f       	add	r24, r30
    6400:	9f 1f       	adc	r25, r31
    6402:	08 95       	ret

00006404 <__mulhi_const_10>:
    6404:	7a e0       	ldi	r23, 0x0A	; 10
    6406:	97 9f       	mul	r25, r23
    6408:	90 2d       	mov	r25, r0
    640a:	87 9f       	mul	r24, r23
    640c:	80 2d       	mov	r24, r0
    640e:	91 0d       	add	r25, r1
    6410:	11 24       	eor	r1, r1
    6412:	08 95       	ret

00006414 <fputc>:
    6414:	0f 93       	push	r16
    6416:	1f 93       	push	r17
    6418:	cf 93       	push	r28
    641a:	df 93       	push	r29
    641c:	fb 01       	movw	r30, r22
    641e:	23 81       	ldd	r18, Z+3	; 0x03
    6420:	21 fd       	sbrc	r18, 1
    6422:	03 c0       	rjmp	.+6      	; 0x642a <fputc+0x16>
    6424:	8f ef       	ldi	r24, 0xFF	; 255
    6426:	9f ef       	ldi	r25, 0xFF	; 255
    6428:	2c c0       	rjmp	.+88     	; 0x6482 <fputc+0x6e>
    642a:	22 ff       	sbrs	r18, 2
    642c:	16 c0       	rjmp	.+44     	; 0x645a <fputc+0x46>
    642e:	46 81       	ldd	r20, Z+6	; 0x06
    6430:	57 81       	ldd	r21, Z+7	; 0x07
    6432:	24 81       	ldd	r18, Z+4	; 0x04
    6434:	35 81       	ldd	r19, Z+5	; 0x05
    6436:	42 17       	cp	r20, r18
    6438:	53 07       	cpc	r21, r19
    643a:	44 f4       	brge	.+16     	; 0x644c <fputc+0x38>
    643c:	a0 81       	ld	r26, Z
    643e:	b1 81       	ldd	r27, Z+1	; 0x01
    6440:	9d 01       	movw	r18, r26
    6442:	2f 5f       	subi	r18, 0xFF	; 255
    6444:	3f 4f       	sbci	r19, 0xFF	; 255
    6446:	31 83       	std	Z+1, r19	; 0x01
    6448:	20 83       	st	Z, r18
    644a:	8c 93       	st	X, r24
    644c:	26 81       	ldd	r18, Z+6	; 0x06
    644e:	37 81       	ldd	r19, Z+7	; 0x07
    6450:	2f 5f       	subi	r18, 0xFF	; 255
    6452:	3f 4f       	sbci	r19, 0xFF	; 255
    6454:	37 83       	std	Z+7, r19	; 0x07
    6456:	26 83       	std	Z+6, r18	; 0x06
    6458:	14 c0       	rjmp	.+40     	; 0x6482 <fputc+0x6e>
    645a:	8b 01       	movw	r16, r22
    645c:	ec 01       	movw	r28, r24
    645e:	fb 01       	movw	r30, r22
    6460:	00 84       	ldd	r0, Z+8	; 0x08
    6462:	f1 85       	ldd	r31, Z+9	; 0x09
    6464:	e0 2d       	mov	r30, r0
    6466:	09 95       	icall
    6468:	89 2b       	or	r24, r25
    646a:	e1 f6       	brne	.-72     	; 0x6424 <fputc+0x10>
    646c:	d8 01       	movw	r26, r16
    646e:	16 96       	adiw	r26, 0x06	; 6
    6470:	8d 91       	ld	r24, X+
    6472:	9c 91       	ld	r25, X
    6474:	17 97       	sbiw	r26, 0x07	; 7
    6476:	01 96       	adiw	r24, 0x01	; 1
    6478:	17 96       	adiw	r26, 0x07	; 7
    647a:	9c 93       	st	X, r25
    647c:	8e 93       	st	-X, r24
    647e:	16 97       	sbiw	r26, 0x06	; 6
    6480:	ce 01       	movw	r24, r28
    6482:	df 91       	pop	r29
    6484:	cf 91       	pop	r28
    6486:	1f 91       	pop	r17
    6488:	0f 91       	pop	r16
    648a:	08 95       	ret

0000648c <sprintf>:
    648c:	0f 93       	push	r16
    648e:	1f 93       	push	r17
    6490:	cf 93       	push	r28
    6492:	df 93       	push	r29
    6494:	cd b7       	in	r28, 0x3d	; 61
    6496:	de b7       	in	r29, 0x3e	; 62
    6498:	2e 97       	sbiw	r28, 0x0e	; 14
    649a:	0f b6       	in	r0, 0x3f	; 63
    649c:	f8 94       	cli
    649e:	de bf       	out	0x3e, r29	; 62
    64a0:	0f be       	out	0x3f, r0	; 63
    64a2:	cd bf       	out	0x3d, r28	; 61
    64a4:	0d 89       	ldd	r16, Y+21	; 0x15
    64a6:	1e 89       	ldd	r17, Y+22	; 0x16
    64a8:	86 e0       	ldi	r24, 0x06	; 6
    64aa:	8c 83       	std	Y+4, r24	; 0x04
    64ac:	1a 83       	std	Y+2, r17	; 0x02
    64ae:	09 83       	std	Y+1, r16	; 0x01
    64b0:	8f ef       	ldi	r24, 0xFF	; 255
    64b2:	9f e7       	ldi	r25, 0x7F	; 127
    64b4:	9e 83       	std	Y+6, r25	; 0x06
    64b6:	8d 83       	std	Y+5, r24	; 0x05
    64b8:	ae 01       	movw	r20, r28
    64ba:	47 5e       	subi	r20, 0xE7	; 231
    64bc:	5f 4f       	sbci	r21, 0xFF	; 255
    64be:	6f 89       	ldd	r22, Y+23	; 0x17
    64c0:	78 8d       	ldd	r23, Y+24	; 0x18
    64c2:	ce 01       	movw	r24, r28
    64c4:	01 96       	adiw	r24, 0x01	; 1
    64c6:	4c d8       	rcall	.-3944   	; 0x5560 <vfprintf>
    64c8:	ef 81       	ldd	r30, Y+7	; 0x07
    64ca:	f8 85       	ldd	r31, Y+8	; 0x08
    64cc:	e0 0f       	add	r30, r16
    64ce:	f1 1f       	adc	r31, r17
    64d0:	10 82       	st	Z, r1
    64d2:	2e 96       	adiw	r28, 0x0e	; 14
    64d4:	0f b6       	in	r0, 0x3f	; 63
    64d6:	f8 94       	cli
    64d8:	de bf       	out	0x3e, r29	; 62
    64da:	0f be       	out	0x3f, r0	; 63
    64dc:	cd bf       	out	0x3d, r28	; 61
    64de:	df 91       	pop	r29
    64e0:	cf 91       	pop	r28
    64e2:	1f 91       	pop	r17
    64e4:	0f 91       	pop	r16
    64e6:	08 95       	ret

000064e8 <__ultoa_invert>:
    64e8:	fa 01       	movw	r30, r20
    64ea:	aa 27       	eor	r26, r26
    64ec:	28 30       	cpi	r18, 0x08	; 8
    64ee:	51 f1       	breq	.+84     	; 0x6544 <__ultoa_invert+0x5c>
    64f0:	20 31       	cpi	r18, 0x10	; 16
    64f2:	81 f1       	breq	.+96     	; 0x6554 <__ultoa_invert+0x6c>
    64f4:	e8 94       	clt
    64f6:	6f 93       	push	r22
    64f8:	6e 7f       	andi	r22, 0xFE	; 254
    64fa:	6e 5f       	subi	r22, 0xFE	; 254
    64fc:	7f 4f       	sbci	r23, 0xFF	; 255
    64fe:	8f 4f       	sbci	r24, 0xFF	; 255
    6500:	9f 4f       	sbci	r25, 0xFF	; 255
    6502:	af 4f       	sbci	r26, 0xFF	; 255
    6504:	b1 e0       	ldi	r27, 0x01	; 1
    6506:	3e d0       	rcall	.+124    	; 0x6584 <__ultoa_invert+0x9c>
    6508:	b4 e0       	ldi	r27, 0x04	; 4
    650a:	3c d0       	rcall	.+120    	; 0x6584 <__ultoa_invert+0x9c>
    650c:	67 0f       	add	r22, r23
    650e:	78 1f       	adc	r23, r24
    6510:	89 1f       	adc	r24, r25
    6512:	9a 1f       	adc	r25, r26
    6514:	a1 1d       	adc	r26, r1
    6516:	68 0f       	add	r22, r24
    6518:	79 1f       	adc	r23, r25
    651a:	8a 1f       	adc	r24, r26
    651c:	91 1d       	adc	r25, r1
    651e:	a1 1d       	adc	r26, r1
    6520:	6a 0f       	add	r22, r26
    6522:	71 1d       	adc	r23, r1
    6524:	81 1d       	adc	r24, r1
    6526:	91 1d       	adc	r25, r1
    6528:	a1 1d       	adc	r26, r1
    652a:	20 d0       	rcall	.+64     	; 0x656c <__ultoa_invert+0x84>
    652c:	09 f4       	brne	.+2      	; 0x6530 <__ultoa_invert+0x48>
    652e:	68 94       	set
    6530:	3f 91       	pop	r19
    6532:	2a e0       	ldi	r18, 0x0A	; 10
    6534:	26 9f       	mul	r18, r22
    6536:	11 24       	eor	r1, r1
    6538:	30 19       	sub	r19, r0
    653a:	30 5d       	subi	r19, 0xD0	; 208
    653c:	31 93       	st	Z+, r19
    653e:	de f6       	brtc	.-74     	; 0x64f6 <__ultoa_invert+0xe>
    6540:	cf 01       	movw	r24, r30
    6542:	08 95       	ret
    6544:	46 2f       	mov	r20, r22
    6546:	47 70       	andi	r20, 0x07	; 7
    6548:	40 5d       	subi	r20, 0xD0	; 208
    654a:	41 93       	st	Z+, r20
    654c:	b3 e0       	ldi	r27, 0x03	; 3
    654e:	0f d0       	rcall	.+30     	; 0x656e <__ultoa_invert+0x86>
    6550:	c9 f7       	brne	.-14     	; 0x6544 <__ultoa_invert+0x5c>
    6552:	f6 cf       	rjmp	.-20     	; 0x6540 <__ultoa_invert+0x58>
    6554:	46 2f       	mov	r20, r22
    6556:	4f 70       	andi	r20, 0x0F	; 15
    6558:	40 5d       	subi	r20, 0xD0	; 208
    655a:	4a 33       	cpi	r20, 0x3A	; 58
    655c:	18 f0       	brcs	.+6      	; 0x6564 <__ultoa_invert+0x7c>
    655e:	49 5d       	subi	r20, 0xD9	; 217
    6560:	31 fd       	sbrc	r19, 1
    6562:	40 52       	subi	r20, 0x20	; 32
    6564:	41 93       	st	Z+, r20
    6566:	02 d0       	rcall	.+4      	; 0x656c <__ultoa_invert+0x84>
    6568:	a9 f7       	brne	.-22     	; 0x6554 <__ultoa_invert+0x6c>
    656a:	ea cf       	rjmp	.-44     	; 0x6540 <__ultoa_invert+0x58>
    656c:	b4 e0       	ldi	r27, 0x04	; 4
    656e:	a6 95       	lsr	r26
    6570:	97 95       	ror	r25
    6572:	87 95       	ror	r24
    6574:	77 95       	ror	r23
    6576:	67 95       	ror	r22
    6578:	ba 95       	dec	r27
    657a:	c9 f7       	brne	.-14     	; 0x656e <__ultoa_invert+0x86>
    657c:	00 97       	sbiw	r24, 0x00	; 0
    657e:	61 05       	cpc	r22, r1
    6580:	71 05       	cpc	r23, r1
    6582:	08 95       	ret
    6584:	9b 01       	movw	r18, r22
    6586:	ac 01       	movw	r20, r24
    6588:	0a 2e       	mov	r0, r26
    658a:	06 94       	lsr	r0
    658c:	57 95       	ror	r21
    658e:	47 95       	ror	r20
    6590:	37 95       	ror	r19
    6592:	27 95       	ror	r18
    6594:	ba 95       	dec	r27
    6596:	c9 f7       	brne	.-14     	; 0x658a <__ultoa_invert+0xa2>
    6598:	62 0f       	add	r22, r18
    659a:	73 1f       	adc	r23, r19
    659c:	84 1f       	adc	r24, r20
    659e:	95 1f       	adc	r25, r21
    65a0:	a0 1d       	adc	r26, r0
    65a2:	08 95       	ret

000065a4 <strtod>:
    65a4:	8f 92       	push	r8
    65a6:	9f 92       	push	r9
    65a8:	af 92       	push	r10
    65aa:	bf 92       	push	r11
    65ac:	cf 92       	push	r12
    65ae:	df 92       	push	r13
    65b0:	ef 92       	push	r14
    65b2:	ff 92       	push	r15
    65b4:	0f 93       	push	r16
    65b6:	1f 93       	push	r17
    65b8:	cf 93       	push	r28
    65ba:	df 93       	push	r29
    65bc:	ec 01       	movw	r28, r24
    65be:	6b 01       	movw	r12, r22
    65c0:	61 15       	cp	r22, r1
    65c2:	71 05       	cpc	r23, r1
    65c4:	19 f0       	breq	.+6      	; 0x65cc <strtod+0x28>
    65c6:	fb 01       	movw	r30, r22
    65c8:	91 83       	std	Z+1, r25	; 0x01
    65ca:	80 83       	st	Z, r24
    65cc:	7e 01       	movw	r14, r28
    65ce:	ff ef       	ldi	r31, 0xFF	; 255
    65d0:	ef 1a       	sub	r14, r31
    65d2:	ff 0a       	sbc	r15, r31
    65d4:	08 81       	ld	r16, Y
    65d6:	80 2f       	mov	r24, r16
    65d8:	90 e0       	ldi	r25, 0x00	; 0
    65da:	ca de       	rcall	.-620    	; 0x6370 <isspace>
    65dc:	89 2b       	or	r24, r25
    65de:	11 f0       	breq	.+4      	; 0x65e4 <strtod+0x40>
    65e0:	e7 01       	movw	r28, r14
    65e2:	f4 cf       	rjmp	.-24     	; 0x65cc <strtod+0x28>
    65e4:	0d 32       	cpi	r16, 0x2D	; 45
    65e6:	39 f4       	brne	.+14     	; 0x65f6 <strtod+0x52>
    65e8:	7e 01       	movw	r14, r28
    65ea:	82 e0       	ldi	r24, 0x02	; 2
    65ec:	e8 0e       	add	r14, r24
    65ee:	f1 1c       	adc	r15, r1
    65f0:	09 81       	ldd	r16, Y+1	; 0x01
    65f2:	11 e0       	ldi	r17, 0x01	; 1
    65f4:	08 c0       	rjmp	.+16     	; 0x6606 <strtod+0x62>
    65f6:	0b 32       	cpi	r16, 0x2B	; 43
    65f8:	29 f4       	brne	.+10     	; 0x6604 <strtod+0x60>
    65fa:	7e 01       	movw	r14, r28
    65fc:	92 e0       	ldi	r25, 0x02	; 2
    65fe:	e9 0e       	add	r14, r25
    6600:	f1 1c       	adc	r15, r1
    6602:	09 81       	ldd	r16, Y+1	; 0x01
    6604:	10 e0       	ldi	r17, 0x00	; 0
    6606:	e7 01       	movw	r28, r14
    6608:	21 97       	sbiw	r28, 0x01	; 1
    660a:	43 e0       	ldi	r20, 0x03	; 3
    660c:	50 e0       	ldi	r21, 0x00	; 0
    660e:	66 e9       	ldi	r22, 0x96	; 150
    6610:	71 e0       	ldi	r23, 0x01	; 1
    6612:	ce 01       	movw	r24, r28
    6614:	1e d1       	rcall	.+572    	; 0x6852 <strncasecmp_P>
    6616:	89 2b       	or	r24, r25
    6618:	b9 f4       	brne	.+46     	; 0x6648 <strtod+0xa4>
    661a:	23 96       	adiw	r28, 0x03	; 3
    661c:	45 e0       	ldi	r20, 0x05	; 5
    661e:	50 e0       	ldi	r21, 0x00	; 0
    6620:	61 e9       	ldi	r22, 0x91	; 145
    6622:	71 e0       	ldi	r23, 0x01	; 1
    6624:	ce 01       	movw	r24, r28
    6626:	15 d1       	rcall	.+554    	; 0x6852 <strncasecmp_P>
    6628:	89 2b       	or	r24, r25
    662a:	09 f4       	brne	.+2      	; 0x662e <strtod+0x8a>
    662c:	25 96       	adiw	r28, 0x05	; 5
    662e:	c1 14       	cp	r12, r1
    6630:	d1 04       	cpc	r13, r1
    6632:	19 f0       	breq	.+6      	; 0x663a <strtod+0x96>
    6634:	f6 01       	movw	r30, r12
    6636:	d1 83       	std	Z+1, r29	; 0x01
    6638:	c0 83       	st	Z, r28
    663a:	11 11       	cpse	r17, r1
    663c:	f4 c0       	rjmp	.+488    	; 0x6826 <strtod+0x282>
    663e:	60 e0       	ldi	r22, 0x00	; 0
    6640:	70 e0       	ldi	r23, 0x00	; 0
    6642:	80 e8       	ldi	r24, 0x80	; 128
    6644:	9f e7       	ldi	r25, 0x7F	; 127
    6646:	f8 c0       	rjmp	.+496    	; 0x6838 <strtod+0x294>
    6648:	43 e0       	ldi	r20, 0x03	; 3
    664a:	50 e0       	ldi	r21, 0x00	; 0
    664c:	6e e8       	ldi	r22, 0x8E	; 142
    664e:	71 e0       	ldi	r23, 0x01	; 1
    6650:	ce 01       	movw	r24, r28
    6652:	ff d0       	rcall	.+510    	; 0x6852 <strncasecmp_P>
    6654:	89 2b       	or	r24, r25
    6656:	59 f4       	brne	.+22     	; 0x666e <strtod+0xca>
    6658:	c1 14       	cp	r12, r1
    665a:	d1 04       	cpc	r13, r1
    665c:	09 f4       	brne	.+2      	; 0x6660 <strtod+0xbc>
    665e:	e8 c0       	rjmp	.+464    	; 0x6830 <strtod+0x28c>
    6660:	f2 e0       	ldi	r31, 0x02	; 2
    6662:	ef 0e       	add	r14, r31
    6664:	f1 1c       	adc	r15, r1
    6666:	f6 01       	movw	r30, r12
    6668:	f1 82       	std	Z+1, r15	; 0x01
    666a:	e0 82       	st	Z, r14
    666c:	e1 c0       	rjmp	.+450    	; 0x6830 <strtod+0x28c>
    666e:	20 e0       	ldi	r18, 0x00	; 0
    6670:	30 e0       	ldi	r19, 0x00	; 0
    6672:	a9 01       	movw	r20, r18
    6674:	c0 e0       	ldi	r28, 0x00	; 0
    6676:	d0 e0       	ldi	r29, 0x00	; 0
    6678:	f7 01       	movw	r30, r14
    667a:	60 ed       	ldi	r22, 0xD0	; 208
    667c:	a6 2e       	mov	r10, r22
    667e:	a0 0e       	add	r10, r16
    6680:	89 e0       	ldi	r24, 0x09	; 9
    6682:	8a 15       	cp	r24, r10
    6684:	28 f1       	brcs	.+74     	; 0x66d0 <strtod+0x12c>
    6686:	91 2f       	mov	r25, r17
    6688:	92 60       	ori	r25, 0x02	; 2
    668a:	b9 2e       	mov	r11, r25
    668c:	81 2f       	mov	r24, r17
    668e:	88 70       	andi	r24, 0x08	; 8
    6690:	12 ff       	sbrs	r17, 2
    6692:	04 c0       	rjmp	.+8      	; 0x669c <strtod+0xf8>
    6694:	81 11       	cpse	r24, r1
    6696:	23 c0       	rjmp	.+70     	; 0x66de <strtod+0x13a>
    6698:	21 96       	adiw	r28, 0x01	; 1
    669a:	21 c0       	rjmp	.+66     	; 0x66de <strtod+0x13a>
    669c:	81 11       	cpse	r24, r1
    669e:	21 97       	sbiw	r28, 0x01	; 1
    66a0:	a5 e0       	ldi	r26, 0x05	; 5
    66a2:	b0 e0       	ldi	r27, 0x00	; 0
    66a4:	35 d1       	rcall	.+618    	; 0x6910 <__muluhisi3>
    66a6:	dc 01       	movw	r26, r24
    66a8:	cb 01       	movw	r24, r22
    66aa:	88 0f       	add	r24, r24
    66ac:	99 1f       	adc	r25, r25
    66ae:	aa 1f       	adc	r26, r26
    66b0:	bb 1f       	adc	r27, r27
    66b2:	9c 01       	movw	r18, r24
    66b4:	ad 01       	movw	r20, r26
    66b6:	2a 0d       	add	r18, r10
    66b8:	31 1d       	adc	r19, r1
    66ba:	41 1d       	adc	r20, r1
    66bc:	51 1d       	adc	r21, r1
    66be:	28 39       	cpi	r18, 0x98	; 152
    66c0:	89 e9       	ldi	r24, 0x99	; 153
    66c2:	38 07       	cpc	r19, r24
    66c4:	48 07       	cpc	r20, r24
    66c6:	89 e1       	ldi	r24, 0x19	; 25
    66c8:	58 07       	cpc	r21, r24
    66ca:	48 f0       	brcs	.+18     	; 0x66de <strtod+0x13a>
    66cc:	16 60       	ori	r17, 0x06	; 6
    66ce:	06 c0       	rjmp	.+12     	; 0x66dc <strtod+0x138>
    66d0:	9e ef       	ldi	r25, 0xFE	; 254
    66d2:	a9 12       	cpse	r10, r25
    66d4:	0a c0       	rjmp	.+20     	; 0x66ea <strtod+0x146>
    66d6:	13 fd       	sbrc	r17, 3
    66d8:	40 c0       	rjmp	.+128    	; 0x675a <strtod+0x1b6>
    66da:	18 60       	ori	r17, 0x08	; 8
    66dc:	b1 2e       	mov	r11, r17
    66de:	8f ef       	ldi	r24, 0xFF	; 255
    66e0:	e8 1a       	sub	r14, r24
    66e2:	f8 0a       	sbc	r15, r24
    66e4:	00 81       	ld	r16, Z
    66e6:	1b 2d       	mov	r17, r11
    66e8:	c7 cf       	rjmp	.-114    	; 0x6678 <strtod+0xd4>
    66ea:	80 2f       	mov	r24, r16
    66ec:	8f 7d       	andi	r24, 0xDF	; 223
    66ee:	85 34       	cpi	r24, 0x45	; 69
    66f0:	a1 f5       	brne	.+104    	; 0x675a <strtod+0x1b6>
    66f2:	80 81       	ld	r24, Z
    66f4:	8d 32       	cpi	r24, 0x2D	; 45
    66f6:	11 f4       	brne	.+4      	; 0x66fc <strtod+0x158>
    66f8:	10 61       	ori	r17, 0x10	; 16
    66fa:	06 c0       	rjmp	.+12     	; 0x6708 <strtod+0x164>
    66fc:	8b 32       	cpi	r24, 0x2B	; 43
    66fe:	21 f0       	breq	.+8      	; 0x6708 <strtod+0x164>
    6700:	31 96       	adiw	r30, 0x01	; 1
    6702:	61 e0       	ldi	r22, 0x01	; 1
    6704:	70 e0       	ldi	r23, 0x00	; 0
    6706:	04 c0       	rjmp	.+8      	; 0x6710 <strtod+0x16c>
    6708:	81 81       	ldd	r24, Z+1	; 0x01
    670a:	32 96       	adiw	r30, 0x02	; 2
    670c:	62 e0       	ldi	r22, 0x02	; 2
    670e:	70 e0       	ldi	r23, 0x00	; 0
    6710:	80 53       	subi	r24, 0x30	; 48
    6712:	8a 30       	cpi	r24, 0x0A	; 10
    6714:	18 f0       	brcs	.+6      	; 0x671c <strtod+0x178>
    6716:	e6 1b       	sub	r30, r22
    6718:	f7 0b       	sbc	r31, r23
    671a:	1f c0       	rjmp	.+62     	; 0x675a <strtod+0x1b6>
    671c:	60 e0       	ldi	r22, 0x00	; 0
    671e:	70 e0       	ldi	r23, 0x00	; 0
    6720:	60 38       	cpi	r22, 0x80	; 128
    6722:	9c e0       	ldi	r25, 0x0C	; 12
    6724:	79 07       	cpc	r23, r25
    6726:	5c f4       	brge	.+22     	; 0x673e <strtod+0x19a>
    6728:	db 01       	movw	r26, r22
    672a:	aa 0f       	add	r26, r26
    672c:	bb 1f       	adc	r27, r27
    672e:	aa 0f       	add	r26, r26
    6730:	bb 1f       	adc	r27, r27
    6732:	6a 0f       	add	r22, r26
    6734:	7b 1f       	adc	r23, r27
    6736:	66 0f       	add	r22, r22
    6738:	77 1f       	adc	r23, r23
    673a:	68 0f       	add	r22, r24
    673c:	71 1d       	adc	r23, r1
    673e:	31 96       	adiw	r30, 0x01	; 1
    6740:	df 01       	movw	r26, r30
    6742:	11 97       	sbiw	r26, 0x01	; 1
    6744:	8c 91       	ld	r24, X
    6746:	80 53       	subi	r24, 0x30	; 48
    6748:	8a 30       	cpi	r24, 0x0A	; 10
    674a:	50 f3       	brcs	.-44     	; 0x6720 <strtod+0x17c>
    674c:	14 ff       	sbrs	r17, 4
    674e:	03 c0       	rjmp	.+6      	; 0x6756 <strtod+0x1b2>
    6750:	71 95       	neg	r23
    6752:	61 95       	neg	r22
    6754:	71 09       	sbc	r23, r1
    6756:	c6 0f       	add	r28, r22
    6758:	d7 1f       	adc	r29, r23
    675a:	11 ff       	sbrs	r17, 1
    675c:	08 c0       	rjmp	.+16     	; 0x676e <strtod+0x1ca>
    675e:	c1 14       	cp	r12, r1
    6760:	d1 04       	cpc	r13, r1
    6762:	29 f0       	breq	.+10     	; 0x676e <strtod+0x1ca>
    6764:	cf 01       	movw	r24, r30
    6766:	01 97       	sbiw	r24, 0x01	; 1
    6768:	f6 01       	movw	r30, r12
    676a:	91 83       	std	Z+1, r25	; 0x01
    676c:	80 83       	st	Z, r24
    676e:	ca 01       	movw	r24, r20
    6770:	b9 01       	movw	r22, r18
    6772:	0e 94 97 29 	call	0x532e	; 0x532e <__floatunsisf>
    6776:	21 2f       	mov	r18, r17
    6778:	23 70       	andi	r18, 0x03	; 3
    677a:	23 30       	cpi	r18, 0x03	; 3
    677c:	19 f0       	breq	.+6      	; 0x6784 <strtod+0x1e0>
    677e:	4b 01       	movw	r8, r22
    6780:	5c 01       	movw	r10, r24
    6782:	06 c0       	rjmp	.+12     	; 0x6790 <strtod+0x1ec>
    6784:	4b 01       	movw	r8, r22
    6786:	5c 01       	movw	r10, r24
    6788:	b7 fa       	bst	r11, 7
    678a:	b0 94       	com	r11
    678c:	b7 f8       	bld	r11, 7
    678e:	b0 94       	com	r11
    6790:	20 e0       	ldi	r18, 0x00	; 0
    6792:	30 e0       	ldi	r19, 0x00	; 0
    6794:	a9 01       	movw	r20, r18
    6796:	c5 01       	movw	r24, r10
    6798:	b4 01       	movw	r22, r8
    679a:	0e 94 fa 28 	call	0x51f4	; 0x51f4 <__cmpsf2>
    679e:	88 23       	and	r24, r24
    67a0:	09 f4       	brne	.+2      	; 0x67a4 <strtod+0x200>
    67a2:	3e c0       	rjmp	.+124    	; 0x6820 <strtod+0x27c>
    67a4:	d7 ff       	sbrs	r29, 7
    67a6:	06 c0       	rjmp	.+12     	; 0x67b4 <strtod+0x210>
    67a8:	d1 95       	neg	r29
    67aa:	c1 95       	neg	r28
    67ac:	d1 09       	sbc	r29, r1
    67ae:	0d ea       	ldi	r16, 0xAD	; 173
    67b0:	11 e0       	ldi	r17, 0x01	; 1
    67b2:	02 c0       	rjmp	.+4      	; 0x67b8 <strtod+0x214>
    67b4:	05 ec       	ldi	r16, 0xC5	; 197
    67b6:	11 e0       	ldi	r17, 0x01	; 1
    67b8:	68 01       	movw	r12, r16
    67ba:	f8 e1       	ldi	r31, 0x18	; 24
    67bc:	cf 1a       	sub	r12, r31
    67be:	d1 08       	sbc	r13, r1
    67c0:	90 e2       	ldi	r25, 0x20	; 32
    67c2:	e9 2e       	mov	r14, r25
    67c4:	f1 2c       	mov	r15, r1
    67c6:	ce 15       	cp	r28, r14
    67c8:	df 05       	cpc	r29, r15
    67ca:	74 f0       	brlt	.+28     	; 0x67e8 <strtod+0x244>
    67cc:	f8 01       	movw	r30, r16
    67ce:	25 91       	lpm	r18, Z+
    67d0:	35 91       	lpm	r19, Z+
    67d2:	45 91       	lpm	r20, Z+
    67d4:	54 91       	lpm	r21, Z
    67d6:	c5 01       	movw	r24, r10
    67d8:	b4 01       	movw	r22, r8
    67da:	0e 94 4d 2a 	call	0x549a	; 0x549a <__mulsf3>
    67de:	4b 01       	movw	r8, r22
    67e0:	5c 01       	movw	r10, r24
    67e2:	ce 19       	sub	r28, r14
    67e4:	df 09       	sbc	r29, r15
    67e6:	ef cf       	rjmp	.-34     	; 0x67c6 <strtod+0x222>
    67e8:	04 50       	subi	r16, 0x04	; 4
    67ea:	11 09       	sbc	r17, r1
    67ec:	f5 94       	asr	r15
    67ee:	e7 94       	ror	r14
    67f0:	0c 15       	cp	r16, r12
    67f2:	1d 05       	cpc	r17, r13
    67f4:	41 f7       	brne	.-48     	; 0x67c6 <strtod+0x222>
    67f6:	8a 2d       	mov	r24, r10
    67f8:	88 0f       	add	r24, r24
    67fa:	8b 2d       	mov	r24, r11
    67fc:	88 1f       	adc	r24, r24
    67fe:	8f 3f       	cpi	r24, 0xFF	; 255
    6800:	49 f0       	breq	.+18     	; 0x6814 <strtod+0x270>
    6802:	20 e0       	ldi	r18, 0x00	; 0
    6804:	30 e0       	ldi	r19, 0x00	; 0
    6806:	a9 01       	movw	r20, r18
    6808:	c5 01       	movw	r24, r10
    680a:	b4 01       	movw	r22, r8
    680c:	0e 94 fa 28 	call	0x51f4	; 0x51f4 <__cmpsf2>
    6810:	81 11       	cpse	r24, r1
    6812:	06 c0       	rjmp	.+12     	; 0x6820 <strtod+0x27c>
    6814:	82 e2       	ldi	r24, 0x22	; 34
    6816:	90 e0       	ldi	r25, 0x00	; 0
    6818:	90 93 37 04 	sts	0x0437, r25	; 0x800437 <errno+0x1>
    681c:	80 93 36 04 	sts	0x0436, r24	; 0x800436 <errno>
    6820:	c5 01       	movw	r24, r10
    6822:	b4 01       	movw	r22, r8
    6824:	09 c0       	rjmp	.+18     	; 0x6838 <strtod+0x294>
    6826:	60 e0       	ldi	r22, 0x00	; 0
    6828:	70 e0       	ldi	r23, 0x00	; 0
    682a:	80 e8       	ldi	r24, 0x80	; 128
    682c:	9f ef       	ldi	r25, 0xFF	; 255
    682e:	04 c0       	rjmp	.+8      	; 0x6838 <strtod+0x294>
    6830:	60 e0       	ldi	r22, 0x00	; 0
    6832:	70 e0       	ldi	r23, 0x00	; 0
    6834:	80 ec       	ldi	r24, 0xC0	; 192
    6836:	9f e7       	ldi	r25, 0x7F	; 127
    6838:	df 91       	pop	r29
    683a:	cf 91       	pop	r28
    683c:	1f 91       	pop	r17
    683e:	0f 91       	pop	r16
    6840:	ff 90       	pop	r15
    6842:	ef 90       	pop	r14
    6844:	df 90       	pop	r13
    6846:	cf 90       	pop	r12
    6848:	bf 90       	pop	r11
    684a:	af 90       	pop	r10
    684c:	9f 90       	pop	r9
    684e:	8f 90       	pop	r8
    6850:	08 95       	ret

00006852 <strncasecmp_P>:
    6852:	fb 01       	movw	r30, r22
    6854:	dc 01       	movw	r26, r24
    6856:	41 50       	subi	r20, 0x01	; 1
    6858:	50 40       	sbci	r21, 0x00	; 0
    685a:	88 f0       	brcs	.+34     	; 0x687e <strncasecmp_P+0x2c>
    685c:	8d 91       	ld	r24, X+
    685e:	81 34       	cpi	r24, 0x41	; 65
    6860:	1c f0       	brlt	.+6      	; 0x6868 <strncasecmp_P+0x16>
    6862:	8b 35       	cpi	r24, 0x5B	; 91
    6864:	0c f4       	brge	.+2      	; 0x6868 <strncasecmp_P+0x16>
    6866:	80 5e       	subi	r24, 0xE0	; 224
    6868:	65 91       	lpm	r22, Z+
    686a:	61 34       	cpi	r22, 0x41	; 65
    686c:	1c f0       	brlt	.+6      	; 0x6874 <strncasecmp_P+0x22>
    686e:	6b 35       	cpi	r22, 0x5B	; 91
    6870:	0c f4       	brge	.+2      	; 0x6874 <strncasecmp_P+0x22>
    6872:	60 5e       	subi	r22, 0xE0	; 224
    6874:	86 1b       	sub	r24, r22
    6876:	61 11       	cpse	r22, r1
    6878:	71 f3       	breq	.-36     	; 0x6856 <strncasecmp_P+0x4>
    687a:	99 0b       	sbc	r25, r25
    687c:	08 95       	ret
    687e:	88 1b       	sub	r24, r24
    6880:	fc cf       	rjmp	.-8      	; 0x687a <strncasecmp_P+0x28>

00006882 <eeprom_read_byte>:
    6882:	f9 99       	sbic	0x1f, 1	; 31
    6884:	fe cf       	rjmp	.-4      	; 0x6882 <eeprom_read_byte>
    6886:	92 bd       	out	0x22, r25	; 34
    6888:	81 bd       	out	0x21, r24	; 33
    688a:	f8 9a       	sbi	0x1f, 0	; 31
    688c:	99 27       	eor	r25, r25
    688e:	80 b5       	in	r24, 0x20	; 32
    6890:	08 95       	ret

00006892 <eeprom_write_byte>:
    6892:	26 2f       	mov	r18, r22

00006894 <eeprom_write_r18>:
    6894:	f9 99       	sbic	0x1f, 1	; 31
    6896:	fe cf       	rjmp	.-4      	; 0x6894 <eeprom_write_r18>
    6898:	1f ba       	out	0x1f, r1	; 31
    689a:	92 bd       	out	0x22, r25	; 34
    689c:	81 bd       	out	0x21, r24	; 33
    689e:	20 bd       	out	0x20, r18	; 32
    68a0:	0f b6       	in	r0, 0x3f	; 63
    68a2:	f8 94       	cli
    68a4:	fa 9a       	sbi	0x1f, 2	; 31
    68a6:	f9 9a       	sbi	0x1f, 1	; 31
    68a8:	0f be       	out	0x3f, r0	; 63
    68aa:	01 96       	adiw	r24, 0x01	; 1
    68ac:	08 95       	ret

000068ae <__mulsi3>:
    68ae:	db 01       	movw	r26, r22
    68b0:	8f 93       	push	r24
    68b2:	9f 93       	push	r25
    68b4:	2d d0       	rcall	.+90     	; 0x6910 <__muluhisi3>
    68b6:	bf 91       	pop	r27
    68b8:	af 91       	pop	r26
    68ba:	a2 9f       	mul	r26, r18
    68bc:	80 0d       	add	r24, r0
    68be:	91 1d       	adc	r25, r1
    68c0:	a3 9f       	mul	r26, r19
    68c2:	90 0d       	add	r25, r0
    68c4:	b2 9f       	mul	r27, r18
    68c6:	90 0d       	add	r25, r0
    68c8:	11 24       	eor	r1, r1
    68ca:	08 95       	ret

000068cc <__udivmodsi4>:
    68cc:	a1 e2       	ldi	r26, 0x21	; 33
    68ce:	1a 2e       	mov	r1, r26
    68d0:	aa 1b       	sub	r26, r26
    68d2:	bb 1b       	sub	r27, r27
    68d4:	fd 01       	movw	r30, r26
    68d6:	0d c0       	rjmp	.+26     	; 0x68f2 <__udivmodsi4_ep>

000068d8 <__udivmodsi4_loop>:
    68d8:	aa 1f       	adc	r26, r26
    68da:	bb 1f       	adc	r27, r27
    68dc:	ee 1f       	adc	r30, r30
    68de:	ff 1f       	adc	r31, r31
    68e0:	a2 17       	cp	r26, r18
    68e2:	b3 07       	cpc	r27, r19
    68e4:	e4 07       	cpc	r30, r20
    68e6:	f5 07       	cpc	r31, r21
    68e8:	20 f0       	brcs	.+8      	; 0x68f2 <__udivmodsi4_ep>
    68ea:	a2 1b       	sub	r26, r18
    68ec:	b3 0b       	sbc	r27, r19
    68ee:	e4 0b       	sbc	r30, r20
    68f0:	f5 0b       	sbc	r31, r21

000068f2 <__udivmodsi4_ep>:
    68f2:	66 1f       	adc	r22, r22
    68f4:	77 1f       	adc	r23, r23
    68f6:	88 1f       	adc	r24, r24
    68f8:	99 1f       	adc	r25, r25
    68fa:	1a 94       	dec	r1
    68fc:	69 f7       	brne	.-38     	; 0x68d8 <__udivmodsi4_loop>
    68fe:	60 95       	com	r22
    6900:	70 95       	com	r23
    6902:	80 95       	com	r24
    6904:	90 95       	com	r25
    6906:	9b 01       	movw	r18, r22
    6908:	ac 01       	movw	r20, r24
    690a:	bd 01       	movw	r22, r26
    690c:	cf 01       	movw	r24, r30
    690e:	08 95       	ret

00006910 <__muluhisi3>:
    6910:	09 d0       	rcall	.+18     	; 0x6924 <__umulhisi3>
    6912:	a5 9f       	mul	r26, r21
    6914:	90 0d       	add	r25, r0
    6916:	b4 9f       	mul	r27, r20
    6918:	90 0d       	add	r25, r0
    691a:	a4 9f       	mul	r26, r20
    691c:	80 0d       	add	r24, r0
    691e:	91 1d       	adc	r25, r1
    6920:	11 24       	eor	r1, r1
    6922:	08 95       	ret

00006924 <__umulhisi3>:
    6924:	a2 9f       	mul	r26, r18
    6926:	b0 01       	movw	r22, r0
    6928:	b3 9f       	mul	r27, r19
    692a:	c0 01       	movw	r24, r0
    692c:	a3 9f       	mul	r26, r19
    692e:	70 0d       	add	r23, r0
    6930:	81 1d       	adc	r24, r1
    6932:	11 24       	eor	r1, r1
    6934:	91 1d       	adc	r25, r1
    6936:	b2 9f       	mul	r27, r18
    6938:	70 0d       	add	r23, r0
    693a:	81 1d       	adc	r24, r1
    693c:	11 24       	eor	r1, r1
    693e:	91 1d       	adc	r25, r1
    6940:	08 95       	ret

00006942 <_exit>:
    6942:	f8 94       	cli

00006944 <__stop_program>:
    6944:	ff cf       	rjmp	.-2      	; 0x6944 <__stop_program>
